 canvas

 Timestamp is 5aac1a7d (Fri Mar 16 20:26:53 2018)

 Preferred load address is 0000000180000000

 Start         Length     Name                   Class
 0001:00000000 000000c0H .text$di                CODE
 0001:000000c0 0002b8a0H .text$mn                CODE
 0001:0002b960 000001e0H .text$mn$00             CODE
 0001:0002bb40 000006d0H .text$x                 CODE
 0001:0002c210 000000b1H .text$yd                CODE
 0002:00000000 00000610H .idata$5                DATA
 0002:00000610 00000010H .00cfg                  DATA
 0002:00000620 00000008H .CRT$XCA                DATA
 0002:00000628 00000038H .CRT$XCU                DATA
 0002:00000660 00000008H .CRT$XCZ                DATA
 0002:00000668 00000008H .CRT$XIA                DATA
 0002:00000670 00000018H .CRT$XIC                DATA
 0002:00000688 00000008H .CRT$XIZ                DATA
 0002:00000690 00000008H .CRT$XPA                DATA
 0002:00000698 00000010H .CRT$XPX                DATA
 0002:000006a8 00000008H .CRT$XPXA               DATA
 0002:000006b0 00000008H .CRT$XPZ                DATA
 0002:000006b8 00000008H .CRT$XTA                DATA
 0002:000006c0 00000010H .CRT$XTZ                DATA
 0002:000006d0 0000b598H .rdata                  DATA
 0002:0000bc68 0000037cH .rdata$r                DATA
 0002:0000bfe4 00000434H .rdata$zzzdbg           DATA
 0002:0000c418 00000008H .rtc$IAA                DATA
 0002:0000c420 00000008H .rtc$IZZ                DATA
 0002:0000c428 00000008H .rtc$TAA                DATA
 0002:0000c430 00000010H .rtc$TZZ                DATA
 0002:0000c440 00002b80H .xdata                  DATA
 0002:0000efc0 000001dcH .xdata$x                DATA
 0002:0000f19c 00000020H .didat$2                DATA
 0002:0000f1bc 00000024H .didat$3                DATA
 0002:0000f1e0 000002e8H .didat$4                DATA
 0002:0000f4c8 00001740H .didat$6                DATA
 0002:00010c08 000002e8H .didat$7                DATA
 0002:00010ef0 00000050H .edata                  DATA
 0002:00010f40 0000003cH .idata$2                DATA
 0002:00010f7c 00000014H .idata$3                DATA
 0002:00010f90 00000610H .idata$4                DATA
 0002:000115a0 00001000H .idata$6                DATA
 0003:00000000 00000a60H .data                   DATA
 0003:00000a60 00000118H .data$r                 DATA
 0003:00000b78 000002e8H .didat$5                DATA
 0003:00000e60 00001224H .bss                    DATA
 0004:00000000 00002490H .pdata                  DATA
 0005:00000000 00000084H .gfids$x                DATA
 0005:00000084 00000050H .gfids$y                DATA
 0006:00000000 00000060H .rsrc$01                DATA
 0006:00000060 00000180H .rsrc$02                DATA

  Address         Publics by Value              Rva+Base               Lib:Object

 0000:00000000       __dynamic_value_reloc_table 0000000000000000     <absolute>
 0000:00000000       __guard_iat_count          0000000000000000     <absolute>
 0000:00000000       __guard_iat_table          0000000000000000     <absolute>
 0000:00000000       __guard_longjmp_table      0000000000000000     <absolute>
 0000:00000000       __guard_fids_count         0000000000000000     <absolute>
 0000:00000000       __guard_longjmp_count      0000000000000000     <absolute>
 0000:00000000       ___safe_se_handler_table   0000000000000000     <absolute>
 0000:00000000       ___safe_se_handler_count   0000000000000000     <absolute>
 0000:00000000       __guard_fids_table         0000000000000000     <absolute>
 0000:00000100       __guard_flags              0000000000000100     <absolute>
 0000:00000000       __ImageBase                0000000180000000     <linker-defined>
 0001:000002e0       ?NewInstance@Nan@@YA?AV?$MaybeLocal@VObject@v8@@@v8@@V?$Local@VObjectTemplate@v8@@@3@@Z 00000001800012e0 f i Canvas.obj
 0001:00000360       ?Set@Nan@@YA?AV?$Maybe@_N@v8@@V?$Local@VObject@v8@@@3@V?$Local@VValue@v8@@@3@1@Z 0000000180001360 f i Canvas.obj
 0001:000003f0       ?Call@Nan@@YA?AV?$MaybeLocal@VValue@v8@@@v8@@V?$Local@VFunction@v8@@@3@V?$Local@VObject@v8@@@3@HQEAV?$Local@VValue@v8@@@3@@Z 00000001800013f0 f i Canvas.obj
 0001:000004a0       ?convert@?$ToFactory@VUint32@v8@@@imp@Nan@@SA?AV?$MaybeLocal@VUint32@v8@@@v8@@V?$Local@VValue@v8@@@5@@Z 00000001800014a0 f i Canvas.obj
 0001:00000520       ?New@?$Factory@VFunctionTemplate@v8@@@imp@Nan@@SA?AV?$Local@VFunctionTemplate@v8@@@v8@@P6AXAEBV?$FunctionCallbackInfo@VValue@v8@@@3@@ZV?$Local@VValue@v8@@@5@V?$Local@VSignature@v8@@@5@@Z 0000000180001520 f i Canvas.obj
 0001:00000690       ?AdjustExternalMemory@Nan@@YAHH@Z 0000000180001690 f i Canvas.obj
 0001:00000700       ??1EscapableHandleScope@Nan@@QEAA@XZ 0000000180001700 f i Canvas.obj
 0001:00000700       ??1HandleScope@Nan@@QEAA@XZ 0000000180001700 f i Canvas.obj
 0001:00000710       ?ThrowRangeError@Nan@@YAXPEBD@Z 0000000180001710 f i Canvas.obj
 0001:000007b0       ?ThrowTypeError@Nan@@YAXPEBD@Z 00000001800017b0 f i Canvas.obj
 0001:00000850       ?Call@Callback@Nan@@QEBA?AV?$Local@VValue@v8@@@v8@@HQEAV34@@Z 0000000180001850 f i Canvas.obj
 0001:00000900       ?Call_@Callback@Nan@@AEBA?AV?$Local@VValue@v8@@@v8@@PEAVIsolate@4@V?$Local@VObject@v8@@@4@HQEAV34@@Z 0000000180001900 f i Canvas.obj
 0001:000009c0       ??_GCallback@Nan@@QEAAPEAXI@Z 00000001800019c0 f i Canvas.obj
 0001:00000a00       ?SetPrototypeMethod@Nan@@YAXV?$Local@VFunctionTemplate@v8@@@v8@@PEBDP6AXAEBV?$FunctionCallbackInfo@VValue@v8@@@1@@Z@Z 0000000180001a00 f i Canvas.obj
 0001:00000b10       ?SetAccessor@Nan@@YAXV?$Local@VObjectTemplate@v8@@@v8@@V?$Local@VString@v8@@@3@P6AX1AEBV?$PropertyCallbackInfo@VValue@v8@@@1@@ZP6AX1V?$Local@VValue@v8@@@3@AEBV?$PropertyCallbackInfo@X@1@@Z4W4AccessControl@3@W4PropertyAttribute@3@V?$Local@VAccessorSignature@v8@@@3@@Z 0000000180001b10 f i Canvas.obj
 0001:00000c80       ??1ObjectWrap@Nan@@UEAA@XZ 0000000180001c80 f i Canvas.obj
 0001:00000d00       ?Wrap@ObjectWrap@Nan@@IEAAXV?$Local@VObject@v8@@@v8@@@Z 0000000180001d00 f i Canvas.obj
 0001:00000de0       ?Ref@ObjectWrap@Nan@@MEAAXXZ 0000000180001de0 f i Canvas.obj
 0001:00000e20       ?Unref@ObjectWrap@Nan@@MEAAXXZ 0000000180001e20 f i Canvas.obj
 0001:00000ed0       ?WeakCallback@ObjectWrap@Nan@@CAXAEBV?$WeakCallbackInfo@VObjectWrap@Nan@@@v8@@@Z 0000000180001ed0 f i Canvas.obj
 0001:00000f60       ??_EObjectWrap@Nan@@UEAAPEAXI@Z 0000000180001f60 f i * CIL library *:* CIL module *
 0001:00000f60       ??_GObjectWrap@Nan@@UEAAPEAXI@Z 0000000180001f60 f i Canvas.obj
 0001:00000fa0       ?closure_init@@YA?AW4_cairo_status@@PEAUclosure_t@@PEAVCanvas@@II@Z 0000000180001fa0 f   Canvas.obj
 0001:00001010       ?closure_destroy@@YAXPEAUclosure_t@@@Z 0000000180002010 f   Canvas.obj
 0001:00001080       __except_validate_jump_buffer 0000000180002080 f   libvcruntime:jbcxrval.obj
 0001:00001080       _guard_check_icall_nop     0000000180002080 f   LIBCMT:guard_support.obj
 0001:00001080       ?stream_pdf_free@@YAXPEADPEAX@Z 0000000180002080 f   Canvas.obj
 0001:00001080       __except_validate_context_record 0000000180002080 f   libvcruntime:jbcxrval.obj
 0001:00001520       ?Initialize@Canvas@@SAXV?$Local@VObject@v8@@@v8@@@Z 0000000180002520 f   Canvas.obj
 0001:00001ce0       ?New@Canvas@@SAXAEBV?$FunctionCallbackInfo@VValue@v8@@@Nan@@@Z 0000000180002ce0 f   Canvas.obj
 0001:00001f50       ?GetType@Canvas@@SAXV?$Local@VString@v8@@@v8@@AEBV?$PropertyCallbackInfo@VValue@v8@@@Nan@@@Z 0000000180002f50 f   Canvas.obj
 0001:00002060       ?GetStride@Canvas@@SAXV?$Local@VString@v8@@@v8@@AEBV?$PropertyCallbackInfo@VValue@v8@@@Nan@@@Z 0000000180003060 f   Canvas.obj
 0001:00002150       ?GetWidth@ImageData@@SAXV?$Local@VString@v8@@@v8@@AEBV?$PropertyCallbackInfo@VValue@v8@@@Nan@@@Z 0000000180003150 f   ImageData.obj
 0001:00002150       ?GetWidth@Canvas@@SAXV?$Local@VString@v8@@@v8@@AEBV?$PropertyCallbackInfo@VValue@v8@@@Nan@@@Z 0000000180003150 f   Canvas.obj
 0001:00002230       ?SetWidth@Canvas@@SAXV?$Local@VString@v8@@@v8@@V?$Local@VValue@v8@@@3@AEBV?$PropertyCallbackInfo@X@Nan@@@Z 0000000180003230 f   Canvas.obj
 0001:00002290       ?GetHeight@Canvas@@SAXV?$Local@VString@v8@@@v8@@AEBV?$PropertyCallbackInfo@VValue@v8@@@Nan@@@Z 0000000180003290 f   Canvas.obj
 0001:00002290       ?GetHeight@ImageData@@SAXV?$Local@VString@v8@@@v8@@AEBV?$PropertyCallbackInfo@VValue@v8@@@Nan@@@Z 0000000180003290 f   ImageData.obj
 0001:00002370       ?SetHeight@Canvas@@SAXV?$Local@VString@v8@@@v8@@V?$Local@VValue@v8@@@3@AEBV?$PropertyCallbackInfo@X@Nan@@@Z 0000000180003370 f   Canvas.obj
 0001:00002450       ?ToBufferAsync@Canvas@@SAXPEAUuv_work_s@@@Z 0000000180003450 f   Canvas.obj
 0001:000024c0       ?ToBufferAsyncAfter@Canvas@@SAXPEAUuv_work_s@@@Z 00000001800034c0 f   Canvas.obj
 0001:000026c0       ?ToBuffer@Canvas@@SAXAEBV?$FunctionCallbackInfo@VValue@v8@@@Nan@@@Z 00000001800036c0 f   Canvas.obj
 0001:00002ef0       ??1TryCatch@Nan@@QEAA@XZ   0000000180003ef0 f i Canvas.obj
 0001:00003070       ?StreamPNGSync@Canvas@@SAXAEBV?$FunctionCallbackInfo@VValue@v8@@@Nan@@@Z 0000000180004070 f   Canvas.obj
 0001:00003730       ?StreamPDFSync@Canvas@@SAXAEBV?$FunctionCallbackInfo@VValue@v8@@@Nan@@@Z 0000000180004730 f   Canvas.obj
 0001:00003950       ??0Canvas@@QEAA@HHW4canvas_type_t@@@Z 0000000180004950 f   Canvas.obj
 0001:00003b40       ??_ECanvas@@EEAAPEAXI@Z    0000000180004b40 f i * CIL library *:* CIL module *
 0001:00003b40       ??_GCanvas@@EEAAPEAXI@Z    0000000180004b40 f i Canvas.obj
 0001:00003b80       ??1Canvas@@EEAA@XZ         0000000180004b80 f   Canvas.obj
 0001:00003c60       ?resurface@Canvas@@QEAAXV?$Local@VObject@v8@@@v8@@@Z 0000000180004c60 f   Canvas.obj
 0001:00003e40       ??$Unwrap@VCanvas@@@ObjectWrap@Nan@@SAPEAVCanvas@@V?$Local@VObject@v8@@@v8@@@Z 0000000180004e40 f i Canvas.obj
 0001:00003e40       ??$Unwrap@VPattern@@@ObjectWrap@Nan@@SAPEAVPattern@@V?$Local@VObject@v8@@@v8@@@Z 0000000180004e40 f i CanvasRenderingContext2d.obj
 0001:00003e40       ??$Unwrap@VImageData@@@ObjectWrap@Nan@@SAPEAVImageData@@V?$Local@VObject@v8@@@v8@@@Z 0000000180004e40 f i CanvasRenderingContext2d.obj
 0001:00003e40       ??$Unwrap@VImage@@@ObjectWrap@Nan@@SAPEAVImage@@V?$Local@VObject@v8@@@v8@@@Z 0000000180004e40 f i CanvasPattern.obj
 0001:00003e40       ??$Unwrap@VContext2d@@@ObjectWrap@Nan@@SAPEAVContext2d@@V?$Local@VObject@v8@@@v8@@@Z 0000000180004e40 f i Canvas.obj
 0001:00003e40       ??$Unwrap@VGradient@@@ObjectWrap@Nan@@SAPEAVGradient@@V?$Local@VObject@v8@@@v8@@@Z 0000000180004e40 f i CanvasGradient.obj
 0001:00003ec0       ?Initialize@Gradient@@SAXV?$Local@VObject@v8@@@v8@@@Z 0000000180004ec0 f   CanvasGradient.obj
 0001:00004050       ?New@Gradient@@SAXAEBV?$FunctionCallbackInfo@VValue@v8@@@Nan@@@Z 0000000180005050 f   CanvasGradient.obj
 0001:00004350       ?AddColorStop@Gradient@@SAXAEBV?$FunctionCallbackInfo@VValue@v8@@@Nan@@@Z 0000000180005350 f   CanvasGradient.obj
 0001:00004550       ??_EPattern@@EEAAPEAXI@Z   0000000180005550 f i * CIL library *:* CIL module *
 0001:00004550       ??_EGradient@@EEAAPEAXI@Z  0000000180005550 f i * CIL library *:* CIL module *
 0001:00004550       ??_GPattern@@EEAAPEAXI@Z   0000000180005550 f i CanvasPattern.obj
 0001:00004550       ??_GGradient@@EEAAPEAXI@Z  0000000180005550 f i CanvasGradient.obj
 0001:000045a0       ?ThrowError@Nan@@YAXPEBD@Z 00000001800055a0 f i CanvasPattern.obj
 0001:00004640       ?Initialize@Pattern@@SAXV?$Local@VObject@v8@@@v8@@@Z 0000000180005640 f   CanvasPattern.obj
 0001:000047f0       ?New@Pattern@@SAXAEBV?$FunctionCallbackInfo@VValue@v8@@@Nan@@@Z 00000001800057f0 f   CanvasPattern.obj
 0001:000049a0       ?NewInstance@Nan@@YA?AV?$MaybeLocal@VObject@v8@@@v8@@V?$Local@VFunction@v8@@@3@HQEAV?$Local@VValue@v8@@@3@@Z 00000001800059a0 f i CanvasRenderingContext2d.obj
 0001:00004a50       ?GetFunction@Nan@@YA?AV?$MaybeLocal@VFunction@v8@@@v8@@V?$Local@VFunctionTemplate@v8@@@3@@Z 0000000180005a50 f i CanvasRenderingContext2d.obj
 0001:00004ad0       ?convert@?$ToFactory@VInt32@v8@@@imp@Nan@@SA?AV?$MaybeLocal@VInt32@v8@@@v8@@V?$Local@VValue@v8@@@5@@Z 0000000180005ad0 f i CanvasRenderingContext2d.obj
 0001:00004b50       ?Initialize@Context2d@@SAXV?$Local@VObject@v8@@@v8@@@Z 0000000180005b50 f   CanvasRenderingContext2d.obj
 0001:00005760       ??0Context2d@@QEAA@PEAVCanvas@@@Z 0000000180006760 f   CanvasRenderingContext2d.obj
 0001:000058a0       ??_EContext2d@@EEAAPEAXI@Z 00000001800068a0 f i * CIL library *:* CIL module *
 0001:000058a0       ??_GContext2d@@EEAAPEAXI@Z 00000001800068a0 f i CanvasRenderingContext2d.obj
 0001:00005920       ?saveState@Context2d@@QEAAXXZ 0000000180006920 f   CanvasRenderingContext2d.obj
 0001:000059f0       ?savePath@Context2d@@QEAAXXZ 00000001800069f0 f   CanvasRenderingContext2d.obj
 0001:00005a20       ?restorePath@Context2d@@QEAAXXZ 0000000180006a20 f   CanvasRenderingContext2d.obj
 0001:00005a60       ?setFillRule@Context2d@@QEAAXV?$Local@VValue@v8@@@v8@@@Z 0000000180006a60 f i CanvasRenderingContext2d.obj
 0001:00005b10       ?fill@Context2d@@QEAAX_N@Z 0000000180006b10 f   CanvasRenderingContext2d.obj
 0001:00005ca0       ?stroke@Context2d@@QEAAX_N@Z 0000000180006ca0 f   CanvasRenderingContext2d.obj
 0001:00005e30       ?shadow@Context2d@@QEAAXP6AXPEAU_cairo@@@Z@Z 0000000180006e30 f   CanvasRenderingContext2d.obj
 0001:000061f0       ?hasShadow@Context2d@@QEAA_NXZ 00000001800071f0 f i CanvasRenderingContext2d.obj
 0001:00006240       ?blur@Context2d@@QEAAXPEAU_cairo_surface@@H@Z 0000000180007240 f   CanvasRenderingContext2d.obj
 0001:00006810       ?New@Context2d@@SAXAEBV?$FunctionCallbackInfo@VValue@v8@@@Nan@@@Z 0000000180007810 f   CanvasRenderingContext2d.obj
 0001:00006950       ?AddPage@Context2d@@SAXAEBV?$FunctionCallbackInfo@VValue@v8@@@Nan@@@Z 0000000180007950 f   CanvasRenderingContext2d.obj
 0001:000069f0       ?PutImageData@Context2d@@SAXAEBV?$FunctionCallbackInfo@VValue@v8@@@Nan@@@Z 00000001800079f0 f   CanvasRenderingContext2d.obj
 0001:00007170       ?GetImageData@Context2d@@SAXAEBV?$FunctionCallbackInfo@VValue@v8@@@Nan@@@Z 0000000180008170 f   CanvasRenderingContext2d.obj
 0001:000078a0       ?DrawImage@Context2d@@SAXAEBV?$FunctionCallbackInfo@VValue@v8@@@Nan@@@Z 00000001800088a0 f   CanvasRenderingContext2d.obj
 0001:000080f0       ?GetGlobalAlpha@Context2d@@SAXV?$Local@VString@v8@@@v8@@AEBV?$PropertyCallbackInfo@VValue@v8@@@Nan@@@Z 00000001800090f0 f   CanvasRenderingContext2d.obj
 0001:000081d0       ?SetGlobalAlpha@Context2d@@SAXV?$Local@VString@v8@@@v8@@V?$Local@VValue@v8@@@3@AEBV?$PropertyCallbackInfo@X@Nan@@@Z 00000001800091d0 f   CanvasRenderingContext2d.obj
 0001:00008230       ?GetGlobalCompositeOperation@Context2d@@SAXV?$Local@VString@v8@@@v8@@AEBV?$PropertyCallbackInfo@VValue@v8@@@Nan@@@Z 0000000180009230 f   CanvasRenderingContext2d.obj
 0001:000084e0       ?SetPatternQuality@Context2d@@SAXV?$Local@VString@v8@@@v8@@V?$Local@VValue@v8@@@3@AEBV?$PropertyCallbackInfo@X@Nan@@@Z 00000001800094e0 f   CanvasRenderingContext2d.obj
 0001:000086c0       ?GetPatternQuality@Context2d@@SAXV?$Local@VString@v8@@@v8@@AEBV?$PropertyCallbackInfo@VValue@v8@@@Nan@@@Z 00000001800096c0 f   CanvasRenderingContext2d.obj
 0001:000087f0       ?SetGlobalCompositeOperation@Context2d@@SAXV?$Local@VString@v8@@@v8@@V?$Local@VValue@v8@@@3@AEBV?$PropertyCallbackInfo@X@Nan@@@Z 00000001800097f0 f   CanvasRenderingContext2d.obj
 0001:00008c80       ?GetShadowOffsetX@Context2d@@SAXV?$Local@VString@v8@@@v8@@AEBV?$PropertyCallbackInfo@VValue@v8@@@Nan@@@Z 0000000180009c80 f   CanvasRenderingContext2d.obj
 0001:00008d60       ?SetShadowOffsetX@Context2d@@SAXV?$Local@VString@v8@@@v8@@V?$Local@VValue@v8@@@3@AEBV?$PropertyCallbackInfo@X@Nan@@@Z 0000000180009d60 f   CanvasRenderingContext2d.obj
 0001:00008e00       ?GetShadowOffsetY@Context2d@@SAXV?$Local@VString@v8@@@v8@@AEBV?$PropertyCallbackInfo@VValue@v8@@@Nan@@@Z 0000000180009e00 f   CanvasRenderingContext2d.obj
 0001:00008ee0       ?SetShadowOffsetY@Context2d@@SAXV?$Local@VString@v8@@@v8@@V?$Local@VValue@v8@@@3@AEBV?$PropertyCallbackInfo@X@Nan@@@Z 0000000180009ee0 f   CanvasRenderingContext2d.obj
 0001:00008f80       ?GetShadowBlur@Context2d@@SAXV?$Local@VString@v8@@@v8@@AEBV?$PropertyCallbackInfo@VValue@v8@@@Nan@@@Z 0000000180009f80 f   CanvasRenderingContext2d.obj
 0001:00009070       ?SetShadowBlur@Context2d@@SAXV?$Local@VString@v8@@@v8@@V?$Local@VValue@v8@@@3@AEBV?$PropertyCallbackInfo@X@Nan@@@Z 000000018000a070 f   CanvasRenderingContext2d.obj
 0001:000090c0       ?GetAntiAlias@Context2d@@SAXV?$Local@VString@v8@@@v8@@AEBV?$PropertyCallbackInfo@VValue@v8@@@Nan@@@Z 000000018000a0c0 f   CanvasRenderingContext2d.obj
 0001:000091e0       ?SetAntiAlias@Context2d@@SAXV?$Local@VString@v8@@@v8@@V?$Local@VValue@v8@@@3@AEBV?$PropertyCallbackInfo@X@Nan@@@Z 000000018000a1e0 f   CanvasRenderingContext2d.obj
 0001:00009340       ?GetTextDrawingMode@Context2d@@SAXV?$Local@VString@v8@@@v8@@AEBV?$PropertyCallbackInfo@VValue@v8@@@Nan@@@Z 000000018000a340 f   CanvasRenderingContext2d.obj
 0001:00009450       ?SetTextDrawingMode@Context2d@@SAXV?$Local@VString@v8@@@v8@@V?$Local@VValue@v8@@@3@AEBV?$PropertyCallbackInfo@X@Nan@@@Z 000000018000a450 f   CanvasRenderingContext2d.obj
 0001:00009570       ?GetFilter@Context2d@@SAXV?$Local@VString@v8@@@v8@@AEBV?$PropertyCallbackInfo@VValue@v8@@@Nan@@@Z 000000018000a570 f   CanvasRenderingContext2d.obj
 0001:000096a0       ?SetFilter@Context2d@@SAXV?$Local@VString@v8@@@v8@@V?$Local@VValue@v8@@@3@AEBV?$PropertyCallbackInfo@X@Nan@@@Z 000000018000a6a0 f   CanvasRenderingContext2d.obj
 0001:00009800       ?GetMiterLimit@Context2d@@SAXV?$Local@VString@v8@@@v8@@AEBV?$PropertyCallbackInfo@VValue@v8@@@Nan@@@Z 000000018000a800 f   CanvasRenderingContext2d.obj
 0001:000098e0       ?SetMiterLimit@Context2d@@SAXV?$Local@VString@v8@@@v8@@V?$Local@VValue@v8@@@3@AEBV?$PropertyCallbackInfo@X@Nan@@@Z 000000018000a8e0 f   CanvasRenderingContext2d.obj
 0001:00009930       ?GetLineWidth@Context2d@@SAXV?$Local@VString@v8@@@v8@@AEBV?$PropertyCallbackInfo@VValue@v8@@@Nan@@@Z 000000018000a930 f   CanvasRenderingContext2d.obj
 0001:00009a10       ?SetLineWidth@Context2d@@SAXV?$Local@VString@v8@@@v8@@V?$Local@VValue@v8@@@3@AEBV?$PropertyCallbackInfo@X@Nan@@@Z 000000018000aa10 f   CanvasRenderingContext2d.obj
 0001:00009a70       ?GetLineJoin@Context2d@@SAXV?$Local@VString@v8@@@v8@@AEBV?$PropertyCallbackInfo@VValue@v8@@@Nan@@@Z 000000018000aa70 f   CanvasRenderingContext2d.obj
 0001:00009b80       ?SetLineJoin@Context2d@@SAXV?$Local@VString@v8@@@v8@@V?$Local@VValue@v8@@@3@AEBV?$PropertyCallbackInfo@X@Nan@@@Z 000000018000ab80 f   CanvasRenderingContext2d.obj
 0001:00009c90       ?GetLineCap@Context2d@@SAXV?$Local@VString@v8@@@v8@@AEBV?$PropertyCallbackInfo@VValue@v8@@@Nan@@@Z 000000018000ac90 f   CanvasRenderingContext2d.obj
 0001:00009da0       ?SetLineCap@Context2d@@SAXV?$Local@VString@v8@@@v8@@V?$Local@VValue@v8@@@3@AEBV?$PropertyCallbackInfo@X@Nan@@@Z 000000018000ada0 f   CanvasRenderingContext2d.obj
 0001:00009eb0       ?IsPointInPath@Context2d@@SAXAEBV?$FunctionCallbackInfo@VValue@v8@@@Nan@@@Z 000000018000aeb0 f   CanvasRenderingContext2d.obj
 0001:0000a060       ?SetFillPattern@Context2d@@SAXAEBV?$FunctionCallbackInfo@VValue@v8@@@Nan@@@Z 000000018000b060 f   CanvasRenderingContext2d.obj
 0001:0000a1e0       ?SetStrokePattern@Context2d@@SAXAEBV?$FunctionCallbackInfo@VValue@v8@@@Nan@@@Z 000000018000b1e0 f   CanvasRenderingContext2d.obj
 0001:0000a360       ?SetShadowColor@Context2d@@SAXV?$Local@VString@v8@@@v8@@V?$Local@VValue@v8@@@3@AEBV?$PropertyCallbackInfo@X@Nan@@@Z 000000018000b360 f   CanvasRenderingContext2d.obj
 0001:0000a460       ?GetShadowColor@Context2d@@SAXV?$Local@VString@v8@@@v8@@AEBV?$PropertyCallbackInfo@VValue@v8@@@Nan@@@Z 000000018000b460 f   CanvasRenderingContext2d.obj
 0001:0000a640       ?SetFillColor@Context2d@@SAXAEBV?$FunctionCallbackInfo@VValue@v8@@@Nan@@@Z 000000018000b640 f   CanvasRenderingContext2d.obj
 0001:0000a790       ?GetFillColor@Context2d@@SAXV?$Local@VString@v8@@@v8@@AEBV?$PropertyCallbackInfo@VValue@v8@@@Nan@@@Z 000000018000b790 f   CanvasRenderingContext2d.obj
 0001:0000a970       ?SetStrokeColor@Context2d@@SAXAEBV?$FunctionCallbackInfo@VValue@v8@@@Nan@@@Z 000000018000b970 f   CanvasRenderingContext2d.obj
 0001:0000aac0       ?GetStrokeColor@Context2d@@SAXV?$Local@VString@v8@@@v8@@AEBV?$PropertyCallbackInfo@VValue@v8@@@Nan@@@Z 000000018000bac0 f   CanvasRenderingContext2d.obj
 0001:0000aca0       ?BezierCurveTo@Context2d@@SAXAEBV?$FunctionCallbackInfo@VValue@v8@@@Nan@@@Z 000000018000bca0 f   CanvasRenderingContext2d.obj
 0001:0000af80       ?QuadraticCurveTo@Context2d@@SAXAEBV?$FunctionCallbackInfo@VValue@v8@@@Nan@@@Z 000000018000bf80 f   CanvasRenderingContext2d.obj
 0001:0000b200       ?Save@Context2d@@SAXAEBV?$FunctionCallbackInfo@VValue@v8@@@Nan@@@Z 000000018000c200 f   CanvasRenderingContext2d.obj
 0001:0000b290       ?Restore@Context2d@@SAXAEBV?$FunctionCallbackInfo@VValue@v8@@@Nan@@@Z 000000018000c290 f   CanvasRenderingContext2d.obj
 0001:0000b360       ?BeginPath@Context2d@@SAXAEBV?$FunctionCallbackInfo@VValue@v8@@@Nan@@@Z 000000018000c360 f   CanvasRenderingContext2d.obj
 0001:0000b400       ?ClosePath@Context2d@@SAXAEBV?$FunctionCallbackInfo@VValue@v8@@@Nan@@@Z 000000018000c400 f   CanvasRenderingContext2d.obj
 0001:0000b4a0       ?Rotate@Context2d@@SAXAEBV?$FunctionCallbackInfo@VValue@v8@@@Nan@@@Z 000000018000c4a0 f   CanvasRenderingContext2d.obj
 0001:0000b590       ?Transform@Context2d@@SAXAEBV?$FunctionCallbackInfo@VValue@v8@@@Nan@@@Z 000000018000c590 f   CanvasRenderingContext2d.obj
 0001:0000b8d0       ?ResetTransform@Context2d@@SAXAEBV?$FunctionCallbackInfo@VValue@v8@@@Nan@@@Z 000000018000c8d0 f   CanvasRenderingContext2d.obj
 0001:0000b970       ?Translate@Context2d@@SAXAEBV?$FunctionCallbackInfo@VValue@v8@@@Nan@@@Z 000000018000c970 f   CanvasRenderingContext2d.obj
 0001:0000bad0       ?Scale@Context2d@@SAXAEBV?$FunctionCallbackInfo@VValue@v8@@@Nan@@@Z 000000018000cad0 f   CanvasRenderingContext2d.obj
 0001:0000bc30       ?Clip@Context2d@@SAXAEBV?$FunctionCallbackInfo@VValue@v8@@@Nan@@@Z 000000018000cc30 f   CanvasRenderingContext2d.obj
 0001:0000bcf0       ?Fill@Context2d@@SAXAEBV?$FunctionCallbackInfo@VValue@v8@@@Nan@@@Z 000000018000ccf0 f   CanvasRenderingContext2d.obj
 0001:0000bda0       ?Stroke@Context2d@@SAXAEBV?$FunctionCallbackInfo@VValue@v8@@@Nan@@@Z 000000018000cda0 f   CanvasRenderingContext2d.obj
 0001:0000be30       ?FillText@Context2d@@SAXAEBV?$FunctionCallbackInfo@VValue@v8@@@Nan@@@Z 000000018000ce30 f   CanvasRenderingContext2d.obj
 0001:0000c000       ?StrokeText@Context2d@@SAXAEBV?$FunctionCallbackInfo@VValue@v8@@@Nan@@@Z 000000018000d000 f   CanvasRenderingContext2d.obj
 0001:0000c1d0       ?setTextPath@Context2d@@QEAAXPEBDNN@Z 000000018000d1d0 f   CanvasRenderingContext2d.obj
 0001:0000c350       ?LineTo@Context2d@@SAXAEBV?$FunctionCallbackInfo@VValue@v8@@@Nan@@@Z 000000018000d350 f   CanvasRenderingContext2d.obj
 0001:0000c450       ?MoveTo@Context2d@@SAXAEBV?$FunctionCallbackInfo@VValue@v8@@@Nan@@@Z 000000018000d450 f   CanvasRenderingContext2d.obj
 0001:0000c550       ?SetFont@Context2d@@SAXAEBV?$FunctionCallbackInfo@VValue@v8@@@Nan@@@Z 000000018000d550 f   CanvasRenderingContext2d.obj
 0001:0000c890       ?MeasureText@Context2d@@SAXAEBV?$FunctionCallbackInfo@VValue@v8@@@Nan@@@Z 000000018000d890 f   CanvasRenderingContext2d.obj
 0001:0000cdc0       ?SetTextBaseline@Context2d@@SAXAEBV?$FunctionCallbackInfo@VValue@v8@@@Nan@@@Z 000000018000ddc0 f   CanvasRenderingContext2d.obj
 0001:0000ce40       ?SetTextAlignment@Context2d@@SAXAEBV?$FunctionCallbackInfo@VValue@v8@@@Nan@@@Z 000000018000de40 f   CanvasRenderingContext2d.obj
 0001:0000cec0       ?SetLineDash@Context2d@@SAXAEBV?$FunctionCallbackInfo@VValue@v8@@@Nan@@@Z 000000018000dec0 f   CanvasRenderingContext2d.obj
 0001:0000d190       ?GetLineDash@Context2d@@SAXAEBV?$FunctionCallbackInfo@VValue@v8@@@Nan@@@Z 000000018000e190 f   CanvasRenderingContext2d.obj
 0001:0000d430       ?SetLineDashOffset@Context2d@@SAXV?$Local@VString@v8@@@v8@@V?$Local@VValue@v8@@@3@AEBV?$PropertyCallbackInfo@X@Nan@@@Z 000000018000e430 f   CanvasRenderingContext2d.obj
 0001:0000d5d0       ?GetLineDashOffset@Context2d@@SAXV?$Local@VString@v8@@@v8@@AEBV?$PropertyCallbackInfo@VValue@v8@@@Nan@@@Z 000000018000e5d0 f   CanvasRenderingContext2d.obj
 0001:0000d6c0       ?FillRect@Context2d@@SAXAEBV?$FunctionCallbackInfo@VValue@v8@@@Nan@@@Z 000000018000e6c0 f   CanvasRenderingContext2d.obj
 0001:0000d8c0       ?StrokeRect@Context2d@@SAXAEBV?$FunctionCallbackInfo@VValue@v8@@@Nan@@@Z 000000018000e8c0 f   CanvasRenderingContext2d.obj
 0001:0000dac0       ?ClearRect@Context2d@@SAXAEBV?$FunctionCallbackInfo@VValue@v8@@@Nan@@@Z 000000018000eac0 f   CanvasRenderingContext2d.obj
 0001:0000dce0       ?Rect@Context2d@@SAXAEBV?$FunctionCallbackInfo@VValue@v8@@@Nan@@@Z 000000018000ece0 f   CanvasRenderingContext2d.obj
 0001:0000df00       ?Arc@Context2d@@SAXAEBV?$FunctionCallbackInfo@VValue@v8@@@Nan@@@Z 000000018000ef00 f   CanvasRenderingContext2d.obj
 0001:0000e2b0       ?ArcTo@Context2d@@SAXAEBV?$FunctionCallbackInfo@VValue@v8@@@Nan@@@Z 000000018000f2b0 f   CanvasRenderingContext2d.obj
 0001:0000e960       ??1?$vector@NV?$allocator@N@std@@@std@@QEAA@XZ 000000018000f960 f i CanvasRenderingContext2d.obj
 0001:0000e970       ??0?$TypedArrayContents@E@Nan@@QEAA@V?$Local@VValue@v8@@@v8@@@Z 000000018000f970 f i CanvasRenderingContext2d.obj
 0001:0000ea30       ?_Tidy@?$vector@NV?$allocator@N@std@@@std@@IEAAXXZ 000000018000fa30 f i CanvasRenderingContext2d.obj
 0001:0000ead0       __local_stdio_printf_options 000000018000fad0 f i color.obj
 0001:0000eae0       snprintf                   000000018000fae0 f i color.obj
 0001:0000f8b0       ?rgba_from_string@@YAHPEBDPEAF@Z 00000001800108b0 f   color.obj
 0001:0000fb80       ?Initialize@Image@@SAXV?$Local@VObject@v8@@@v8@@@Z 0000000180010b80 f   Image.obj
 0001:00010200       ?New@Image@@SAXAEBV?$FunctionCallbackInfo@VValue@v8@@@Nan@@@Z 0000000180011200 f   Image.obj
 0001:000102b0       ?GetComplete@Image@@SAXV?$Local@VString@v8@@@v8@@AEBV?$PropertyCallbackInfo@VValue@v8@@@Nan@@@Z 00000001800112b0 f   Image.obj
 0001:00010370       ?GetDataMode@Image@@SAXV?$Local@VString@v8@@@v8@@AEBV?$PropertyCallbackInfo@VValue@v8@@@Nan@@@Z 0000000180011370 f   Image.obj
 0001:00010450       ?SetDataMode@Image@@SAXV?$Local@VString@v8@@@v8@@V?$Local@VValue@v8@@@3@AEBV?$PropertyCallbackInfo@X@Nan@@@Z 0000000180011450 f   Image.obj
 0001:00010490       ?GetWidth@Image@@SAXV?$Local@VString@v8@@@v8@@AEBV?$PropertyCallbackInfo@VValue@v8@@@Nan@@@Z 0000000180011490 f   Image.obj
 0001:00010570       ?GetHeight@Image@@SAXV?$Local@VString@v8@@@v8@@AEBV?$PropertyCallbackInfo@VValue@v8@@@Nan@@@Z 0000000180011570 f   Image.obj
 0001:00010650       ?GetSource@Image@@SAXV?$Local@VString@v8@@@v8@@AEBV?$PropertyCallbackInfo@VValue@v8@@@Nan@@@Z 0000000180011650 f   Image.obj
 0001:00010740       ?clearData@Image@@QEAAXXZ  0000000180011740 f   Image.obj
 0001:000107f0       ?SetSource@Image@@SAXV?$Local@VString@v8@@@v8@@V?$Local@VValue@v8@@@3@AEBV?$PropertyCallbackInfo@X@Nan@@@Z 00000001800117f0 f   Image.obj
 0001:00010a20       ?loadFromBuffer@Image@@QEAA?AW4_cairo_status@@PEAEI@Z 0000000180011a20 f   Image.obj
 0001:00010ab0       ?readPNG@Image@@SA?AW4_cairo_status@@PEAXPEAEI@Z 0000000180011ab0 f   Image.obj
 0001:00010af0       ?GetOnload@Image@@SAXV?$Local@VString@v8@@@v8@@AEBV?$PropertyCallbackInfo@VValue@v8@@@Nan@@@Z 0000000180011af0 f   Image.obj
 0001:00010be0       ?SetOnload@Image@@SAXV?$Local@VString@v8@@@v8@@V?$Local@VValue@v8@@@3@AEBV?$PropertyCallbackInfo@X@Nan@@@Z 0000000180011be0 f   Image.obj
 0001:00010cc0       ?GetOnerror@Image@@SAXV?$Local@VString@v8@@@v8@@AEBV?$PropertyCallbackInfo@VValue@v8@@@Nan@@@Z 0000000180011cc0 f   Image.obj
 0001:00010db0       ?SetOnerror@Image@@SAXV?$Local@VString@v8@@@v8@@V?$Local@VValue@v8@@@3@AEBV?$PropertyCallbackInfo@X@Nan@@@Z 0000000180011db0 f   Image.obj
 0001:00010e90       ??_GImage@@EEAAPEAXI@Z     0000000180011e90 f i Image.obj
 0001:00010e90       ??_EImage@@EEAAPEAXI@Z     0000000180011e90 f i * CIL library *:* CIL module *
 0001:00010ed0       ??1Image@@EEAA@XZ          0000000180011ed0 f   Image.obj
 0001:00010f70       ?loaded@Image@@QEAAXXZ     0000000180011f70 f   Image.obj
 0001:00011050       ?loadSurface@Image@@QEAA?AW4_cairo_status@@XZ 0000000180012050 f   Image.obj
 0001:00011110       ??_EImageData@@UEAAPEAXI@Z 0000000180012110 f i * CIL library *:* CIL module *
 0001:00011110       ??_GImageData@@UEAAPEAXI@Z 0000000180012110 f i ImageData.obj
 0001:00011150       ?Initialize@ImageData@@SAXV?$Local@VObject@v8@@@v8@@@Z 0000000180012150 f   ImageData.obj
 0001:000114a0       ?New@ImageData@@SAXAEBV?$FunctionCallbackInfo@VValue@v8@@@Nan@@@Z 00000001800124a0 f   ImageData.obj
 0001:00011820       ?init@@YAXV?$Local@VObject@v8@@@v8@@@Z 0000000180012820 f   init.obj
 0001:0001194c       __imp_load_uv_queue_work   000000018001294c f   node:node.exe
 0001:00011958       __tailMerge_node_exe       0000000180012958 f i node:node.exe
 0001:000119d1       __imp_load_?Global@Context@v8@@QEAA?AV?$Local@VObject@v8@@@2@XZ 00000001800129d1 f   node:node.exe
 0001:000119dd       __imp_load_?Value@External@v8@@QEBAPEAXXZ 00000001800129dd f   node:node.exe
 0001:000119e9       __imp_load_?New@External@v8@@SA?AV?$Local@VExternal@v8@@@2@PEAVIsolate@2@PEAX@Z 00000001800129e9 f   node:node.exe
 0001:000119f5       __imp_load_?NewFromUnsigned@Integer@v8@@SA?AV?$Local@VInteger@v8@@@2@PEAVIsolate@2@I@Z 00000001800129f5 f   node:node.exe
 0001:00011a01       __imp_load_?New@Signature@v8@@SA?AV?$Local@VSignature@v8@@@2@PEAVIsolate@2@V?$Local@VFunctionTemplate@v8@@@2@@Z 0000000180012a01 f   node:node.exe
 0001:00011a0d       __imp_load_?ReportExternalAllocationLimitReached@Isolate@v8@@AEAAXXZ 0000000180012a0d f   node:node.exe
 0001:00011a19       __imp_load_?ThrowException@Isolate@v8@@QEAA?AV?$Local@VValue@v8@@@2@V32@@Z 0000000180012a19 f   node:node.exe
 0001:00011a25       __imp_load_?GetCurrentContext@Isolate@v8@@QEAA?AV?$Local@VContext@v8@@@2@XZ 0000000180012a25 f   node:node.exe
 0001:00011a31       __imp_load_?GetCurrent@Isolate@v8@@SAPEAV12@XZ 0000000180012a31 f   node:node.exe
 0001:00011a3d       __imp_load_?CreateHandle@HandleScope@v8@@KAPEAPEAVObject@internal@2@PEAVIsolate@42@PEAV342@@Z 0000000180012a3d f   node:node.exe
 0001:00011a49       __imp_load_?CreateHandle@HandleScope@v8@@CAPEAPEAVObject@internal@2@PEAVHeapObject@42@PEAV342@@Z 0000000180012a49 f   node:node.exe
 0001:00011a55       __imp_load_??1HandleScope@v8@@QEAA@XZ 0000000180012a55 f   node:node.exe
 0001:00011a61       __imp_load_??0HandleScope@v8@@QEAA@PEAVIsolate@1@@Z 0000000180012a61 f   node:node.exe
 0001:00011a6d       __imp_load_?Set@Template@v8@@QEAAXV?$Local@VName@v8@@@2@V?$Local@VData@v8@@@2@W4PropertyAttribute@2@@Z 0000000180012a6d f   node:node.exe
 0001:00011a79       __imp_load_?Error@Exception@v8@@SA?AV?$Local@VValue@v8@@@2@V?$Local@VString@v8@@@2@@Z 0000000180012a79 f   node:node.exe
 0001:00011a85       __imp_load_?TypeError@Exception@v8@@SA?AV?$Local@VValue@v8@@@2@V?$Local@VString@v8@@@2@@Z 0000000180012a85 f   node:node.exe
 0001:00011a91       __imp_load_?RangeError@Exception@v8@@SA?AV?$Local@VValue@v8@@@2@V?$Local@VString@v8@@@2@@Z 0000000180012a91 f   node:node.exe
 0001:00011a9d       __imp_load_?SetClassName@FunctionTemplate@v8@@QEAAXV?$Local@VString@v8@@@2@@Z 0000000180012a9d f   node:node.exe
 0001:00011aa9       __imp_load_?PrototypeTemplate@FunctionTemplate@v8@@QEAA?AV?$Local@VObjectTemplate@v8@@@2@XZ 0000000180012aa9 f   node:node.exe
 0001:00011ab5       __imp_load_?InstanceTemplate@FunctionTemplate@v8@@QEAA?AV?$Local@VObjectTemplate@v8@@@2@XZ 0000000180012ab5 f   node:node.exe
 0001:00011ac1       __imp_load_?GetFunction@FunctionTemplate@v8@@QEAA?AV?$Local@VFunction@v8@@@2@XZ 0000000180012ac1 f   node:node.exe
 0001:00011acd       __imp_load_?New@FunctionTemplate@v8@@SA?AV?$Local@VFunctionTemplate@v8@@@2@PEAVIsolate@2@P6AXAEBV?$FunctionCallbackInfo@VValue@v8@@@2@@ZV?$Local@VValue@v8@@@2@V?$Local@VSignature@v8@@@2@H@Z 0000000180012acd f   node:node.exe
 0001:00011ad9       __imp_load_?ToLocalEmpty@V8@v8@@CAXXZ 0000000180012ad9 f   node:node.exe
 0001:00011ae5       __imp_load_?ClearWeak@V8@v8@@CAPEAXPEAPEAVObject@internal@2@@Z 0000000180012ae5 f   node:node.exe
 0001:00011af1       __imp_load_?MakeWeak@V8@v8@@CAXPEAPEAVObject@internal@2@PEAXP6AXAEBV?$WeakCallbackInfo@X@2@@ZW4WeakCallbackType@2@@Z 0000000180012af1 f   node:node.exe
 0001:00011afd       __imp_load_?DisposeGlobal@V8@v8@@CAXPEAPEAVObject@internal@2@@Z 0000000180012afd f   node:node.exe
 0001:00011b09       __imp_load_?GlobalizeReference@V8@v8@@CAPEAPEAVObject@internal@2@PEAVIsolate@42@PEAPEAV342@@Z 0000000180012b09 f   node:node.exe
 0001:00011b15       __imp_load_?StrictEquals@Value@v8@@QEBA_NV?$Local@VValue@v8@@@2@@Z 0000000180012b15 f   node:node.exe
 0001:00011b21       __imp_load_?Uint32Value@Value@v8@@QEBAIXZ 0000000180012b21 f   node:node.exe
 0001:00011b2d       __imp_load_?ToUint32@Value@v8@@QEBA?AV?$MaybeLocal@VUint32@v8@@@2@V?$Local@VContext@v8@@@2@@Z 0000000180012b2d f   node:node.exe
 0001:00011b39       __imp_load_?IsUint32@Value@v8@@QEBA_NXZ 0000000180012b39 f   node:node.exe
 0001:00011b45       __imp_load_?IsNumber@Value@v8@@QEBA_NXZ 0000000180012b45 f   node:node.exe
 0001:00011b51       __imp_load_?IsFunction@Value@v8@@QEBA_NXZ 0000000180012b51 f   node:node.exe
 0001:00011b5d       __imp_load_?ReThrow@TryCatch@v8@@QEAA?AV?$Local@VValue@v8@@@2@XZ 0000000180012b5d f   node:node.exe
 0001:00011b69       __imp_load_?HasCaught@TryCatch@v8@@QEBA_NXZ 0000000180012b69 f   node:node.exe
 0001:00011b75       __imp_load_??1TryCatch@v8@@QEAA@XZ 0000000180012b75 f   node:node.exe
 0001:00011b81       __imp_load_??0TryCatch@v8@@QEAA@PEAVIsolate@1@@Z 0000000180012b81 f   node:node.exe
 0001:00011b8d       __imp_load_?Escape@EscapableHandleScope@v8@@AEAAPEAPEAVObject@internal@2@PEAPEAV342@@Z 0000000180012b8d f   node:node.exe
 0001:00011b99       __imp_load_??0EscapableHandleScope@v8@@QEAA@PEAVIsolate@1@@Z 0000000180012b99 f   node:node.exe
 0001:00011ba5       __imp_load_??1Utf8Value@String@v8@@QEAA@XZ 0000000180012ba5 f   node:node.exe
 0001:00011bb1       __imp_load_??0Utf8Value@String@v8@@QEAA@V?$Local@VValue@v8@@@2@@Z 0000000180012bb1 f   node:node.exe
 0001:00011bbd       __imp_load_?NewFromUtf8@String@v8@@SA?AV?$MaybeLocal@VString@v8@@@2@PEAVIsolate@2@PEBDW4NewStringType@2@H@Z 0000000180012bbd f   node:node.exe
 0001:00011bc9       __imp_load_?New@Number@v8@@SA?AV?$Local@VNumber@v8@@@2@PEAVIsolate@2@N@Z 0000000180012bc9 f   node:node.exe
 0001:00011bd5       __imp_load_?SlowGetAlignedPointerFromInternalField@Object@v8@@AEAAPEAXH@Z 0000000180012bd5 f   node:node.exe
 0001:00011be1       __imp_load_?SlowGetInternalField@Object@v8@@AEAA?AV?$Local@VValue@v8@@@2@H@Z 0000000180012be1 f   node:node.exe
 0001:00011bed       __imp_load_?SetAlignedPointerInInternalField@Object@v8@@QEAAXHPEAX@Z 0000000180012bed f   node:node.exe
 0001:00011bf9       __imp_load_?SetInternalField@Object@v8@@QEAAXHV?$Local@VValue@v8@@@2@@Z 0000000180012bf9 f   node:node.exe
 0001:00011c05       __imp_load_?InternalFieldCount@Object@v8@@QEAAHXZ 0000000180012c05 f   node:node.exe
 0001:00011c11       __imp_load_?Get@Object@v8@@QEAA?AV?$Local@VValue@v8@@@2@V32@@Z 0000000180012c11 f   node:node.exe
 0001:00011c1d       __imp_load_?Set@Object@v8@@QEAA?AV?$Maybe@_N@2@V?$Local@VContext@v8@@@2@V?$Local@VValue@v8@@@2@1@Z 0000000180012c1d f   node:node.exe
 0001:00011c29       __imp_load_?Call@Function@v8@@QEAA?AV?$MaybeLocal@VValue@v8@@@2@V?$Local@VContext@v8@@@2@V?$Local@VValue@v8@@@2@HQEAV52@@Z 0000000180012c29 f   node:node.exe
 0001:00011c35       __imp_load_?SetInternalFieldCount@ObjectTemplate@v8@@QEAAXH@Z 0000000180012c35 f   node:node.exe
 0001:00011c41       __imp_load_?SetAccessor@ObjectTemplate@v8@@QEAAXV?$Local@VName@v8@@@2@P6AX0AEBV?$PropertyCallbackInfo@VValue@v8@@@2@@ZP6AX0V?$Local@VValue@v8@@@2@AEBV?$PropertyCallbackInfo@X@2@@Z3W4AccessControl@2@W4PropertyAttribute@2@V?$Local@VAccessorSignature@v8@@@2@@Z 0000000180012c41 f   node:node.exe
 0001:00011c4d       __imp_load_?NewInstance@ObjectTemplate@v8@@QEAA?AV?$MaybeLocal@VObject@v8@@@2@V?$Local@VContext@v8@@@2@@Z 0000000180012c4d f   node:node.exe
 0001:00011c59       __imp_load_?New@ObjectTemplate@v8@@SA?AV?$Local@VObjectTemplate@v8@@@2@PEAVIsolate@2@V?$Local@VFunctionTemplate@v8@@@2@@Z 0000000180012c59 f   node:node.exe
 0001:00011c65       __imp_load_?New@Buffer@node@@YA?AV?$MaybeLocal@VObject@v8@@@v8@@PEAVIsolate@4@PEAD_KP6AX1PEAX@Z3@Z 0000000180012c65 f   node:node.exe
 0001:00011c71       __imp_load_?Data@Buffer@node@@YAPEADV?$Local@VObject@v8@@@v8@@@Z 0000000180012c71 f   node:node.exe
 0001:00011c7d       __imp_load_?Copy@Buffer@node@@YA?AV?$MaybeLocal@VObject@v8@@@v8@@PEAVIsolate@4@PEBD_K@Z 0000000180012c7d f   node:node.exe
 0001:00011c89       __imp_load_?MakeCallback@node@@YA?AV?$Local@VValue@v8@@@v8@@PEAVIsolate@3@V?$Local@VObject@v8@@@3@V?$Local@VFunction@v8@@@3@HPEAV23@@Z 0000000180012c89 f   node:node.exe
 0001:00011c95       __imp_load_uv_default_loop 0000000180012c95 f   node:node.exe
 0001:00011ca1       __imp_load_?ToObject@Value@v8@@QEBA?AV?$Local@VObject@v8@@@2@XZ 0000000180012ca1 f   node:node.exe
 0001:00011cad       __imp_load_??1EscapableHandleScope@v8@@QEAA@XZ 0000000180012cad f   node:node.exe
 0001:00011cb9       __imp_load_?NumberValue@Value@v8@@QEBANXZ 0000000180012cb9 f   node:node.exe
 0001:00011cc5       __imp_load_?HasInstance@FunctionTemplate@v8@@QEAA_NV?$Local@VValue@v8@@@2@@Z 0000000180012cc5 f   node:node.exe
 0001:00011cd1       __imp_load_?New@Uint8ClampedArray@v8@@SA?AV?$Local@VUint8ClampedArray@v8@@@2@V?$Local@VArrayBuffer@v8@@@2@_K1@Z 0000000180012cd1 f   node:node.exe
 0001:00011cdd       __imp_load_?New@Integer@v8@@SA?AV?$Local@VInteger@v8@@@2@PEAVIsolate@2@H@Z 0000000180012cdd f   node:node.exe
 0001:00011ce9       __imp_load_?ByteLength@ArrayBufferView@v8@@QEAA_KXZ 0000000180012ce9 f   node:node.exe
 0001:00011cf5       __imp_load_?ByteOffset@ArrayBufferView@v8@@QEAA_KXZ 0000000180012cf5 f   node:node.exe
 0001:00011d01       __imp_load_?Buffer@ArrayBufferView@v8@@QEAA?AV?$Local@VArrayBuffer@v8@@@2@XZ 0000000180012d01 f   node:node.exe
 0001:00011d0d       __imp_load_?New@Array@v8@@SA?AV?$Local@VArray@v8@@@2@PEAVIsolate@2@H@Z 0000000180012d0d f   node:node.exe
 0001:00011d19       __imp_load_?Length@Array@v8@@QEBAIXZ 0000000180012d19 f   node:node.exe
 0001:00011d25       __imp_load_?GetFunction@FunctionTemplate@v8@@QEAA?AV?$MaybeLocal@VFunction@v8@@@2@V?$Local@VContext@v8@@@2@@Z 0000000180012d25 f   node:node.exe
 0001:00011d31       __imp_load_?GetContents@ArrayBuffer@v8@@QEAA?AVContents@12@XZ 0000000180012d31 f   node:node.exe
 0001:00011d3d       __imp_load_?New@ArrayBuffer@v8@@SA?AV?$Local@VArrayBuffer@v8@@@2@PEAVIsolate@2@_K@Z 0000000180012d3d f   node:node.exe
 0001:00011d49       __imp_load_?Int32Value@Value@v8@@QEBAHXZ 0000000180012d49 f   node:node.exe
 0001:00011d55       __imp_load_?BooleanValue@Value@v8@@QEBA_NXZ 0000000180012d55 f   node:node.exe
 0001:00011d61       __imp_load_?ToInt32@Value@v8@@QEBA?AV?$MaybeLocal@VInt32@v8@@@2@V?$Local@VContext@v8@@@2@@Z 0000000180012d61 f   node:node.exe
 0001:00011d6d       __imp_load_?IsArrayBufferView@Value@v8@@QEBA_NXZ 0000000180012d6d f   node:node.exe
 0001:00011d79       __imp_load_?IsInt32@Value@v8@@QEBA_NXZ 0000000180012d79 f   node:node.exe
 0001:00011d85       __imp_load_?IsObject@Value@v8@@QEBA_NXZ 0000000180012d85 f   node:node.exe
 0001:00011d91       __imp_load_?IsArray@Value@v8@@QEBA_NXZ 0000000180012d91 f   node:node.exe
 0001:00011d9d       __imp_load_?New@Object@v8@@SA?AV?$Local@VObject@v8@@@2@PEAVIsolate@2@@Z 0000000180012d9d f   node:node.exe
 0001:00011da9       __imp_load_?Get@Object@v8@@QEAA?AV?$Local@VValue@v8@@@2@I@Z 0000000180012da9 f   node:node.exe
 0001:00011db5       __imp_load_?Set@Object@v8@@QEAA_NV?$Local@VValue@v8@@@2@0@Z 0000000180012db5 f   node:node.exe
 0001:00011dc1       __imp_load_?NewInstance@Function@v8@@QEBA?AV?$MaybeLocal@VObject@v8@@@2@V?$Local@VContext@v8@@@2@HQEAV?$Local@VValue@v8@@@2@@Z 0000000180012dc1 f   node:node.exe
 0001:00011dcd       __imp_load_?ToString@Value@v8@@QEBA?AV?$Local@VString@v8@@@2@XZ 0000000180012dcd f   node:node.exe
 0001:00011dd9       __imp_load_?HasInstance@Buffer@node@@YA_NV?$Local@VValue@v8@@@v8@@@Z 0000000180012dd9 f   node:node.exe
 0001:00011de5       __imp_load_?Length@Buffer@node@@YA_KV?$Local@VObject@v8@@@v8@@@Z 0000000180012de5 f   node:node.exe
 0001:00011df1       __imp_load_?Length@TypedArray@v8@@QEAA_KXZ 0000000180012df1 f   node:node.exe
 0001:00011dfd       __imp_load_?IsUint8ClampedArray@Value@v8@@QEBA_NXZ 0000000180012dfd f   node:node.exe
 0001:00011e09       __imp_load_node_module_register 0000000180012e09 f   node:node.exe
 0001:00011e18       ??0bad_alloc@std@@QEAA@AEBV01@@Z 0000000180012e18 f i libcpmt:xthrow.obj
 0001:00011e58       ??0bad_alloc@std@@QEAA@XZ  0000000180012e58 f i libcpmt:xthrow.obj
 0001:00011e78       ??0exception@std@@QEAA@AEBV01@@Z 0000000180012e78 f i libcpmt:xthrow.obj
 0001:00011eb0       ??0length_error@std@@QEAA@AEBV01@@Z 0000000180012eb0 f i libcpmt:xthrow.obj
 0001:00011ef0       ??0length_error@std@@QEAA@PEBD@Z 0000000180012ef0 f i libcpmt:xthrow.obj
 0001:00011f3c       ??0logic_error@std@@QEAA@AEBV01@@Z 0000000180012f3c f i libcpmt:xthrow.obj
 0001:00011f7c       ?__scrt_throw_std_bad_alloc@@YAXXZ 0000000180012f7c f   LIBCMT:throw_bad_alloc.obj
 0001:00011f7c       ?_Xbad_alloc@std@@YAXXZ    0000000180012f7c f   libcpmt:xthrow.obj
 0001:00011f9c       ?_Xlength_error@std@@YAXPEBD@Z 0000000180012f9c f   libcpmt:xthrow.obj
 0001:00011fc0       ?what@exception@std@@UEBAPEBDXZ 0000000180012fc0 f i libcpmt:xthrow.obj
 0001:00011ff0       __security_check_cookie    0000000180012ff0 f   LIBCMT:_amdsecgs_.obj
 0001:00012014       ??2@YAPEAX_K@Z             0000000180013014 f   LIBCMT:new_scalar.obj
 0001:00012050       __scrt_acquire_startup_lock 0000000180013050 f   LIBCMT:utility.obj
 0001:0001208c       __scrt_dllmain_after_initialize_c 000000018001308c f   LIBCMT:utility.obj
 0001:000120c0       __scrt_dllmain_before_initialize_c 00000001800130c0 f   LIBCMT:utility.obj
 0001:000120d8       __scrt_dllmain_crt_thread_attach 00000001800130d8 f   LIBCMT:utility.obj
 0001:00012100       __scrt_dllmain_crt_thread_detach 0000000180013100 f   LIBCMT:utility.obj
 0001:00012118       __scrt_dllmain_exception_filter 0000000180013118 f   LIBCMT:utility.obj
 0001:0001217c       __scrt_dllmain_uninitialize_c 000000018001317c f   LIBCMT:utility.obj
 0001:000121ac       __scrt_dllmain_uninitialize_critical 00000001800131ac f   LIBCMT:utility.obj
 0001:000121c0       __scrt_initialize_crt      00000001800131c0 f   LIBCMT:utility.obj
 0001:0001220c       __scrt_initialize_onexit_tables 000000018001320c f   LIBCMT:utility.obj
 0001:000122d8       __scrt_is_nonwritable_in_current_image 00000001800132d8 f   LIBCMT:utility.obj
 0001:00012374       __scrt_release_startup_lock 0000000180013374 f   LIBCMT:utility.obj
 0001:00012398       __scrt_uninitialize_crt    0000000180013398 f   LIBCMT:utility.obj
 0001:000123c4       _onexit                    00000001800133c4 f   LIBCMT:utility.obj
 0001:00012414       atexit                     0000000180013414 f   LIBCMT:utility.obj
 0001:0001242c       ??3@YAXPEAX_K@Z            000000018001342c f   LIBCMT:delete_scalar_size.obj
 0001:00012434       ??3@YAXPEAX@Z              0000000180013434 f   LIBCMT:delete_scalar.obj
 0001:00012788       _DllMainCRTStartup         0000000180013788 f   LIBCMT:dll_dllmain.obj
 0001:000127c8       ??_Gtype_info@@UEAAPEAXI@Z 00000001800137c8 f i LIBCMT:std_type_info_static.obj
 0001:000127c8       ??_Etype_info@@UEAAPEAXI@Z 00000001800137c8 f i LIBCMT:std_type_info_static.obj
 0001:000127f4       __raise_securityfailure    00000001800137f4 f   LIBCMT:gs_report.obj
 0001:00012828       __report_gsfailure         0000000180013828 f   LIBCMT:gs_report.obj
 0001:000128fc       __report_rangecheckfailure 00000001800138fc f   LIBCMT:gs_report.obj
 0001:00012910       __report_securityfailure   0000000180013910 f   LIBCMT:gs_report.obj
 0001:00012a90       ??0bad_array_new_length@std@@QEAA@AEBV01@@Z 0000000180013a90 f i LIBCMT:throw_bad_alloc.obj
 0001:00012ad0       ??0bad_array_new_length@std@@QEAA@XZ 0000000180013ad0 f i LIBCMT:throw_bad_alloc.obj
 0001:00012af0       ??_Gbad_exception@std@@UEAAPEAXI@Z 0000000180013af0 f i libvcruntime:frame.obj
 0001:00012af0       ??_Glength_error@std@@UEAAPEAXI@Z 0000000180013af0 f i libcpmt:xthrow.obj
 0001:00012af0       ??_Eexception@std@@UEAAPEAXI@Z 0000000180013af0 f i libcpmt:xthrow.obj
 0001:00012af0       ??_Ebad_alloc@std@@UEAAPEAXI@Z 0000000180013af0 f i libcpmt:xthrow.obj
 0001:00012af0       ??_Elength_error@std@@UEAAPEAXI@Z 0000000180013af0 f i libcpmt:xthrow.obj
 0001:00012af0       ??_Ebad_array_new_length@std@@UEAAPEAXI@Z 0000000180013af0 f i LIBCMT:throw_bad_alloc.obj
 0001:00012af0       ??_Gexception@std@@UEAAPEAXI@Z 0000000180013af0 f i libcpmt:xthrow.obj
 0001:00012af0       ??_Ebad_exception@std@@UEAAPEAXI@Z 0000000180013af0 f i libvcruntime:frame.obj
 0001:00012af0       ??_Gbad_alloc@std@@UEAAPEAXI@Z 0000000180013af0 f i libcpmt:xthrow.obj
 0001:00012af0       ??_Glogic_error@std@@UEAAPEAXI@Z 0000000180013af0 f i libcpmt:xthrow.obj
 0001:00012af0       ??_Gbad_array_new_length@std@@UEAAPEAXI@Z 0000000180013af0 f i LIBCMT:throw_bad_alloc.obj
 0001:00012af0       ??_Elogic_error@std@@UEAAPEAXI@Z 0000000180013af0 f i libcpmt:xthrow.obj
 0001:00012b34       ?__scrt_throw_std_bad_array_new_length@@YAXXZ 0000000180013b34 f   LIBCMT:throw_bad_alloc.obj
 0001:00012b54       __isa_available_init       0000000180013b54 f   LIBCMT:_cpu_disp_.obj
 0001:00012d1c       DllMain                    0000000180013d1c f   LIBCMT:dll_dllmain_stub.obj
 0001:00012d1c       _get_startup_argv_mode     0000000180013d1c f   LIBCMT:argv_mode.obj
 0001:00012d24       __scrt_is_ucrt_dll_in_use  0000000180013d24 f   LIBCMT:ucrt_detection.obj
 0001:00012d30       __crt_debugger_hook        0000000180013d30 f   LIBCMT:utility_desktop.obj
 0001:00012d38       __scrt_fastfail            0000000180013d38 f   LIBCMT:utility_desktop.obj
 0001:00012e80       _guard_check_icall         0000000180013e80 f i LIBCMT:checkcfg.obj
 0001:00012e88       __security_init_cookie     0000000180013e88 f   LIBCMT:gs_support.obj
 0001:00012f34       ?__scrt_initialize_type_info@@YAXXZ 0000000180013f34 f   LIBCMT:tncleanup.obj
 0001:00012f44       ?__scrt_uninitialize_type_info@@YAXXZ 0000000180013f44 f   LIBCMT:tncleanup.obj
 0001:00012f50       __local_stdio_scanf_options 0000000180013f50 f i LIBCMT:default_local_stdio_options.obj
 0001:00012f58       __scrt_initialize_default_local_stdio_options 0000000180013f58 f   LIBCMT:default_local_stdio_options.obj
 0001:00012f74       __scrt_get_dyn_tls_init_callback 0000000180013f74 f   LIBCMT:dyn_tls_init.obj
 0001:00012f7c       _RTC_Initialize            0000000180013f7c f   LIBCMT:_initsect_.obj
 0001:00012fc8       _RTC_Terminate             0000000180013fc8 f   LIBCMT:_initsect_.obj
 0001:00013020       longjmp                    0000000180014020 f   libvcruntime:longjmpc.obj
 0001:00013048       __DestructExceptionObject  0000000180014048 f   libvcruntime:frame.obj
 0001:000130d0       ??0bad_exception@std@@QEAA@AEBV01@@Z 00000001800140d0 f i libvcruntime:frame.obj
 0001:00013110       ??0bad_exception@std@@QEAA@XZ 0000000180014110 f i libvcruntime:frame.obj
 0001:00013130       ??1bad_alloc@std@@UEAA@XZ  0000000180014130 f i libcpmt:xthrow.obj
 0001:00013130       ??1bad_array_new_length@std@@UEAA@XZ 0000000180014130 f i LIBCMT:throw_bad_alloc.obj
 0001:00013130       ??1bad_exception@std@@UEAA@XZ 0000000180014130 f i libvcruntime:frame.obj
 0001:00013130       ??1length_error@std@@UEAA@XZ 0000000180014130 f i libcpmt:xthrow.obj
 0001:00013aa0       ?_CallMemberFunction0@@YAXPEAXP6AX0@Z@Z 0000000180014aa0 f i libvcruntime:frame.obj
 0001:00013aa4       ?_CallMemberFunction1@@YAXPEAXP6AX0@Z0@Z 0000000180014aa4 f i libvcruntime:frame.obj
 0001:00013ab0       ?_CallMemberFunction2@@YAXPEAXP6AX0@Z0H@Z 0000000180014ab0 f i libvcruntime:frame.obj
 0001:00013ac0       __AdjustPointer            0000000180014ac0 f   libvcruntime:frame.obj
 0001:00013ae4       __BuildCatchObject         0000000180014ae4 f   libvcruntime:frame.obj
 0001:00013ba8       __BuildCatchObjectHelper   0000000180014ba8 f   libvcruntime:frame.obj
 0001:00013d88       __CxxCallCatchBlock        0000000180014d88 f   libvcruntime:frame.obj
 0001:00013f74       __FrameUnwindFilter        0000000180014f74 f   libvcruntime:frame.obj
 0001:00013fc0       __FrameUnwindToState       0000000180014fc0 f   libvcruntime:frame.obj
 0001:00014154       __InternalCxxFrameHandler  0000000180015154 f   libvcruntime:frame.obj
 0001:000143ac       __TypeMatch                00000001800153ac f   libvcruntime:frame.obj
 0001:000144ec       __std_terminate            00000001800154ec f   libvcruntime:frame.obj
 0001:000144f8       strstr                     00000001800154f8 f   libvcruntime:strstr.obj
 0001:000146ec       __std_exception_copy       00000001800156ec f   libvcruntime:std_exception.obj
 0001:0001477c       __std_exception_destroy    000000018001577c f   libvcruntime:std_exception.obj
 0001:000147a4       _CxxThrowException         00000001800157a4 f   libvcruntime:throw.obj
 0001:0001487c       __vcrt_initialize          000000018001587c f   libvcruntime:initialization.obj
 0001:000148b0       __vcrt_thread_attach       00000001800158b0 f   libvcruntime:initialization.obj
 0001:000148c4       __vcrt_thread_detach       00000001800158c4 f   libvcruntime:initialization.obj
 0001:000148d8       __vcrt_uninitialize        00000001800158d8 f   libvcruntime:initialization.obj
 0001:000148f8       __vcrt_uninitialize_critical 00000001800158f8 f   libvcruntime:initialization.obj
 0001:00014908       __C_specific_handler       0000000180015908 f   libvcruntime:_chandler_.obj
 0001:00014b20       memset                     0000000180015b20 f   libvcruntime:memset.obj
 0001:00014cc0       __std_type_info_compare    0000000180015cc0 f   libvcruntime:std_type_info.obj
 0001:00014ce8       __std_type_info_destroy_list 0000000180015ce8 f   libvcruntime:std_type_info.obj
 0001:00014d30       memcpy                     0000000180015d30 f   libvcruntime:memcpy.obj
 0001:00014d30       memmove                    0000000180015d30 f   libvcruntime:memcpy.obj
 0001:00015168       __vcrt_freefls             0000000180016168 f   libvcruntime:per_thread_data.obj
 0001:00015188       __vcrt_freeptd             0000000180016188 f   libvcruntime:per_thread_data.obj
 0001:000151d8       __vcrt_getptd              00000001800161d8 f   libvcruntime:per_thread_data.obj
 0001:000151f4       __vcrt_getptd_noexit       00000001800161f4 f   libvcruntime:per_thread_data.obj
 0001:000152ac       __vcrt_initialize_ptd      00000001800162ac f   libvcruntime:per_thread_data.obj
 0001:000152ec       __vcrt_uninitialize_ptd    00000001800162ec f   libvcruntime:per_thread_data.obj
 0001:00015310       ?__GetCurrentState@@YAHPEA_KPEAU_xDISPATCHER_CONTEXT@@PEBU_s_FuncInfo@@@Z 0000000180016310 f   libvcruntime:ehstate.obj
 0001:00015338       ?__GetUnwindTryBlock@@YAHPEA_KPEAU_xDISPATCHER_CONTEXT@@PEBU_s_FuncInfo@@@Z 0000000180016338 f   libvcruntime:ehstate.obj
 0001:00015364       ?__SetState@@YAXPEA_KPEAU_xDISPATCHER_CONTEXT@@PEBU_s_FuncInfo@@H@Z 0000000180016364 f   libvcruntime:ehstate.obj
 0001:00015370       ?__SetUnwindTryBlock@@YAXPEA_KPEAU_xDISPATCHER_CONTEXT@@PEBU_s_FuncInfo@@H@Z 0000000180016370 f   libvcruntime:ehstate.obj
 0001:000153ac       ?__StateFromControlPc@@YAHPEBU_s_FuncInfo@@PEAU_xDISPATCHER_CONTEXT@@@Z 00000001800163ac f   libvcruntime:ehstate.obj
 0001:000153b4       ?__StateFromIp@@YAHPEBU_s_FuncInfo@@PEAU_xDISPATCHER_CONTEXT@@_J@Z 00000001800163b4 f   libvcruntime:ehstate.obj
 0001:00015430       _CallSettingFrame          0000000180016430 f   libvcruntime:handlers.obj
 0001:00015470       ?_ExecutionInCatch@@YAHPEAU_xDISPATCHER_CONTEXT@@PEBU_s_FuncInfo@@@Z 0000000180016470 f   libvcruntime:trnsctrl.obj
 0001:000154e4       ?_GetEstablisherFrame@@YAPEA_KPEA_KPEAU_xDISPATCHER_CONTEXT@@PEBU_s_FuncInfo@@0@Z 00000001800164e4 f   libvcruntime:trnsctrl.obj
 0001:000155b0       ?_GetRangeOfTrysToCheck@@YAPEBU_s_TryBlockMapEntry@@PEA_KPEBU_s_FuncInfo@@HHPEAI2PEAU_xDISPATCHER_CONTEXT@@@Z 00000001800165b0 f   libvcruntime:trnsctrl.obj
 0001:000156dc       ?__FrameUnwindToEmptyState@@YAXPEA_KPEAU_xDISPATCHER_CONTEXT@@PEBU_s_FuncInfo@@@Z 00000001800166dc f   libvcruntime:trnsctrl.obj
 0001:00015770       ?__SehTransFilter@@YAHPEAU_EXCEPTION_POINTERS@@PEAUEHExceptionRecord@@PEA_KPEAU_CONTEXT@@PEAU_xDISPATCHER_CONTEXT@@PEBU_s_FuncInfo@@PEAH@Z 0000000180016770 f   libvcruntime:trnsctrl.obj
 0001:00015808       _CallSETranslator          0000000180016808 f   libvcruntime:trnsctrl.obj
 0001:00015860       _CreateFrameInfo           0000000180016860 f   libvcruntime:trnsctrl.obj
 0001:0001589c       _FindAndUnlinkFrame        000000018001689c f   libvcruntime:trnsctrl.obj
 0001:000158f4       _GetImageBase              00000001800168f4 f   libvcruntime:trnsctrl.obj
 0001:00015908       _GetThrowImageBase         0000000180016908 f   libvcruntime:trnsctrl.obj
 0001:0001591c       _IsExceptionObjectToBeDestroyed 000000018001691c f   libvcruntime:trnsctrl.obj
 0001:0001594c       _SetImageBase              000000018001694c f   libvcruntime:trnsctrl.obj
 0001:00015964       _SetThrowImageBase         0000000180016964 f   libvcruntime:trnsctrl.obj
 0001:0001597c       _UnwindNestedFrames        000000018001697c f   libvcruntime:trnsctrl.obj
 0001:00015aa0       __CxxFrameHandler3         0000000180016aa0 f   libvcruntime:trnsctrl.obj
 0001:00015b30       _local_unwind              0000000180016b30 f   libvcruntime:_jmpuwind_.obj
 0001:00015b60       _NLG_Notify                0000000180016b60 f   libvcruntime:_jmpuwind_.obj
 0001:00015b80       __NLG_Dispatch2            0000000180016b80 f   libvcruntime:_jmpuwind_.obj
 0001:00015b90       __NLG_Return2              0000000180016b90 f   libvcruntime:_jmpuwind_.obj
 0001:00015b94       __vcrt_initialize_locks    0000000180016b94 f   libvcruntime:locks.obj
 0001:00015bdc       __vcrt_uninitialize_locks  0000000180016bdc f   libvcruntime:locks.obj
 0001:00015ddc       __vcrt_FlsAlloc            0000000180016ddc f   libvcruntime:winapi_downlevel.obj
 0001:00015e30       __vcrt_FlsFree             0000000180016e30 f   libvcruntime:winapi_downlevel.obj
 0001:00015e84       __vcrt_FlsGetValue         0000000180016e84 f   libvcruntime:winapi_downlevel.obj
 0001:00015ed8       __vcrt_FlsSetValue         0000000180016ed8 f   libvcruntime:winapi_downlevel.obj
 0001:00015f40       __vcrt_InitializeCriticalSectionEx 0000000180016f40 f   libvcruntime:winapi_downlevel.obj
 0001:00015fb8       __vcrt_initialize_winapi_thunks 0000000180016fb8 f   libvcruntime:winapi_downlevel.obj
 0001:00016004       __vcrt_uninitialize_winapi_thunks 0000000180017004 f   libvcruntime:winapi_downlevel.obj
 0001:00016044       __vcrt_initialize_pure_virtual_call_handler 0000000180017044 f   libvcruntime:purevirt_data.obj
 0001:00016068       realloc                    0000000180017068 f   libucrt:realloc.obj
 0001:00016070       free                       0000000180017070 f   libucrt:free.obj
 0001:00016a60       ??$ftprintf@PEAU_iobuf@@PEB_WAEBQEB_WAEBQEB_WAEBI@?$__crt_char_traits@_W@@SAH$$QEAPEAU_iobuf@@$$QEAPEB_WAEBQEB_W2AEBI@Z 0000000180017a60 f i libucrt:assert.obj
 0001:00016a88       _wassert                   0000000180017a88 f   libucrt:assert.obj
 0001:00016b0c       fwprintf                   0000000180017b0c f i libucrt:assert.obj
 0001:00016b50       swprintf                   0000000180017b50 f i libucrt:assert.obj
 0001:00016ba4       malloc                     0000000180017ba4 f   libucrt:malloc.obj
 0001:00016bac       _isnan                     0000000180017bac f   libucrt:ieeemisc.obj
 0001:00016bd8       _finite                    0000000180017bd8 f   libucrt:_finite.obj
 0001:00016c04       __acrt_call_reportfault    0000000180017c04 f   libucrt:invalid_parameter.obj
 0001:00016d60       __acrt_initialize_invalid_parameter_handler 0000000180017d60 f   libucrt:invalid_parameter.obj
 0001:00016d68       _invalid_parameter         0000000180017d68 f   libucrt:invalid_parameter.obj
 0001:00016e10       _invalid_parameter_noinfo  0000000180017e10 f   libucrt:invalid_parameter.obj
 0001:00016e30       _invalid_parameter_noinfo_noreturn 0000000180017e30 f   libucrt:invalid_parameter.obj
 0001:00016e60       _invoke_watson             0000000180017e60 f   libucrt:invalid_parameter.obj
 0001:00016ea8       __acrt_initialize_stdio    0000000180017ea8 f   libucrt:_file.obj
 0001:00016fc8       __acrt_iob_func            0000000180017fc8 f   libucrt:_file.obj
 0001:00016fdc       __acrt_uninitialize_stdio  0000000180017fdc f   libucrt:_file.obj
 0001:00017038       _lock_file                 0000000180018038 f   libucrt:_file.obj
 0001:00017044       _unlock_file               0000000180018044 f   libucrt:_file.obj
 0001:00017050       ??$?RV<lambda_7b91131dde12e1c3dfc74ff76b3f2eac>@@AEAV<lambda_dd75445284c072d0bd3768540cc698fa>@@V<lambda_16bc4ecb55b4718497c16bceaea2ceaf>@@@?$__crt_seh_guarded_call@H@@QEAAH$$QEAV<lambda_7b91131dde12e1c3dfc74ff76b3f2eac>@@AEAV<lambda_dd75445284c072d0bd3768540cc698fa>@@$$QEAV<lambda_16bc4ecb55b4718497c16bceaea2ceaf>@@@Z 0000000180018050 f i libucrt:output.obj
 0001:00017090       ??$ensure_buffer_is_big_enough@D@formatting_buffer@__crt_stdio_output@@QEAA_N_K@Z 0000000180018090 f i libucrt:output.obj
 0001:0001713c       ??$is_wide_character_specifier@D@__crt_stdio_output@@YA_N_KDW4length_modifier@0@@Z 000000018001813c f i libucrt:output.obj
 0001:0001716c       ??$is_wide_character_specifier@_W@__crt_stdio_output@@YA_N_K_WW4length_modifier@0@@Z 000000018001816c f i libucrt:output.obj
 0001:000171b0       ??$type_case_integer_parse_into_buffer@I@?$output_processor@_WV?$string_output_adapter@_W@__crt_stdio_output@@V?$standard_base@_WV?$string_output_adapter@_W@__crt_stdio_output@@@2@@__crt_stdio_output@@AEAAXII_N@Z 00000001800181b0 f i libucrt:output.obj
 0001:000171b0       ??$type_case_integer_parse_into_buffer@I@?$output_processor@_WV?$stream_output_adapter@_W@__crt_stdio_output@@V?$standard_base@_WV?$stream_output_adapter@_W@__crt_stdio_output@@@2@@__crt_stdio_output@@AEAAXII_N@Z 00000001800181b0 f i libucrt:output.obj
 0001:000171b0       ??$type_case_integer_parse_into_buffer@I@?$output_processor@DV?$string_output_adapter@D@__crt_stdio_output@@V?$standard_base@DV?$string_output_adapter@D@__crt_stdio_output@@@2@@__crt_stdio_output@@AEAAXII_N@Z 00000001800181b0 f i libucrt:output.obj
 0001:0001724c       ??$type_case_integer_parse_into_buffer@_K@?$output_processor@_WV?$stream_output_adapter@_W@__crt_stdio_output@@V?$standard_base@_WV?$stream_output_adapter@_W@__crt_stdio_output@@@2@@__crt_stdio_output@@AEAAX_KI_N@Z 000000018001824c f i libucrt:output.obj
 0001:0001724c       ??$type_case_integer_parse_into_buffer@_K@?$output_processor@_WV?$string_output_adapter@_W@__crt_stdio_output@@V?$standard_base@_WV?$string_output_adapter@_W@__crt_stdio_output@@@2@@__crt_stdio_output@@AEAAX_KI_N@Z 000000018001824c f i libucrt:output.obj
 0001:0001724c       ??$type_case_integer_parse_into_buffer@_K@?$output_processor@DV?$string_output_adapter@D@__crt_stdio_output@@V?$standard_base@DV?$string_output_adapter@D@__crt_stdio_output@@@2@@__crt_stdio_output@@AEAAX_KI_N@Z 000000018001824c f i libucrt:output.obj
 0001:000172e8       ??$write_multiple_characters@V?$stream_output_adapter@_W@__crt_stdio_output@@D@__crt_stdio_output@@YAXAEBV?$stream_output_adapter@_W@0@DHQEAH@Z 00000001800182e8 f i libucrt:output.obj
 0001:00017378       ??$write_multiple_characters@V?$string_output_adapter@D@__crt_stdio_output@@D@__crt_stdio_output@@YAXAEBV?$string_output_adapter@D@0@DHQEAH@Z 0000000180018378 f i libucrt:output.obj
 0001:000173d4       ??$write_multiple_characters@V?$string_output_adapter@_W@__crt_stdio_output@@D@__crt_stdio_output@@YAXAEBV?$string_output_adapter@_W@0@DHQEAH@Z 00000001800183d4 f i libucrt:output.obj
 0001:00017444       ??0?$output_processor@DV?$string_output_adapter@D@__crt_stdio_output@@V?$standard_base@DV?$string_output_adapter@D@__crt_stdio_output@@@2@@__crt_stdio_output@@QEAA@AEBV?$string_output_adapter@D@1@_KQEBDQEAU__crt_locale_pointers@@QEAD@Z 0000000180018444 f i libucrt:output.obj
 0001:000174c0       ??0?$output_processor@_WV?$string_output_adapter@_W@__crt_stdio_output@@V?$standard_base@_WV?$string_output_adapter@_W@__crt_stdio_output@@@2@@__crt_stdio_output@@QEAA@AEBV?$string_output_adapter@_W@1@_KQEB_WQEAU__crt_locale_pointers@@QEAD@Z 00000001800184c0 f i libucrt:output.obj
 0001:000174c0       ??0?$output_processor@_WV?$stream_output_adapter@_W@__crt_stdio_output@@V?$standard_base@_WV?$stream_output_adapter@_W@__crt_stdio_output@@@2@@__crt_stdio_output@@QEAA@AEBV?$stream_output_adapter@_W@1@_KQEB_WQEAU__crt_locale_pointers@@QEAD@Z 00000001800184c0 f i libucrt:output.obj
 0001:00017540       ??0_LocaleUpdate@@QEAA@QEAU__crt_locale_pointers@@@Z 0000000180018540 f i libucrt:output.obj
 0001:000176c0       ?force_decimal_point@__crt_stdio_output@@YAXPEADQEAU__crt_locale_pointers@@@Z 00000001800186c0 f i libucrt:output.obj
 0001:00017730       ?parse_int_from_format_string@?$output_processor@DV?$string_output_adapter@D@__crt_stdio_output@@V?$standard_base@DV?$string_output_adapter@D@__crt_stdio_output@@@2@@__crt_stdio_output@@AEAA_NQEAH@Z 0000000180018730 f i libucrt:output.obj
 0001:000177b4       ?parse_int_from_format_string@?$output_processor@_WV?$stream_output_adapter@_W@__crt_stdio_output@@V?$standard_base@_WV?$stream_output_adapter@_W@__crt_stdio_output@@@2@@__crt_stdio_output@@AEAA_NQEAH@Z 00000001800187b4 f i libucrt:output.obj
 0001:000177b4       ?parse_int_from_format_string@?$output_processor@_WV?$string_output_adapter@_W@__crt_stdio_output@@V?$standard_base@_WV?$string_output_adapter@_W@__crt_stdio_output@@@2@@__crt_stdio_output@@AEAA_NQEAH@Z 00000001800187b4 f i libucrt:output.obj
 0001:00017834       ?process@?$output_processor@DV?$string_output_adapter@D@__crt_stdio_output@@V?$standard_base@DV?$string_output_adapter@D@__crt_stdio_output@@@2@@__crt_stdio_output@@QEAAHXZ 0000000180018834 f i libucrt:output.obj
 0001:00017a38       ?process@?$output_processor@_WV?$stream_output_adapter@_W@__crt_stdio_output@@V?$standard_base@_WV?$stream_output_adapter@_W@__crt_stdio_output@@@2@@__crt_stdio_output@@QEAAHXZ 0000000180018a38 f i libucrt:output.obj
 0001:00017cb0       ?process@?$output_processor@_WV?$string_output_adapter@_W@__crt_stdio_output@@V?$standard_base@_WV?$string_output_adapter@_W@__crt_stdio_output@@@2@@__crt_stdio_output@@QEAAHXZ 0000000180018cb0 f i libucrt:output.obj
 0001:00017f2c       ?state_case_normal@?$output_processor@DV?$string_output_adapter@D@__crt_stdio_output@@V?$standard_base@DV?$string_output_adapter@D@__crt_stdio_output@@@2@@__crt_stdio_output@@AEAA_NXZ 0000000180018f2c f i libucrt:output.obj
 0001:00017fa0       ?state_case_normal_tchar@?$output_processor@DV?$string_output_adapter@D@__crt_stdio_output@@V?$standard_base@DV?$string_output_adapter@D@__crt_stdio_output@@@2@@__crt_stdio_output@@AEAA_ND@Z 0000000180018fa0 f i libucrt:output.obj
 0001:00018038       ?state_case_size@?$output_processor@DV?$string_output_adapter@D@__crt_stdio_output@@V?$standard_base@DV?$string_output_adapter@D@__crt_stdio_output@@@2@@__crt_stdio_output@@AEAA_NXZ 0000000180019038 f i libucrt:output.obj
 0001:000181b4       ?state_case_size@?$output_processor@_WV?$stream_output_adapter@_W@__crt_stdio_output@@V?$standard_base@_WV?$stream_output_adapter@_W@__crt_stdio_output@@@2@@__crt_stdio_output@@AEAA_NXZ 00000001800191b4 f i libucrt:output.obj
 0001:00018358       ?state_case_size@?$output_processor@_WV?$string_output_adapter@_W@__crt_stdio_output@@V?$standard_base@_WV?$string_output_adapter@_W@__crt_stdio_output@@@2@@__crt_stdio_output@@AEAA_NXZ 0000000180019358 f i libucrt:output.obj
 0001:000184fc       ?state_case_type@?$output_processor@DV?$string_output_adapter@D@__crt_stdio_output@@V?$standard_base@DV?$string_output_adapter@D@__crt_stdio_output@@@2@@__crt_stdio_output@@AEAA_NXZ 00000001800194fc f i libucrt:output.obj
 0001:00018778       ?state_case_type@?$output_processor@_WV?$stream_output_adapter@_W@__crt_stdio_output@@V?$standard_base@_WV?$stream_output_adapter@_W@__crt_stdio_output@@@2@@__crt_stdio_output@@AEAA_NXZ 0000000180019778 f i libucrt:output.obj
 0001:00018a44       ?state_case_type@?$output_processor@_WV?$string_output_adapter@_W@__crt_stdio_output@@V?$standard_base@_WV?$string_output_adapter@_W@__crt_stdio_output@@@2@@__crt_stdio_output@@AEAA_NXZ 0000000180019a44 f i libucrt:output.obj
 0001:00018d10       ?type_case_Z@?$output_processor@DV?$string_output_adapter@D@__crt_stdio_output@@V?$standard_base@DV?$string_output_adapter@D@__crt_stdio_output@@@2@@__crt_stdio_output@@AEAA_NXZ 0000000180019d10 f i libucrt:output.obj
 0001:00018d90       ?type_case_Z@?$output_processor@_WV?$stream_output_adapter@_W@__crt_stdio_output@@V?$standard_base@_WV?$stream_output_adapter@_W@__crt_stdio_output@@@2@@__crt_stdio_output@@AEAA_NXZ 0000000180019d90 f i libucrt:output.obj
 0001:00018d90       ?type_case_Z@?$output_processor@_WV?$string_output_adapter@_W@__crt_stdio_output@@V?$standard_base@_WV?$string_output_adapter@_W@__crt_stdio_output@@@2@@__crt_stdio_output@@AEAA_NXZ 0000000180019d90 f i libucrt:output.obj
 0001:00018e10       ?type_case_a@?$output_processor@DV?$string_output_adapter@D@__crt_stdio_output@@V?$standard_base@DV?$string_output_adapter@D@__crt_stdio_output@@@2@@__crt_stdio_output@@AEAA_NXZ 0000000180019e10 f i libucrt:output.obj
 0001:0001902c       ?type_case_a@?$output_processor@_WV?$stream_output_adapter@_W@__crt_stdio_output@@V?$standard_base@_WV?$stream_output_adapter@_W@__crt_stdio_output@@@2@@__crt_stdio_output@@AEAA_NXZ 000000018001a02c f i libucrt:output.obj
 0001:0001902c       ?type_case_a@?$output_processor@_WV?$string_output_adapter@_W@__crt_stdio_output@@V?$standard_base@_WV?$string_output_adapter@_W@__crt_stdio_output@@@2@@__crt_stdio_output@@AEAA_NXZ 000000018001a02c f i libucrt:output.obj
 0001:00019270       ?type_case_c_tchar@?$output_processor@DV?$string_output_adapter@D@__crt_stdio_output@@V?$standard_base@DV?$string_output_adapter@D@__crt_stdio_output@@@2@@__crt_stdio_output@@AEAA_ND@Z 000000018001a270 f i libucrt:output.obj
 0001:00019324       ?type_case_c_tchar@?$output_processor@_WV?$stream_output_adapter@_W@__crt_stdio_output@@V?$standard_base@_WV?$stream_output_adapter@_W@__crt_stdio_output@@@2@@__crt_stdio_output@@AEAA_N_W@Z 000000018001a324 f i libucrt:output.obj
 0001:00019324       ?type_case_c_tchar@?$output_processor@_WV?$string_output_adapter@_W@__crt_stdio_output@@V?$standard_base@_WV?$string_output_adapter@_W@__crt_stdio_output@@@2@@__crt_stdio_output@@AEAA_N_W@Z 000000018001a324 f i libucrt:output.obj
 0001:000193cc       ?type_case_integer@?$output_processor@_WV?$string_output_adapter@_W@__crt_stdio_output@@V?$standard_base@_WV?$string_output_adapter@_W@__crt_stdio_output@@@2@@__crt_stdio_output@@AEAA_NI_N@Z 000000018001a3cc f i libucrt:output.obj
 0001:000193cc       ?type_case_integer@?$output_processor@_WV?$stream_output_adapter@_W@__crt_stdio_output@@V?$standard_base@_WV?$stream_output_adapter@_W@__crt_stdio_output@@@2@@__crt_stdio_output@@AEAA_NI_N@Z 000000018001a3cc f i libucrt:output.obj
 0001:000193cc       ?type_case_integer@?$output_processor@DV?$string_output_adapter@D@__crt_stdio_output@@V?$standard_base@DV?$string_output_adapter@D@__crt_stdio_output@@@2@@__crt_stdio_output@@AEAA_NI_N@Z 000000018001a3cc f i libucrt:output.obj
 0001:0001956c       ?type_case_n@?$output_processor@_WV?$string_output_adapter@_W@__crt_stdio_output@@V?$standard_base@_WV?$string_output_adapter@_W@__crt_stdio_output@@@2@@__crt_stdio_output@@AEAA_NXZ 000000018001a56c f i libucrt:output.obj
 0001:0001956c       ?type_case_n@?$output_processor@DV?$string_output_adapter@D@__crt_stdio_output@@V?$standard_base@DV?$string_output_adapter@D@__crt_stdio_output@@@2@@__crt_stdio_output@@AEAA_NXZ 000000018001a56c f i libucrt:output.obj
 0001:0001956c       ?type_case_n@?$output_processor@_WV?$stream_output_adapter@_W@__crt_stdio_output@@V?$standard_base@_WV?$stream_output_adapter@_W@__crt_stdio_output@@@2@@__crt_stdio_output@@AEAA_NXZ 000000018001a56c f i libucrt:output.obj
 0001:00019648       ?type_case_s@?$output_processor@DV?$string_output_adapter@D@__crt_stdio_output@@V?$standard_base@DV?$string_output_adapter@D@__crt_stdio_output@@@2@@__crt_stdio_output@@AEAA_NXZ 000000018001a648 f i libucrt:output.obj
 0001:000196d8       ?type_case_s@?$output_processor@_WV?$string_output_adapter@_W@__crt_stdio_output@@V?$standard_base@_WV?$string_output_adapter@_W@__crt_stdio_output@@@2@@__crt_stdio_output@@AEAA_NXZ 000000018001a6d8 f i libucrt:output.obj
 0001:000196d8       ?type_case_s@?$output_processor@_WV?$stream_output_adapter@_W@__crt_stdio_output@@V?$standard_base@_WV?$stream_output_adapter@_W@__crt_stdio_output@@@2@@__crt_stdio_output@@AEAA_NXZ 000000018001a6d8 f i libucrt:output.obj
 0001:000197a0       ?write_stored_string_tchar@?$output_processor@DV?$string_output_adapter@D@__crt_stdio_output@@V?$standard_base@DV?$string_output_adapter@D@__crt_stdio_output@@@2@@__crt_stdio_output@@AEAA_ND@Z 000000018001a7a0 f i libucrt:output.obj
 0001:00019878       ?write_stored_string_tchar@?$output_processor@_WV?$stream_output_adapter@_W@__crt_stdio_output@@V?$standard_base@_WV?$stream_output_adapter@_W@__crt_stdio_output@@@2@@__crt_stdio_output@@AEAA_N_W@Z 000000018001a878 f i libucrt:output.obj
 0001:00019964       ?write_stored_string_tchar@?$output_processor@_WV?$string_output_adapter@_W@__crt_stdio_output@@V?$standard_base@_WV?$string_output_adapter@_W@__crt_stdio_output@@@2@@__crt_stdio_output@@AEAA_N_W@Z 000000018001a964 f i libucrt:output.obj
 0001:00019a54       ?write_string@?$stream_output_adapter@_W@__crt_stdio_output@@QEBAXQEB_WHQEAH1@Z 000000018001aa54 f i libucrt:output.obj
 0001:00019b60       ?write_string@?$string_output_adapter@D@__crt_stdio_output@@QEBAXQEBDHQEAH1@Z 000000018001ab60 f i libucrt:output.obj
 0001:00019c1c       ?write_string@?$string_output_adapter@_W@__crt_stdio_output@@QEBAXQEB_WHQEAH1@Z 000000018001ac1c f i libucrt:output.obj
 0001:00019cdc       __stdio_common_vfwprintf   000000018001acdc f   libucrt:output.obj
 0001:00019d68       __stdio_common_vsprintf    000000018001ad68 f   libucrt:output.obj
 0001:00019f9c       __stdio_common_vswprintf   000000018001af9c f   libucrt:output.obj
 0001:0001a2a4       fopen                      000000018001b2a4 f   libucrt:fopen.obj
 0001:0001a2b0       _fclose_nolock             000000018001b2b0 f   libucrt:fclose.obj
 0001:0001a334       fclose                     000000018001b334 f   libucrt:fclose.obj
 0001:0001a614       fseek                      000000018001b614 f   libucrt:fseek.obj
 0001:0001a61c       _fread_nolock_s            000000018001b61c f   libucrt:fread.obj
 0001:0001a89c       fread                      000000018001b89c f   libucrt:fread.obj
 0001:0001a8bc       fread_s                    000000018001b8bc f   libucrt:fread.obj
 0001:0001a964       __ascii_stricmp            000000018001b964 f   libucrt:stricmp.obj
 0001:0001a9a0       _stricmp                   000000018001b9a0 f   libucrt:stricmp.obj
 0001:0001a9e8       _stricmp_l                 000000018001b9e8 f   libucrt:stricmp.obj
 0001:0001aa9c       __acrt_initialize_new_handler 000000018001ba9c f   libucrt:new_handler.obj
 0001:0001aaa4       _callnewh                  000000018001baa4 f   libucrt:new_handler.obj
 0001:0001aae4       _query_new_handler         000000018001bae4 f   libucrt:new_handler.obj
 0001:0001ab18       _seh_filter_dll            000000018001bb18 f   libucrt:exception_filter.obj
 0001:0001ab2c       _seh_filter_exe            000000018001bb2c f   libucrt:exception_filter.obj
 0001:0001aeec       __acrt_initialize_thread_local_exit_callback 000000018001beec f   libucrt:exit.obj
 0001:0001aef4       _cexit                     000000018001bef4 f   libucrt:exit.obj
 0001:0001af04       _exit                      000000018001bf04 f   libucrt:exit.obj
 0001:0001af10       _is_c_termination_complete 000000018001bf10 f   libucrt:exit.obj
 0001:0001b0d4       __acrt_allocate_buffer_for_argv 000000018001c0d4 f   libucrt:argv_parsing.obj
 0001:0001b138       _configure_narrow_argv     000000018001c138 f   libucrt:argv_parsing.obj
 0001:0001b494       __dcrt_uninitialize_environments_nolock 000000018001c494 f   libucrt:environment_initialization.obj
 0001:0001b4cc       _initialize_narrow_environment 000000018001c4cc f   libucrt:environment_initialization.obj
 0001:0001b4d4       ??$?RV<lambda_b8c45f8f788dd370798f47cfe8ac3a86>@@AEAV<lambda_4e60a939b0d047cfe11ddc22648dfba9>@@V<lambda_332c3edc96d0294ec56c57d38c1cdfd5>@@@?$__crt_seh_guarded_call@H@@QEAAH$$QEAV<lambda_b8c45f8f788dd370798f47cfe8ac3a86>@@AEAV<lambda_4e60a939b0d047cfe11ddc22648dfba9>@@$$QEAV<lambda_332c3edc96d0294ec56c57d38c1cdfd5>@@@Z 000000018001c4d4 f i libucrt:onexit.obj
 0001:0001b510       ??$?RV<lambda_e24bbb7b643b32fcea6fa61b31d4c984>@@AEAV<lambda_275893d493268fdec8709772e3fcec0e>@@V<lambda_9d71df4d7cf3f480f8d633942495c3b0>@@@?$__crt_seh_guarded_call@H@@QEAAH$$QEAV<lambda_e24bbb7b643b32fcea6fa61b31d4c984>@@AEAV<lambda_275893d493268fdec8709772e3fcec0e>@@$$QEAV<lambda_9d71df4d7cf3f480f8d633942495c3b0>@@@Z 000000018001c510 f i libucrt:onexit.obj
 0001:0001b88c       _crt_atexit                000000018001c88c f   libucrt:onexit.obj
 0001:0001b89c       _execute_onexit_table      000000018001c89c f   libucrt:onexit.obj
 0001:0001b8d8       _initialize_onexit_table   000000018001c8d8 f   libucrt:onexit.obj
 0001:0001b918       _register_onexit_function  000000018001c918 f   libucrt:onexit.obj
 0001:0001b9a8       __acrt_uninitialize_command_line 000000018001c9a8 f   libucrt:argv_data.obj
 0001:0001ba98       __acrt_initialize          000000018001ca98 f   libucrt:initialization.obj
 0001:0001baac       __acrt_thread_attach       000000018001caac f   libucrt:initialization.obj
 0001:0001bac0       __acrt_thread_detach       000000018001cac0 f   libucrt:initialization.obj
 0001:0001bad0       __acrt_uninitialize        000000018001cad0 f   libucrt:initialization.obj
 0001:0001bae4       __acrt_uninitialize_critical 000000018001cae4 f   libucrt:initialization.obj
 0001:0001baf4       _initterm                  000000018001caf4 f   libucrt:initterm.obj
 0001:0001bb6c       _initterm_e                000000018001cb6c f   libucrt:initterm.obj
 0001:0001bbb8       terminate                  000000018001cbb8 f   libucrt:terminate.obj
 0001:0001bbe0       _strdup                    000000018001cbe0 f   libucrt:strdup.obj
 0001:0001bbe0       strdup                     000000018001cbe0 f   libucrt:strdup.obj
 0001:0001bc58       strcpy_s                   000000018001cc58 f   libucrt:strcpy_s.obj
 0001:0001bcb8       _free_base                 000000018001ccb8 f   libucrt:free_base.obj
 0001:0001bcf8       _malloc_base               000000018001ccf8 f   libucrt:malloc_base.obj
 0001:0001bd58       abort                      000000018001cd58 f   libucrt:abort.obj
 0001:0001bdb0       _calloc_base               000000018001cdb0 f   libucrt:calloc_base.obj
 0001:0001be28       ??$is_overflow_condition@K@__crt_strtox@@YA_NIK@Z 000000018001ce28 f i libucrt:atox.obj
 0001:0001be54       ??$parse_integer@KV?$c_string_character_source@D@__crt_strtox@@@__crt_strtox@@YAKQEAU__crt_locale_pointers@@V?$c_string_character_source@D@0@H_N@Z 000000018001ce54 f i libucrt:atox.obj
 0001:0001c168       ??$parse_integer@KV?$c_string_character_source@_W@__crt_strtox@@@__crt_strtox@@YAKQEAU__crt_locale_pointers@@V?$c_string_character_source@_W@0@H_N@Z 000000018001d168 f i libucrt:atox.obj
 0001:0001c83c       _realloc_base              000000018001d83c f   libucrt:realloc_base.obj
 0001:0001c8c0       _query_app_type            000000018001d8c0 f   libucrt:report_runtime_error.obj
 0001:0001c8c8       __acrt_errno_from_os_error 000000018001d8c8 f   libucrt:errno.obj
 0001:0001c910       __acrt_errno_map_os_error  000000018001d910 f   libucrt:errno.obj
 0001:0001c960       __doserrno                 000000018001d960 f   libucrt:errno.obj
 0001:0001c980       _errno                     000000018001d980 f   libucrt:errno.obj
 0001:0001cac8       _itow_s                    000000018001dac8 f   libucrt:xtoa.obj
 0001:0001cae8       _set_error_mode            000000018001dae8 f   libucrt:set_error_mode.obj
 0001:0001cb28       wcscat_s                   000000018001db28 f   libucrt:wcscat_s.obj
 0001:0001cba8       wcscpy_s                   000000018001dba8 f   libucrt:wcscpy_s.obj
 0001:0001cc10       wcsncat_s                  000000018001dc10 f   libucrt:wcsncat_s.obj
 0001:0001cd38       __acrt_show_wide_message_box 000000018001dd38 f   libucrt:crtmbox.obj
 0001:0001ce54       __acrt_stdio_flush_nolock  000000018001de54 f   libucrt:fflush.obj
 0001:0001cecc       _fflush_nolock             000000018001decc f   libucrt:fflush.obj
 0001:0001cf18       _flushall                  000000018001df18 f   libucrt:fflush.obj
 0001:0001d008       fflush                     000000018001e008 f   libucrt:fflush.obj
 0001:0001d04c       ??$?RV<lambda_7a5ef57ff966f610505f1d28a3d40618>@@AEAV<lambda_b721fa326cdb32351d23dfa67958c160>@@V<lambda_5e0fb27672408a07956fe59e48ccb2aa>@@@?$__crt_seh_guarded_call@H@@QEAAH$$QEAV<lambda_7a5ef57ff966f610505f1d28a3d40618>@@AEAV<lambda_b721fa326cdb32351d23dfa67958c160>@@$$QEAV<lambda_5e0fb27672408a07956fe59e48ccb2aa>@@@Z 000000018001e04c f i libucrt:setvbuf.obj
 0001:0001d17c       setvbuf                    000000018001e17c f   libucrt:setvbuf.obj
 0001:0001d21c       ??$?RV<lambda_c36588078e9f5dfd39652860aa6b3aaf>@@AEAV<lambda_ec61778202f4f5fc7e7711acc23c3bca>@@V<lambda_dc9d2797ccde5d239b4a0efae8ebd7db>@@@?$__crt_seh_guarded_call@P6AXH@Z@@QEAAP6AXH@Z$$QEAV<lambda_c36588078e9f5dfd39652860aa6b3aaf>@@AEAV<lambda_ec61778202f4f5fc7e7711acc23c3bca>@@$$QEAV<lambda_dc9d2797ccde5d239b4a0efae8ebd7db>@@@Z 000000018001e21c f i libucrt:signal.obj
 0001:0001d264       __acrt_get_sigabrt_handler 000000018001e264 f   libucrt:signal.obj
 0001:0001d294       __acrt_initialize_signal_handlers 000000018001e294 f   libucrt:signal.obj
 0001:0001d2b4       raise                      000000018001e2b4 f   libucrt:signal.obj
 0001:0001d674       _handle_error              000000018001e674 f   libucrt:libm_error.obj
 0001:0001d79c       _handle_errorf             000000018001e79c f   libucrt:libm_error.obj
 0001:0001d8d0       _handle_nan                000000018001e8d0 f   libucrt:libm_error.obj
 0001:0001d8ec       _handle_nanf               000000018001e8ec f   libucrt:libm_error.obj
 0001:0001d8fc       ??$?RV<lambda_46352004c1216016012b18bd6f87e700>@@AEAV<lambda_3bd07e1a1191394380780325891bf33f>@@V<lambda_334532d3f185bcaa59b5be82d7d22bff>@@@?$__crt_seh_guarded_call@X@@QEAAX$$QEAV<lambda_46352004c1216016012b18bd6f87e700>@@AEAV<lambda_3bd07e1a1191394380780325891bf33f>@@$$QEAV<lambda_334532d3f185bcaa59b5be82d7d22bff>@@@Z 000000018001e8fc f i libucrt:per_thread_data.obj
 0001:0001d95c       ??$?RV<lambda_5e887d1dcbef67a5eb4283622ba103bf>@@AEAV<lambda_4466841279450cc726390878d4a41900>@@V<lambda_341c25c0346d94847f1f3c463c57e077>@@@?$__crt_seh_guarded_call@X@@QEAAX$$QEAV<lambda_5e887d1dcbef67a5eb4283622ba103bf>@@AEAV<lambda_4466841279450cc726390878d4a41900>@@$$QEAV<lambda_341c25c0346d94847f1f3c463c57e077>@@@Z 000000018001e95c f i libucrt:per_thread_data.obj
 0001:0001d9a4       ??$?RV<lambda_72d1df2b273a38828b1ce30cbf4cdab5>@@AEAV<lambda_876a65b173b8412d3a47c70a915b0cf4>@@V<lambda_41932305e351933ebe8f8be3ed8bb5dc>@@@?$__crt_seh_guarded_call@X@@QEAAX$$QEAV<lambda_72d1df2b273a38828b1ce30cbf4cdab5>@@AEAV<lambda_876a65b173b8412d3a47c70a915b0cf4>@@$$QEAV<lambda_41932305e351933ebe8f8be3ed8bb5dc>@@@Z 000000018001e9a4 f i libucrt:per_thread_data.obj
 0001:0001d9e4       ??$?RV<lambda_fb3a7dec4e47f37f22dae91bb15c9095>@@AEAV<lambda_698284760c8add0bfb0756c19673e34b>@@V<lambda_dfb8eca1e75fef3034a8fb18dd509707>@@@?$__crt_seh_guarded_call@X@@QEAAX$$QEAV<lambda_fb3a7dec4e47f37f22dae91bb15c9095>@@AEAV<lambda_698284760c8add0bfb0756c19673e34b>@@$$QEAV<lambda_dfb8eca1e75fef3034a8fb18dd509707>@@@Z 000000018001e9e4 f i libucrt:per_thread_data.obj
 0001:0001dc74       __acrt_freeptd             000000018001ec74 f   libucrt:per_thread_data.obj
 0001:0001dcb8       __acrt_getptd              000000018001ecb8 f   libucrt:per_thread_data.obj
 0001:0001dd4c       __acrt_getptd_noexit       000000018001ed4c f   libucrt:per_thread_data.obj
 0001:0001ddec       __acrt_initialize_ptd      000000018001edec f   libucrt:per_thread_data.obj
 0001:0001de28       __acrt_uninitialize_ptd    000000018001ee28 f   libucrt:per_thread_data.obj
 0001:0001dfec       __acrt_AreFileApisANSI     000000018001efec f   libucrt:winapi_thunks.obj
 0001:0001e038       __acrt_FlsAlloc            000000018001f038 f   libucrt:winapi_thunks.obj
 0001:0001e090       __acrt_FlsFree             000000018001f090 f   libucrt:winapi_thunks.obj
 0001:0001e0e8       __acrt_FlsGetValue         000000018001f0e8 f   libucrt:winapi_thunks.obj
 0001:0001e140       __acrt_FlsSetValue         000000018001f140 f   libucrt:winapi_thunks.obj
 0001:0001e1a8       __acrt_InitializeCriticalSectionEx 000000018001f1a8 f   libucrt:winapi_thunks.obj
 0001:0001e220       __acrt_LCMapStringEx       000000018001f220 f   libucrt:winapi_thunks.obj
 0001:0001e310       __acrt_LocaleNameToLCID    000000018001f310 f   libucrt:winapi_thunks.obj
 0001:0001e378       __acrt_MessageBoxW         000000018001f378 f   libucrt:winapi_thunks.obj
 0001:0001e400       __acrt_can_show_message_box 000000018001f400 f   libucrt:winapi_thunks.obj
 0001:0001e45c       __acrt_get_parent_window   000000018001f45c f   libucrt:winapi_thunks.obj
 0001:0001e4ec       __acrt_initialize_winapi_thunks 000000018001f4ec f   libucrt:winapi_thunks.obj
 0001:0001e524       __acrt_is_interactive      000000018001f524 f   libucrt:winapi_thunks.obj
 0001:0001e5f8       __acrt_is_packaged_app     000000018001f5f8 f   libucrt:winapi_thunks.obj
 0001:0001e680       __acrt_uninitialize_winapi_thunks 000000018001f680 f   libucrt:winapi_thunks.obj
 0001:0001e6c4       _fcloseall                 000000018001f6c4 f   libucrt:closeall.obj
 0001:0001e778       __acrt_stdio_free_buffer_nolock 000000018001f778 f   libucrt:_freebuf.obj
 0001:0001e9a0       __acrt_initialize_lowio    000000018001f9a0 f   libucrt:ioinit.obj
 0001:0001e9dc       __acrt_uninitialize_lowio  000000018001f9dc f   libucrt:ioinit.obj
 0001:0001ea1c       isdigit                    000000018001fa1c f i libucrt:_ctype.obj
 0001:0001eae0       _tolower_l                 000000018001fae0 f   libucrt:tolower_toupper.obj
 0001:0001ec20       tolower                    000000018001fc20 f   libucrt:tolower_toupper.obj
 0001:0001ec4c       ??$make_c_string_character_source@DPEAPEAD@__crt_strtox@@YA?AV?$c_string_character_source@D@0@QEBDQEAPEAD@Z 000000018001fc4c f i libucrt:strtox.obj
 0001:0001ec4c       ??$make_c_string_character_source@_WPEAPEA_W@__crt_strtox@@YA?AV?$c_string_character_source@_W@0@QEB_WQEAPEA_W@Z 000000018001fc4c f i libucrt:strtox.obj
 0001:0001ec60       strtol                     000000018001fc60 f   libucrt:strtox.obj
 0001:0001ec90       wcstol                     000000018001fc90 f   libucrt:strtox.obj
 0001:0001ecc0       _mbtowc_l                  000000018001fcc0 f   libucrt:mbtowc.obj
 0001:0001ee08       mbtowc                     000000018001fe08 f   libucrt:mbtowc.obj
 0001:0001ee10       _wctomb_s_l                000000018001fe10 f   libucrt:wctomb.obj
 0001:0001ef94       wctomb_s                   000000018001ff94 f   libucrt:wctomb.obj
 0001:0001efa8       strnlen                    000000018001ffa8 f   libucrt:strnlen.obj
 0001:0001f104       wcsnlen                    0000000180020104 f   libucrt:strnlen.obj
 0001:0001f2f4       __acrt_update_locale_info  00000001800202f4 f   libucrt:locale_update.obj
 0001:0001f328       __acrt_update_multibyte_info 0000000180020328 f   libucrt:locale_update.obj
 0001:0001f35c       ?__acrt_fp_classify@@YA?AW4__acrt_fp_class@@AEBN@Z 000000018002035c f i libucrt:cvt.obj
 0001:0001fd94       __acrt_fp_format           0000000180020d94 f   libucrt:cvt.obj
 0001:0001ffd8       _fputwc_nolock             0000000180020fd8 f   libucrt:fputwc.obj
 0001:00020154       _fileno                    0000000180021154 f   libucrt:fileno.obj
 0001:0002017c       _fputc_nolock              000000018002117c f   libucrt:fputc.obj
 0001:00020194       _get_printf_count_output   0000000180021194 f   libucrt:printf_count_output.obj
 0001:000201ac       __acrt_stdio_begin_temporary_buffering_nolock 00000001800211ac f   libucrt:_sftbuf.obj
 0001:0002027c       __acrt_stdio_end_temporary_buffering_nolock 000000018002127c f   libucrt:_sftbuf.obj
 0001:000202b8       __acrt_set_locale_changed  00000001800212b8 f   libucrt:wsetlocale.obj
 0001:000202c4       __acrt_uninitialize_locale 00000001800212c4 f   libucrt:wsetlocale.obj
 0001:0002030c       ?__acrt_stdio_allocate_stream@@YA?AV__crt_stdio_stream@@XZ 000000018002130c f   libucrt:stream.obj
 0001:00020368       ?__acrt_stdio_free_stream@@YAXV__crt_stdio_stream@@@Z 0000000180021368 f   libucrt:stream.obj
 0001:00020498       ??$__acrt_stdio_parse_mode@D@@YA?AU__acrt_stdio_stream_mode@@QEBD@Z 0000000180021498 f i libucrt:openfile.obj
 0001:00020734       _openfile                  0000000180021734 f   libucrt:openfile.obj
 0001:000207d0       ??$?RV<lambda_bfedae4ebbf01fab1bb6dcc6a9e276e0>@@AEAV<lambda_2fe9b910cf3cbf4a0ab98a02ba45b3ec>@@V<lambda_237c231691f317818eb88cc1d5d642d6>@@@?$__crt_seh_guarded_call@H@@QEAAH$$QEAV<lambda_bfedae4ebbf01fab1bb6dcc6a9e276e0>@@AEAV<lambda_2fe9b910cf3cbf4a0ab98a02ba45b3ec>@@$$QEAV<lambda_237c231691f317818eb88cc1d5d642d6>@@@Z 00000001800217d0 f i libucrt:close.obj
 0001:00020844       _close                     0000000180021844 f   libucrt:close.obj
 0001:000208e8       _close_nolock              00000001800218e8 f   libucrt:close.obj
 0001:00020e0c       _ftelli64_nolock           0000000180021e0c f   libucrt:ftell.obj
 0001:00020fa0       _lseeki64                  0000000180021fa0 f   libucrt:lseek.obj
 0001:00020fa8       _lseeki64_nolock           0000000180021fa8 f   libucrt:lseek.obj
 0001:000214e0       _read                      00000001800224e0 f   libucrt:read.obj
 0001:000215f8       _read_nolock               00000001800225f8 f   libucrt:read.obj
 0001:00021c08       __acrt_stdio_refill_and_read_narrow_nolock 0000000180022c08 f   libucrt:_filbuf.obj
 0001:00021c10       __acrt_initialize_locks    0000000180022c10 f   libucrt:locks.obj
 0001:00021c58       __acrt_lock                0000000180022c58 f   libucrt:locks.obj
 0001:00021c74       __acrt_uninitialize_locks  0000000180022c74 f   libucrt:locks.obj
 0001:00021cac       __acrt_unlock              0000000180022cac f   libucrt:locks.obj
 0001:000221a4       ?expand_if_necessary@?$argument_list@D@?A0xca0879c4@@AEAAHXZ 00000001800231a4 f i libucrt:argv_wildcards.obj
 0001:0002226c       __acrt_expand_narrow_argv_wildcards 000000018002326c f   libucrt:argv_wildcards.obj
 0001:00022274       ??$?RV<lambda_99476a1ad63dd22509b5d3e65b0ffc95>@@AEAV<lambda_ad1ced32f4ac17aa236e5ef05d6b3b7c>@@V<lambda_f7424dd8d45958661754dc4f2697e9c3>@@@?$__crt_seh_guarded_call@X@@QEAAX$$QEAV<lambda_99476a1ad63dd22509b5d3e65b0ffc95>@@AEAV<lambda_ad1ced32f4ac17aa236e5ef05d6b3b7c>@@$$QEAV<lambda_f7424dd8d45958661754dc4f2697e9c3>@@@Z 0000000180023274 f i libucrt:mbctype.obj
 0001:00022970       __acrt_initialize_multibyte 0000000180023970 f   libucrt:mbctype.obj
 0001:00022998       __acrt_update_thread_multibyte_data 0000000180023998 f   libucrt:mbctype.obj
 0001:00022a58       _setmbcp_nolock            0000000180023a58 f   libucrt:mbctype.obj
 0001:00022d78       _ismbblead                 0000000180023d78 f   libucrt:ismbbyte.obj
 0001:00022d8c       __acrt_initialize_command_line 0000000180023d8c f   libucrt:argv_data.obj
 0001:00022db4       __dcrt_get_narrow_environment_from_os 0000000180023db4 f   libucrt:get_environment_from_os.obj
 0001:00022eb8       _recalloc                  0000000180023eb8 f   libucrt:recalloc.obj
 0001:00022ec0       _recalloc_base             0000000180023ec0 f   libucrt:recalloc.obj
 0001:00022f58       __acrt_initialize_heap     0000000180023f58 f   libucrt:heap_handle.obj
 0001:00022f74       __acrt_uninitialize_heap   0000000180023f74 f   libucrt:heap_handle.obj
 0001:00022f80       __acrt_execute_initializers 0000000180023f80 f   libucrt:shared_initialization.obj
 0001:00023014       __acrt_execute_uninitializers 0000000180024014 f   libucrt:shared_initialization.obj
 0001:00023064       __acrt_has_user_matherr    0000000180024064 f   libucrt:matherr.obj
 0001:00023084       __acrt_initialize_user_matherr 0000000180024084 f   libucrt:matherr.obj
 0001:0002308c       __acrt_invoke_user_matherr 000000018002408c f   libucrt:matherr.obj
 0001:000230d4       _query_new_mode            00000001800240d4 f   libucrt:new_mode.obj
 0001:000230dc       __pctype_func              00000001800240dc f   libucrt:ctype.obj
 0001:0002310c       iswctype                   000000018002410c f   libucrt:iswctype.obj
 0001:0002317c       _isctype_l                 000000018002417c f   libucrt:isctype.obj
 0001:0002328c       ??$?RV<lambda_b521505b218e5242e90febf6bfebc422>@@AEAV<lambda_6978c1fb23f02e42e1d9e99668cc68aa>@@V<lambda_314360699dd331753a4119843814e9a7>@@@?$__crt_seh_guarded_call@H@@QEAAH$$QEAV<lambda_b521505b218e5242e90febf6bfebc422>@@AEAV<lambda_6978c1fb23f02e42e1d9e99668cc68aa>@@$$QEAV<lambda_314360699dd331753a4119843814e9a7>@@@Z 000000018002428c f i libucrt:commit.obj
 0001:00023318       _commit                    0000000180024318 f   libucrt:commit.obj
 0001:0002394c       _write                     000000018002494c f   libucrt:write.obj
 0001:00023a38       _write_nolock              0000000180024a38 f   libucrt:write.obj
 0001:00023d1c       _raise_exc                 0000000180024d1c f   libucrt:fpexcept.obj
 0001:00023d44       _raise_exc_ex              0000000180024d44 f   libucrt:fpexcept.obj
 0001:0002404c       _raise_excf                000000018002504c f   libucrt:fpexcept.obj
 0001:00024078       _set_errno_from_matherr    0000000180025078 f   libucrt:fpexcept.obj
 0001:000240a8       _clrfp                     00000001800250a8 f   libucrt:fpctrl.obj
 0001:000240c8       _ctrlfp                    00000001800250c8 f   libucrt:fpctrl.obj
 0001:00024144       _set_statfp                0000000180025144 f   libucrt:fpctrl.obj
 0001:00024164       _statfp                    0000000180025164 f   libucrt:fpctrl.obj
 0001:00024178       __acrt_add_locale_ref      0000000180025178 f   libucrt:locale_refcounting.obj
 0001:00024204       __acrt_free_locale         0000000180025204 f   libucrt:locale_refcounting.obj
 0001:0002437c       __acrt_locale_add_lc_time_reference 000000018002537c f   libucrt:locale_refcounting.obj
 0001:000243a4       __acrt_locale_free_lc_time_if_unreferenced 00000001800253a4 f   libucrt:locale_refcounting.obj
 0001:000243dc       __acrt_locale_release_lc_time_reference 00000001800253dc f   libucrt:locale_refcounting.obj
 0001:00024404       __acrt_release_locale_ref  0000000180025404 f   libucrt:locale_refcounting.obj
 0001:000244ac       __acrt_update_thread_locale_data 00000001800254ac f   libucrt:locale_refcounting.obj
 0001:0002451c       _updatetlocinfoEx_nolock   000000018002551c f   libucrt:locale_refcounting.obj
 0001:0002464c       __acrt_DownlevelLocaleNameToLCID 000000018002564c f   libucrt:lcidtoname_downlevel.obj
 0001:00024680       __acrt_lowio_create_handle_array 0000000180025680 f   libucrt:osfinfo.obj
 0001:00024718       __acrt_lowio_destroy_handle_array 0000000180025718 f   libucrt:osfinfo.obj
 0001:00024768       __acrt_lowio_ensure_fh_exists 0000000180025768 f   libucrt:osfinfo.obj
 0001:00024820       __acrt_lowio_lock_fh       0000000180025820 f   libucrt:osfinfo.obj
 0001:00024844       __acrt_lowio_set_os_handle 0000000180025844 f   libucrt:osfinfo.obj
 0001:00024904       __acrt_lowio_unlock_fh     0000000180025904 f   libucrt:osfinfo.obj
 0001:00024928       _alloc_osfhnd              0000000180025928 f   libucrt:osfinfo.obj
 0001:00024a58       _free_osfhnd               0000000180025a58 f   libucrt:osfinfo.obj
 0001:00024b14       _get_osfhandle             0000000180025b14 f   libucrt:osfinfo.obj
 0001:00024b8c       _isleadbyte_l              0000000180025b8c f i libucrt:_wctype.obj
 0001:00024f28       __acrt_LCMapStringA        0000000180025f28 f   libucrt:lcmapstringa.obj
 0001:00024fc0       __acrt_fp_strflt_to_string 0000000180025fc0 f   libucrt:_fptostr.obj
 0001:00025080       ?divide@__crt_strtox@@YA_KAEAUbig_integer@1@AEBU21@@Z 0000000180026080 f i libucrt:cfout.obj
 0001:00025550       __acrt_fltout              0000000180026550 f   libucrt:cfout.obj
 0001:00026b54       __acrt_stdio_flush_and_write_narrow_nolock 0000000180027b54 f   libucrt:_flsbuf.obj
 0001:00026c3c       __acrt_stdio_flush_and_write_wide_nolock 0000000180027c3c f   libucrt:_flsbuf.obj
 0001:00026d28       _isatty                    0000000180027d28 f   libucrt:isatty.obj
 0001:00026d88       __acrt_locale_free_monetary 0000000180027d88 f   libucrt:initmon.obj
 0001:00026e94       __acrt_locale_free_numeric 0000000180027e94 f   libucrt:initnum.obj
 0001:00026f58       __acrt_locale_free_time    0000000180027f58 f   libucrt:inittime.obj
 0001:00027060       __acrt_GetStringTypeA      0000000180028060 f   libucrt:getstringtypea.obj
 0001:00027230       strncmp                    0000000180028230 f   libucrt:strncmp.obj
 0001:000272b0       __ascii_strnicmp           00000001800282b0 f   libucrt:strnicmp.obj
 0001:000272f8       _strnicmp                  00000001800282f8 f   libucrt:strnicmp.obj
 0001:00027348       _strnicmp_l                0000000180028348 f   libucrt:strnicmp.obj
 0001:00027a68       _sopen_nolock              0000000180028a68 f   libucrt:open.obj
 0001:00027af8       _sopen_s                   0000000180028af8 f   libucrt:open.obj
 0001:00027b2c       _wsopen_nolock             0000000180028b2c f   libucrt:open.obj
 0001:00027f1c       __acrt_stdio_allocate_buffer_nolock 0000000180028f1c f   libucrt:_getbuf.obj
 0001:00028050       qsort                      0000000180029050 f   libucrt:qsort.obj
 0001:00028384       strncpy_s                  0000000180029384 f   libucrt:strncpy_s.obj
 0001:00028458       strpbrk                    0000000180029458 f   libucrt:strpbrk.obj
 0001:000284f8       _mbsdec                    00000001800294f8 f   libucrt:mbsdec.obj
 0001:00028500       _mbsdec_l                  0000000180029500 f   libucrt:mbsdec.obj
 0001:000285b0       _msize                     00000001800295b0 f   libucrt:msize.obj
 0001:000285ec       _putwch_nolock             00000001800295ec f   libucrt:putwch.obj
 0001:00028660       _get_fpsr                  0000000180029660 f   libucrt:fpsr.obj
 0001:00028670       _set_fpsr                  0000000180029670 f   libucrt:fpsr.obj
 0001:0002867a       _fclrf                     000000018002967a f   libucrt:fpsr.obj
 0001:0002868e       _frnd                      000000018002968e f   libucrt:fpsr.obj
 0001:000286b0       __strncnt                  00000001800296b0 f   libucrt:strncnt.obj
 0001:000286c8       fegetenv                   00000001800296c8 f   libucrt:fegetenv.obj
 0001:000286e8       fesetenv                   00000001800296e8 f   libucrt:fesetenv.obj
 0001:00028734       feholdexcept               0000000180029734 f   libucrt:feholdexcept.obj
 0001:00028784       ceil                       0000000180029784 f   libucrt:ceil.obj
 0001:00028850       log10                      0000000180029850 f   libucrt:log10.obj
 0001:00028dfc       _get_fmode                 0000000180029dfc f   libucrt:setmode.obj
 0001:00028e2c       _setmode_nolock            0000000180029e2c f   libucrt:setmode.obj
 0001:00028f0c       __acrt_copy_path_to_wide_string 0000000180029f0c f   libucrt:string_utilities.obj
 0001:00029004       _chsize_nolock             000000018002a004 f   libucrt:chsize.obj
 0001:00029180       __dcrt_lowio_initialize_console_output 000000018002a180 f   libucrt:initcon.obj
 0001:000291bc       __dcrt_terminate_console_output 000000018002a1bc f   libucrt:initcon.obj
 0001:000291dc       _getfpcontrolword          000000018002a1dc f   libucrt:_fenvutils.obj
 0001:000291f4       _getfpstatusword           000000018002a1f4 f   libucrt:_fenvutils.obj
 0001:00029208       _setfpcontrolword          000000018002a208 f   libucrt:_fenvutils.obj
 0001:00029214       _setfpstatusword           000000018002a214 f   libucrt:_fenvutils.obj
 0001:00029264       _clearfp                   000000018002a264 f   libucrt:ieee.obj
 0001:000292b8       _controlfp                 000000018002a2b8 f   libucrt:ieee.obj
 0001:000292c4       _statusfp                  000000018002a2c4 f   libucrt:ieee.obj
 0001:000295b0       __acrt_initialize_fma3     000000018002a5b0 f   libucrt:fma3_available.obj
 0001:00029620       _log10_special             000000018002a620 f   libucrt:log_special.obj
 0001:000296d6       IsProcessorFeaturePresent  000000018002a6d6 f   kernel32:KERNEL32.dll
 0001:000296dc       RtlUnwindEx                000000018002a6dc f   kernel32:KERNEL32.dll
 0001:000296e4       ?DloadAcquireSectionWriteAccess@@YAXXZ 000000018002a6e4 f i DelayImp:delayhlp.obj
 0001:000297a0       ?DloadGetSRWLockFunctionPointers@@YAEXZ 000000018002a7a0 f i DelayImp:delayhlp.obj
 0001:0002983c       ?DloadMakePermanentImageCommit@@YAXPEAX_K@Z 000000018002a83c f i DelayImp:delayhlp.obj
 0001:000298d4       ?DloadObtainSection@@YAPEAXPEAK0@Z 000000018002a8d4 f i DelayImp:delayhlp.obj
 0001:0002996c       ?DloadProtectSection@@YAXKPEAK@Z 000000018002a96c f i DelayImp:delayhlp.obj
 0001:000299fc       ?DloadReleaseSectionWriteAccess@@YAXXZ 000000018002a9fc f i DelayImp:delayhlp.obj
 0001:00029aa0       __delayLoadHelper2         000000018002aaa0 f   DelayImp:delayhlp.obj
 0001:00029da0       _FindPESection             000000018002ada0 f   LIBCMT:pesect.obj
 0001:00029df0       _IsNonwritableInCurrentImage 000000018002adf0 f   LIBCMT:pesect.obj
 0001:00029e40       _ValidateImageBase         000000018002ae40 f   LIBCMT:pesect.obj
 0001:00029e70       __GSHandlerCheck           000000018002ae70 f   LIBCMT:_gshandler_.obj
 0001:00029e90       __GSHandlerCheckCommon     000000018002ae90 f   LIBCMT:_gshandler_.obj
 0001:00029f00       __chkstk                   000000018002af00 f   LIBCMT:_chkstk_.obj
 0001:00029f00       _alloca_probe              000000018002af00 f   LIBCMT:_chkstk_.obj
 0001:00029f54       strrchr                    000000018002af54 f   libvcruntime:strrchr.obj
 0001:0002a0b0       memcmp                     000000018002b0b0 f   libvcruntime:memcmp.obj
 0001:0002a178       __GSHandlerCheck_EH        000000018002b178 f   LIBCMT:gshandlereh.obj
 0001:0002a200       acos                       000000018002b200 f   libucrt:acos.obj
 0001:0002a4c0       acosf                      000000018002b4c0 f   libucrt:acosf.obj
 0001:0002a730       floor                      000000018002b730 f   libucrt:floor.obj
 0001:0002a7e0       fmodf                      000000018002b7e0 f   libucrt:fmodf.obj
 0001:0002aa24       sqrtf                      000000018002ba24 f   libucrt:sqrtf.obj
 0001:0002aae0       strcmp                     000000018002bae0 f   libucrt:strcmp.obj
 0001:0002ab50       tan                        000000018002bb50 f   libucrt:tan.obj
 0001:0002b38c       _tan_special               000000018002c38c f   libucrt:sincos_special.obj
 0001:0002b3a0       __remainder_piby2_fma3     000000018002c3a0 f   libucrt:remainder_piby2_forfma3.obj
 0001:0002b590       __remainder_piby2_fma3_bdl 000000018002c590 f   libucrt:remainder_piby2_forfma3.obj
 0001:0002b610       __remainder_piby2_forAsm   000000018002c610 f   libucrt:remainder_piby2_forasm.obj
 0001:0002b820       __remainder_piby2_cw_forAsm 000000018002c820 f   libucrt:remainder_piby2_forasm.obj
 0001:0002b970       _guard_dispatch_icall_nop  000000018002c970 f   LIBCMT:_guard_dispatch_.obj
 0001:0002b990       __longjmp_internal         000000018002c990 f   libvcruntime:_longjmp_.obj
 0001:0002ba90       __intrinsic_setjmp         000000018002ca90 f   libvcruntime:_setjmp_.obj
 0001:0002ba90       _setjmp                    000000018002ca90 f   libvcruntime:_setjmp_.obj
 0001:0002bb30       setjmp                     000000018002cb30 f   libvcruntime:_setjmp_.obj
 0002:00000000       __imp_GetModuleHandleA     000000018002e000     kernel32:KERNEL32.dll
 0002:00000008       __imp_VirtualQuery         000000018002e008     kernel32:KERNEL32.dll
 0002:00000010       __imp_VirtualProtect       000000018002e010     kernel32:KERNEL32.dll
 0002:00000018       __imp_GetSystemInfo        000000018002e018     kernel32:KERNEL32.dll
 0002:00000020       __imp_SetEndOfFile         000000018002e020     kernel32:KERNEL32.dll
 0002:00000028       __imp_HeapSize             000000018002e028     kernel32:KERNEL32.dll
 0002:00000030       __imp_CreateFileW          000000018002e030     kernel32:KERNEL32.dll
 0002:00000038       __imp_SetStdHandle         000000018002e038     kernel32:KERNEL32.dll
 0002:00000040       __imp_GetConsoleCP         000000018002e040     kernel32:KERNEL32.dll
 0002:00000048       __imp_FlushFileBuffers     000000018002e048     kernel32:KERNEL32.dll
 0002:00000050       __imp_GetStringTypeW       000000018002e050     kernel32:KERNEL32.dll
 0002:00000058       __imp_GetProcessHeap       000000018002e058     kernel32:KERNEL32.dll
 0002:00000060       __imp_FreeEnvironmentStringsW 000000018002e060     kernel32:KERNEL32.dll
 0002:00000068       __imp_GetEnvironmentStringsW 000000018002e068     kernel32:KERNEL32.dll
 0002:00000070       __imp_GetCommandLineW      000000018002e070     kernel32:KERNEL32.dll
 0002:00000078       __imp_GetCommandLineA      000000018002e078     kernel32:KERNEL32.dll
 0002:00000080       __imp_GetCPInfo            000000018002e080     kernel32:KERNEL32.dll
 0002:00000088       __imp_GetOEMCP             000000018002e088     kernel32:KERNEL32.dll
 0002:00000090       __imp_IsValidCodePage      000000018002e090     kernel32:KERNEL32.dll
 0002:00000098       __imp_FindNextFileA        000000018002e098     kernel32:KERNEL32.dll
 0002:000000a0       __imp_FindFirstFileExA     000000018002e0a0     kernel32:KERNEL32.dll
 0002:000000a8       __imp_FindClose            000000018002e0a8     kernel32:KERNEL32.dll
 0002:000000b0       __imp_ReadConsoleW         000000018002e0b0     kernel32:KERNEL32.dll
 0002:000000b8       __imp_GetConsoleMode       000000018002e0b8     kernel32:KERNEL32.dll
 0002:000000c0       __imp_SetFilePointerEx     000000018002e0c0     kernel32:KERNEL32.dll
 0002:000000c8       __imp_ReadFile             000000018002e0c8     kernel32:KERNEL32.dll
 0002:000000d0       __imp_GetACP               000000018002e0d0     kernel32:KERNEL32.dll
 0002:000000d8       __imp_LCMapStringW         000000018002e0d8     kernel32:KERNEL32.dll
 0002:000000e0       __imp_CreateThread         000000018002e0e0     kernel32:KERNEL32.dll
 0002:000000e8       __imp_WaitForSingleObjectEx 000000018002e0e8     kernel32:KERNEL32.dll
 0002:000000f0       __imp_CloseHandle          000000018002e0f0     kernel32:KERNEL32.dll
 0002:000000f8       __imp_OutputDebugStringW   000000018002e0f8     kernel32:KERNEL32.dll
 0002:00000100       __imp_WriteFile            000000018002e100     kernel32:KERNEL32.dll
 0002:00000108       __imp_HeapReAlloc          000000018002e108     kernel32:KERNEL32.dll
 0002:00000110       __imp_HeapAlloc            000000018002e110     kernel32:KERNEL32.dll
 0002:00000118       __imp_HeapFree             000000018002e118     kernel32:KERNEL32.dll
 0002:00000120       __imp_WideCharToMultiByte  000000018002e120     kernel32:KERNEL32.dll
 0002:00000128       __imp_MultiByteToWideChar  000000018002e128     kernel32:KERNEL32.dll
 0002:00000130       __imp_ExitProcess          000000018002e130     kernel32:KERNEL32.dll
 0002:00000138       __imp_WriteConsoleW        000000018002e138     kernel32:KERNEL32.dll
 0002:00000140       __imp_GetModuleHandleExW   000000018002e140     kernel32:KERNEL32.dll
 0002:00000148       __imp_GetModuleFileNameW   000000018002e148     kernel32:KERNEL32.dll
 0002:00000150       __imp_GetModuleFileNameA   000000018002e150     kernel32:KERNEL32.dll
 0002:00000158       __imp_GetFileType          000000018002e158     kernel32:KERNEL32.dll
 0002:00000160       __imp_GetStdHandle         000000018002e160     kernel32:KERNEL32.dll
 0002:00000168       __imp_LoadLibraryExW       000000018002e168     kernel32:KERNEL32.dll
 0002:00000170       __imp_GetProcAddress       000000018002e170     kernel32:KERNEL32.dll
 0002:00000178       __imp_FreeLibrary          000000018002e178     kernel32:KERNEL32.dll
 0002:00000180       __imp_TlsFree              000000018002e180     kernel32:KERNEL32.dll
 0002:00000188       __imp_TlsSetValue          000000018002e188     kernel32:KERNEL32.dll
 0002:00000190       __imp_TlsGetValue          000000018002e190     kernel32:KERNEL32.dll
 0002:00000198       __imp_TlsAlloc             000000018002e198     kernel32:KERNEL32.dll
 0002:000001a0       __imp_InitializeCriticalSectionAndSpinCount 000000018002e1a0     kernel32:KERNEL32.dll
 0002:000001a8       __imp_DeleteCriticalSection 000000018002e1a8     kernel32:KERNEL32.dll
 0002:000001b0       __imp_LeaveCriticalSection 000000018002e1b0     kernel32:KERNEL32.dll
 0002:000001b8       __imp_EnterCriticalSection 000000018002e1b8     kernel32:KERNEL32.dll
 0002:000001c0       __imp_SetLastError         000000018002e1c0     kernel32:KERNEL32.dll
 0002:000001c8       __imp_GetLastError         000000018002e1c8     kernel32:KERNEL32.dll
 0002:000001d0       __imp_InterlockedFlushSList 000000018002e1d0     kernel32:KERNEL32.dll
 0002:000001d8       __imp_RtlUnwindEx          000000018002e1d8     kernel32:KERNEL32.dll
 0002:000001e0       __imp_RaiseException       000000018002e1e0     kernel32:KERNEL32.dll
 0002:000001e8       __imp_EncodePointer        000000018002e1e8     kernel32:KERNEL32.dll
 0002:000001f0       __imp_RtlPcToFileHeader    000000018002e1f0     kernel32:KERNEL32.dll
 0002:000001f8       __imp_InitializeSListHead  000000018002e1f8     kernel32:KERNEL32.dll
 0002:00000200       __imp_GetSystemTimeAsFileTime 000000018002e200     kernel32:KERNEL32.dll
 0002:00000208       __imp_GetCurrentThreadId   000000018002e208     kernel32:KERNEL32.dll
 0002:00000210       __imp_GetCurrentProcessId  000000018002e210     kernel32:KERNEL32.dll
 0002:00000218       __imp_QueryPerformanceCounter 000000018002e218     kernel32:KERNEL32.dll
 0002:00000220       __imp_GetModuleHandleW     000000018002e220     kernel32:KERNEL32.dll
 0002:00000228       __imp_GetStartupInfoW      000000018002e228     kernel32:KERNEL32.dll
 0002:00000230       __imp_IsDebuggerPresent    000000018002e230     kernel32:KERNEL32.dll
 0002:00000238       __imp_IsProcessorFeaturePresent 000000018002e238     kernel32:KERNEL32.dll
 0002:00000240       __imp_TerminateProcess     000000018002e240     kernel32:KERNEL32.dll
 0002:00000248       __imp_GetCurrentProcess    000000018002e248     kernel32:KERNEL32.dll
 0002:00000250       __imp_SetUnhandledExceptionFilter 000000018002e250     kernel32:KERNEL32.dll
 0002:00000258       __imp_UnhandledExceptionFilter 000000018002e258     kernel32:KERNEL32.dll
 0002:00000260       __imp_RtlVirtualUnwind     000000018002e260     kernel32:KERNEL32.dll
 0002:00000268       __imp_RtlLookupFunctionEntry 000000018002e268     kernel32:KERNEL32.dll
 0002:00000270       __imp_RtlCaptureContext    000000018002e270     kernel32:KERNEL32.dll
 0002:00000278       __imp_LoadLibraryExA       000000018002e278     kernel32:KERNEL32.dll
 0002:00000280       \177KERNEL32_NULL_THUNK_DATA 000000018002e280     kernel32:KERNEL32.dll
 0002:00000288       __imp_cairo_set_source_rgba 000000018002e288     cairo:libcairo-2.dll
 0002:00000290       __imp_cairo_image_surface_get_stride 000000018002e290     cairo:libcairo-2.dll
 0002:00000298       __imp_cairo_image_surface_get_format 000000018002e298     cairo:libcairo-2.dll
 0002:000002a0       __imp_cairo_destroy        000000018002e2a0     cairo:libcairo-2.dll
 0002:000002a8       __imp_cairo_surface_finish 000000018002e2a8     cairo:libcairo-2.dll
 0002:000002b0       __imp_cairo_image_surface_get_data 000000018002e2b0     cairo:libcairo-2.dll
 0002:000002b8       __imp_cairo_pdf_surface_set_size 000000018002e2b8     cairo:libcairo-2.dll
 0002:000002c0       __imp_cairo_image_surface_get_height 000000018002e2c0     cairo:libcairo-2.dll
 0002:000002c8       __imp_cairo_pdf_surface_create_for_stream 000000018002e2c8     cairo:libcairo-2.dll
 0002:000002d0       __imp_cairo_image_surface_create 000000018002e2d0     cairo:libcairo-2.dll
 0002:000002d8       __imp_cairo_status_to_string 000000018002e2d8     cairo:libcairo-2.dll
 0002:000002e0       __imp_cairo_surface_flush  000000018002e2e0     cairo:libcairo-2.dll
 0002:000002e8       __imp_cairo_svg_surface_create_for_stream 000000018002e2e8     cairo:libcairo-2.dll
 0002:000002f0       __imp_cairo_surface_status 000000018002e2f0     cairo:libcairo-2.dll
 0002:000002f8       __imp_cairo_image_surface_get_width 000000018002e2f8     cairo:libcairo-2.dll
 0002:00000300       __imp_cairo_create         000000018002e300     cairo:libcairo-2.dll
 0002:00000308       __imp_cairo_pattern_add_color_stop_rgba 000000018002e308     cairo:libcairo-2.dll
 0002:00000310       __imp_cairo_pattern_create_radial 000000018002e310     cairo:libcairo-2.dll
 0002:00000318       __imp_cairo_version_string 000000018002e318     cairo:libcairo-2.dll
 0002:00000320       __imp_cairo_image_surface_create_from_png_stream 000000018002e320     cairo:libcairo-2.dll
 0002:00000328       __imp_cairo_image_surface_create_from_png 000000018002e328     cairo:libcairo-2.dll
 0002:00000330       __imp_cairo_curve_to       000000018002e330     cairo:libcairo-2.dll
 0002:00000338       __imp_cairo_translate      000000018002e338     cairo:libcairo-2.dll
 0002:00000340       __imp_cairo_get_current_point 000000018002e340     cairo:libcairo-2.dll
 0002:00000348       __imp_cairo_set_miter_limit 000000018002e348     cairo:libcairo-2.dll
 0002:00000350       __imp_cairo_set_line_width 000000018002e350     cairo:libcairo-2.dll
 0002:00000358       __imp_cairo_clip_preserve  000000018002e358     cairo:libcairo-2.dll
 0002:00000360       __imp_cairo_get_line_width 000000018002e360     cairo:libcairo-2.dll
 0002:00000368       __imp_cairo_arc            000000018002e368     cairo:libcairo-2.dll
 0002:00000370       __imp_cairo_close_path     000000018002e370     cairo:libcairo-2.dll
 0002:00000378       __imp_cairo_transform      000000018002e378     cairo:libcairo-2.dll
 0002:00000380       __imp_cairo_set_dash       000000018002e380     cairo:libcairo-2.dll
 0002:00000388       __imp_cairo_get_dash_count 000000018002e388     cairo:libcairo-2.dll
 0002:00000390       __imp_cairo_set_antialias  000000018002e390     cairo:libcairo-2.dll
 0002:00000398       __imp_cairo_paint_with_alpha 000000018002e398     cairo:libcairo-2.dll
 0002:000003a0       __imp_cairo_in_stroke      000000018002e3a0     cairo:libcairo-2.dll
 0002:000003a8       __imp_cairo_get_line_join  000000018002e3a8     cairo:libcairo-2.dll
 0002:000003b0       __imp_cairo_identity_matrix 000000018002e3b0     cairo:libcairo-2.dll
 0002:000003b8       __imp_cairo_new_path       000000018002e3b8     cairo:libcairo-2.dll
 0002:000003c0       __imp_cairo_append_path    000000018002e3c0     cairo:libcairo-2.dll
 0002:000003c8       __imp_cairo_get_miter_limit 000000018002e3c8     cairo:libcairo-2.dll
 0002:000003d0       __imp_cairo_get_dash       000000018002e3d0     cairo:libcairo-2.dll
 0002:000003d8       __imp_cairo_pop_group_to_source 000000018002e3d8     cairo:libcairo-2.dll
 0002:000003e0       __imp_cairo_text_extents   000000018002e3e0     cairo:libcairo-2.dll
 0002:000003e8       __imp_cairo_matrix_init    000000018002e3e8     cairo:libcairo-2.dll
 0002:000003f0       __imp_cairo_stroke_extents 000000018002e3f0     cairo:libcairo-2.dll
 0002:000003f8       __imp_cairo_rotate         000000018002e3f8     cairo:libcairo-2.dll
 0002:00000400       __imp_cairo_fill_preserve  000000018002e400     cairo:libcairo-2.dll
 0002:00000408       __imp_cairo_set_font_size  000000018002e408     cairo:libcairo-2.dll
 0002:00000410       __imp_cairo_surface_mark_dirty 000000018002e410     cairo:libcairo-2.dll
 0002:00000418       __imp_cairo_show_text      000000018002e418     cairo:libcairo-2.dll
 0002:00000420       __imp_cairo_user_to_device_distance 000000018002e420     cairo:libcairo-2.dll
 0002:00000428       __imp_cairo_scale          000000018002e428     cairo:libcairo-2.dll
 0002:00000430       __imp_cairo_set_source     000000018002e430     cairo:libcairo-2.dll
 0002:00000438       __imp_cairo_copy_path_flat 000000018002e438     cairo:libcairo-2.dll
 0002:00000440       __imp_cairo_surface_destroy 000000018002e440     cairo:libcairo-2.dll
 0002:00000448       __imp_cairo_get_antialias  000000018002e448     cairo:libcairo-2.dll
 0002:00000450       __imp_cairo_clip           000000018002e450     cairo:libcairo-2.dll
 0002:00000458       __imp_cairo_text_path      000000018002e458     cairo:libcairo-2.dll
 0002:00000460       __imp_cairo_get_operator   000000018002e460     cairo:libcairo-2.dll
 0002:00000468       __imp_cairo_pattern_set_extend 000000018002e468     cairo:libcairo-2.dll
 0002:00000470       __imp_cairo_get_line_cap   000000018002e470     cairo:libcairo-2.dll
 0002:00000478       __imp_cairo_move_to        000000018002e478     cairo:libcairo-2.dll
 0002:00000480       __imp_cairo_stroke         000000018002e480     cairo:libcairo-2.dll
 0002:00000488       __imp_cairo_push_group     000000018002e488     cairo:libcairo-2.dll
 0002:00000490       __imp_cairo_paint          000000018002e490     cairo:libcairo-2.dll
 0002:00000498       __imp_cairo_set_fill_rule  000000018002e498     cairo:libcairo-2.dll
 0002:000004a0       __imp_cairo_line_to        000000018002e4a0     cairo:libcairo-2.dll
 0002:000004a8       __imp_cairo_font_extents   000000018002e4a8     cairo:libcairo-2.dll
 0002:000004b0       __imp_cairo_restore        000000018002e4b0     cairo:libcairo-2.dll
 0002:000004b8       __imp_cairo_show_page      000000018002e4b8     cairo:libcairo-2.dll
 0002:000004c0       __imp_cairo_fill_extents   000000018002e4c0     cairo:libcairo-2.dll
 0002:000004c8       __imp_cairo_pattern_set_filter 000000018002e4c8     cairo:libcairo-2.dll
 0002:000004d0       __imp_cairo_mask_surface   000000018002e4d0     cairo:libcairo-2.dll
 0002:000004d8       __imp_cairo_get_source     000000018002e4d8     cairo:libcairo-2.dll
 0002:000004e0       __imp_cairo_set_line_cap   000000018002e4e0     cairo:libcairo-2.dll
 0002:000004e8       __imp_cairo_fill           000000018002e4e8     cairo:libcairo-2.dll
 0002:000004f0       __imp_cairo_set_source_surface 000000018002e4f0     cairo:libcairo-2.dll
 0002:000004f8       __imp_cairo_pattern_get_filter 000000018002e4f8     cairo:libcairo-2.dll
 0002:00000500       __imp_cairo_set_line_join  000000018002e500     cairo:libcairo-2.dll
 0002:00000508       __imp_cairo_rectangle      000000018002e508     cairo:libcairo-2.dll
 0002:00000510       __imp_cairo_stroke_preserve 000000018002e510     cairo:libcairo-2.dll
 0002:00000518       __imp_cairo_arc_negative   000000018002e518     cairo:libcairo-2.dll
 0002:00000520       __imp_cairo_get_matrix     000000018002e520     cairo:libcairo-2.dll
 0002:00000528       __imp_cairo_save           000000018002e528     cairo:libcairo-2.dll
 0002:00000530       __imp_cairo_surface_mark_dirty_rectangle 000000018002e530     cairo:libcairo-2.dll
 0002:00000538       __imp_cairo_set_operator   000000018002e538     cairo:libcairo-2.dll
 0002:00000540       __imp_cairo_select_font_face 000000018002e540     cairo:libcairo-2.dll
 0002:00000548       __imp_cairo_in_fill        000000018002e548     cairo:libcairo-2.dll
 0002:00000550       __imp_cairo_path_destroy   000000018002e550     cairo:libcairo-2.dll
 0002:00000558       __imp_cairo_pattern_create_for_surface 000000018002e558     cairo:libcairo-2.dll
 0002:00000560       __imp_cairo_pattern_destroy 000000018002e560     cairo:libcairo-2.dll
 0002:00000568       __imp_cairo_pattern_create_linear 000000018002e568     cairo:libcairo-2.dll
 0002:00000570       \177libcairo-2_NULL_THUNK_DATA 000000018002e570     cairo:libcairo-2.dll
 0002:00000578       __imp_png_create_write_struct_2 000000018002e578     libpng:libpng14-14.dll
 0002:00000580       __imp_png_error            000000018002e580     libpng:libpng14-14.dll
 0002:00000588       __imp_png_write_end        000000018002e588     libpng:libpng14-14.dll
 0002:00000590       __imp_png_set_filler       000000018002e590     libpng:libpng14-14.dll
 0002:00000598       __imp_png_create_info_struct 000000018002e598     libpng:libpng14-14.dll
 0002:000005a0       __imp_png_set_write_fn     000000018002e5a0     libpng:libpng14-14.dll
 0002:000005a8       __imp_png_set_IHDR         000000018002e5a8     libpng:libpng14-14.dll
 0002:000005b0       __imp_png_set_compression_level 000000018002e5b0     libpng:libpng14-14.dll
 0002:000005b8       __imp_png_set_filter       000000018002e5b8     libpng:libpng14-14.dll
 0002:000005c0       __imp_png_write_image      000000018002e5c0     libpng:libpng14-14.dll
 0002:000005c8       __imp_png_set_packswap     000000018002e5c8     libpng:libpng14-14.dll
 0002:000005d0       __imp_png_write_info       000000018002e5d0     libpng:libpng14-14.dll
 0002:000005d8       __imp_png_get_io_ptr       000000018002e5d8     libpng:libpng14-14.dll
 0002:000005e0       __imp_png_set_longjmp_fn   000000018002e5e0     libpng:libpng14-14.dll
 0002:000005e8       __imp_png_set_write_user_transform_fn 000000018002e5e8     libpng:libpng14-14.dll
 0002:000005f0       __imp_png_set_bKGD         000000018002e5f0     libpng:libpng14-14.dll
 0002:000005f8       __imp_png_destroy_write_struct 000000018002e5f8     libpng:libpng14-14.dll
 0002:00000600       __imp_png_get_error_ptr    000000018002e600     libpng:libpng14-14.dll
 0002:00000608       \177libpng14-14_NULL_THUNK_DATA 000000018002e608     libpng:libpng14-14.dll
 0002:00000610       __guard_check_icall_fptr   000000018002e610     LIBCMT:guard_support.obj
 0002:00000618       __guard_dispatch_icall_fptr 000000018002e618     LIBCMT:guard_support.obj
 0002:00000620       __xc_a                     000000018002e620     LIBCMT:initializers.obj
 0002:00000658       _register_canvas_          000000018002e658     init.obj
 0002:00000660       __xc_z                     000000018002e660     LIBCMT:initializers.obj
 0002:00000668       __xi_a                     000000018002e668     LIBCMT:initializers.obj
 0002:00000670       __acrt_stdio_initializer   000000018002e670     libucrt:stdio_initializer.obj
 0002:00000678       __acrt_multibyte_initializer 000000018002e678     libucrt:multibyte_initializer.obj
 0002:00000680       __acrt_tran_fma3_initializer 000000018002e680     libucrt:fma3_initializer.obj
 0002:00000688       __xi_z                     000000018002e688     LIBCMT:initializers.obj
 0002:00000690       __xp_a                     000000018002e690     LIBCMT:initializers.obj
 0002:00000698       __acrt_locale_terminator   000000018002e698     libucrt:locale_initializer.obj
 0002:000006a0       __dcrt_console_output_terminator 000000018002e6a0     libucrt:console_output_initializer.obj
 0002:000006a8       __acrt_stdio_terminator    000000018002e6a8     libucrt:stdio_initializer.obj
 0002:000006b0       __xp_z                     000000018002e6b0     LIBCMT:initializers.obj
 0002:000006b8       __xt_a                     000000018002e6b8     LIBCMT:initializers.obj
 0002:000006c0       __xt_z                     000000018002e6c0     LIBCMT:initializers.obj
 0002:000006d0       __sz_node_exe              000000018002e6d0     node:node.exe
 0002:000006e8       ??_7exception@std@@6B@     000000018002e6e8     libcpmt:xthrow.obj
 0002:000006f8       ??_C@_0BC@EOODALEL@Unknown?5exception?$AA@ 000000018002e6f8     libcpmt:xthrow.obj
 0002:00000718       ??_7bad_alloc@std@@6B@     000000018002e718     libcpmt:xthrow.obj
 0002:00000728       ??_C@_0P@GHFPNOJB@bad?5allocation?$AA@ 000000018002e728     libcpmt:xthrow.obj
 0002:00000740       ??_7logic_error@std@@6B@   000000018002e740     libcpmt:xthrow.obj
 0002:00000758       ??_7length_error@std@@6B@  000000018002e758     libcpmt:xthrow.obj
 0002:00000768       _pDefaultRawDllMain        000000018002e768     LIBCMT:dll_dllmain.obj
 0002:00000768       _pRawDllMain               000000018002e768     LIBCMT:dll_dllmain.obj
 0002:00000778       ??_7type_info@@6B@         000000018002e778     LIBCMT:std_type_info_static.obj
 0002:00000798       ??_7bad_array_new_length@std@@6B@ 000000018002e798     LIBCMT:throw_bad_alloc.obj
 0002:000007a8       ??_C@_0BF@KINCDENJ@bad?5array?5new?5length?$AA@ 000000018002e7a8     LIBCMT:throw_bad_alloc.obj
 0002:000007c0       _pDestructExceptionObject  000000018002e7c0     libvcruntime:frame.obj
 0002:000007d0       ??_7bad_exception@std@@6B@ 000000018002e7d0     libvcruntime:frame.obj
 0002:000007e0       ??_C@_0O@DPKOEFFH@bad?5exception?$AA@ 000000018002e7e0     libvcruntime:frame.obj
 0002:000008e8       ??_C@_1BC@DNHGCMLG@?$AAa?$AAd?$AAv?$AAa?$AAp?$AAi?$AA3?$AA2?$AA?$AA@ 000000018002e8e8     libvcruntime:winapi_downlevel.obj
 0002:00000900       ??_C@_1DM@KHCHBNEB@?$AAa?$AAp?$AAi?$AA?9?$AAm?$AAs?$AA?9?$AAw?$AAi?$AAn?$AA?9?$AAc?$AAo?$AAr?$AAe?$AA?9?$AAf?$AAi?$AAb?$AAe?$AAr?$AAs?$AA?9?$AAl?$AA1?$AA?9?$AA1?$AA?9?$AA1?$AA?$AA@ 000000018002e900     libvcruntime:winapi_downlevel.obj
 0002:00000940       ??_C@_1DK@LPPGFMPP@?$AAa?$AAp?$AAi?$AA?9?$AAm?$AAs?$AA?9?$AAw?$AAi?$AAn?$AA?9?$AAc?$AAo?$AAr?$AAe?$AA?9?$AAs?$AAy?$AAn?$AAc?$AAh?$AA?9?$AAl?$AA1?$AA?9?$AA2?$AA?9?$AA0?$AA?$AA@ 000000018002e940     libvcruntime:winapi_downlevel.obj
 0002:00000980       ??_C@_1BC@GDMECMAK@?$AAk?$AAe?$AAr?$AAn?$AAe?$AAl?$AA3?$AA2?$AA?$AA@ 000000018002e980     libvcruntime:winapi_downlevel.obj
 0002:000009a0       ??_C@_08KNHFBNJ@FlsAlloc?$AA@ 000000018002e9a0     libvcruntime:winapi_downlevel.obj
 0002:000009b8       ??_C@_07PEJMOBNF@FlsFree?$AA@ 000000018002e9b8     libvcruntime:winapi_downlevel.obj
 0002:000009c8       ??_C@_0M@GDNOONDI@FlsGetValue?$AA@ 000000018002e9c8     libvcruntime:winapi_downlevel.obj
 0002:000009e0       ??_C@_0M@JCPCPOEF@FlsSetValue?$AA@ 000000018002e9e0     libvcruntime:winapi_downlevel.obj
 0002:000009f8       ??_C@_0BM@HCFOFFN@InitializeCriticalSectionEx?$AA@ 000000018002e9f8     libvcruntime:winapi_downlevel.obj
 0002:00000d40       ??_C@_08EHJDFFNH@__based?$CI?$AA@ 000000018002ed40     libvcruntime:undname.obj
 0002:00000d50       ??_C@_07KOLFKCDI@__cdecl?$AA@ 000000018002ed50     libvcruntime:undname.obj
 0002:00000d58       ??_C@_08GHMPAG@__pascal?$AA@ 000000018002ed58     libvcruntime:undname.obj
 0002:00000d68       ??_C@_09IFJBGAPI@__stdcall?$AA@ 000000018002ed68     libvcruntime:undname.obj
 0002:00000d78       ??_C@_0L@NPHFGOKO@__thiscall?$AA@ 000000018002ed78     libvcruntime:undname.obj
 0002:00000d88       ??_C@_0L@JMKHOMEK@__fastcall?$AA@ 000000018002ed88     libvcruntime:undname.obj
 0002:00000d98       ??_C@_0N@BCKKPABJ@__vectorcall?$AA@ 000000018002ed98     libvcruntime:undname.obj
 0002:00000da8       ??_C@_09HIJEGCPM@__clrcall?$AA@ 000000018002eda8     libvcruntime:undname.obj
 0002:00000db4       ??_C@_06GHPCKEAG@__eabi?$AA@ 000000018002edb4     libvcruntime:undname.obj
 0002:00000dc0       ??_C@_07JOMMBBKO@__ptr64?$AA@ 000000018002edc0     libvcruntime:undname.obj
 0002:00000dc8       ??_C@_0L@PILCLIHE@__restrict?$AA@ 000000018002edc8     libvcruntime:undname.obj
 0002:00000dd8       ??_C@_0M@GFIIJFMG@__unaligned?$AA@ 000000018002edd8     libvcruntime:undname.obj
 0002:00000de8       ??_C@_09DHDLOLLB@restrict?$CI?$AA@ 000000018002ede8     libvcruntime:undname.obj
 0002:00000df4       ??_C@_04NIHEBCM@?5new?$AA@ 000000018002edf4     libvcruntime:undname.obj
 0002:00000e00       ??_C@_07FPCDHGMM@?5delete?$AA@ 000000018002ee00     libvcruntime:undname.obj
 0002:00000e08       ??_C@_01NEMOKFLO@?$DN?$AA@ 000000018002ee08     libvcruntime:undname.obj
 0002:00000e0c       ??_C@_02GPIOPFAK@?$DO?$DO?$AA@ 000000018002ee0c     libvcruntime:undname.obj
 0002:00000e10       ??_C@_02FODMEDOG@?$DM?$DM?$AA@ 000000018002ee10     libvcruntime:undname.obj
 0002:00000e14       ??_C@_01DCLJPIOD@?$CB?$AA@ 000000018002ee14     libvcruntime:undname.obj
 0002:00000e18       ??_C@_02EGOFBIJA@?$DN?$DN?$AA@ 000000018002ee18     libvcruntime:undname.obj
 0002:00000e1c       ??_C@_02FDNJECIE@?$CB?$DN?$AA@ 000000018002ee1c     libvcruntime:undname.obj
 0002:00000e20       ??_C@_02GPECMEKF@?$FL?$FN?$AA@ 000000018002ee20     libvcruntime:undname.obj
 0002:00000e28       ??_C@_08LHJFAFGD@operator?$AA@ 000000018002ee28     libvcruntime:undname.obj
 0002:00000e34       ??_C@_02HBOOOICD@?9?$DO?$AA@ 000000018002ee34     libvcruntime:undname.obj
 0002:00000e38       ??_C@_01NBENCBCI@?$CK?$AA@ 000000018002ee38     libvcruntime:undname.obj
 0002:00000e3c       ??_C@_02ECNGHCIF@?$CL?$CL?$AA@ 000000018002ee3c     libvcruntime:undname.obj
 0002:00000e40       ??_C@_02BAABKJLB@?9?9?$AA@ 000000018002ee40     libvcruntime:undname.obj
 0002:00000e44       ??_C@_01JOAMLHOP@?9?$AA@   000000018002ee44     libvcruntime:undname.obj
 0002:00000e48       ??_C@_01MIFGBAGJ@?$CL?$AA@ 000000018002ee48     libvcruntime:undname.obj
 0002:00000e4c       ??_C@_01HNPIGOCE@?$CG?$AA@ 000000018002ee4c     libvcruntime:undname.obj
 0002:00000e50       ??_C@_03MNHNFDLC@?9?$DO?$CK?$AA@ 000000018002ee50     libvcruntime:undname.obj
 0002:00000e54       ??_C@_01KMDKNFGN@?1?$AA@   000000018002ee54     libvcruntime:undname.obj
 0002:00000e58       ??_C@_01FGNFDNOH@?$CF?$AA@ 000000018002ee58     libvcruntime:undname.obj
 0002:00000e5c       ??_C@_01MNNFJEPP@?$DM?$AA@ 000000018002ee5c     libvcruntime:undname.obj
 0002:00000e60       ??_C@_02EHCHHCKH@?$DM?$DN?$AA@ 000000018002ee60     libvcruntime:undname.obj
 0002:00000e64       ??_C@_01PPODPGHN@?$DO?$AA@ 000000018002ee64     libvcruntime:undname.obj
 0002:00000e68       ??_C@_02EEKDKGMJ@?$DO?$DN?$AA@ 000000018002ee68     libvcruntime:undname.obj
 0002:00000e6c       ??_C@_01IHBHIGKO@?0?$AA@   000000018002ee6c     libvcruntime:undname.obj
 0002:00000e70       ??_C@_02HCKGKOFO@?$CI?$CJ?$AA@ 000000018002ee70     libvcruntime:undname.obj
 0002:00000e74       ??_C@_01PJKLJHI@?$HO?$AA@  000000018002ee74     libvcruntime:undname.obj
 0002:00000e78       ??_C@_01JKBOJNNK@?$FO?$AA@ 000000018002ee78     libvcruntime:undname.obj
 0002:00000e7c       ??_C@_01DNKMNLPK@?$HM?$AA@ 000000018002ee7c     libvcruntime:undname.obj
 0002:00000e80       ??_C@_02PPKAJPJL@?$CG?$CG?$AA@ 000000018002ee80     libvcruntime:undname.obj
 0002:00000e84       ??_C@_02NONPIBCD@?$HM?$HM?$AA@ 000000018002ee84     libvcruntime:undname.obj
 0002:00000e88       ??_C@_02FPIMKNGF@?$CK?$DN?$AA@ 000000018002ee88     libvcruntime:undname.obj
 0002:00000e8c       ??_C@_02FOEOMHFC@?$CL?$DN?$AA@ 000000018002ee8c     libvcruntime:undname.obj
 0002:00000e90       ??_C@_02FKMDLLOA@?9?$DN?$AA@ 000000018002ee90     libvcruntime:undname.obj
 0002:00000e94       ??_C@_02FJEHGPIO@?1?$DN?$AA@ 000000018002ee94     libvcruntime:undname.obj
 0002:00000e98       ??_C@_02FENAOKFI@?$CF?$DN?$AA@ 000000018002ee98     libvcruntime:undname.obj
 0002:00000e9c       ??_C@_03IKFCCPFF@?$DO?$DO?$DN?$AA@ 000000018002ee9c     libvcruntime:undname.obj
 0002:00000ea0       ??_C@_03CDNPDDLA@?$DM?$DM?$DN?$AA@ 000000018002eea0     libvcruntime:undname.obj
 0002:00000ea4       ??_C@_02FGJGFEAB@?$CG?$DN?$AA@ 000000018002eea4     libvcruntime:undname.obj
 0002:00000ea8       ??_C@_02DHLNPPGH@?$HM?$DN?$AA@ 000000018002eea8     libvcruntime:undname.obj
 0002:00000eac       ??_C@_02MHEGNOJ@?$FO?$DN?$AA@ 000000018002eeac     libvcruntime:undname.obj
 0002:00000eb0       ??_C@_09IFPLHPGF@?$GAvftable?8?$AA@ 000000018002eeb0     libvcruntime:undname.obj
 0002:00000ec0       ??_C@_09BLBHBJP@?$GAvbtable?8?$AA@ 000000018002eec0     libvcruntime:undname.obj
 0002:00000ed0       ??_C@_07FEEIOKP@?$GAvcall?8?$AA@ 000000018002eed0     libvcruntime:undname.obj
 0002:00000ed8       ??_C@_08LLFFHHDJ@?$GAtypeof?8?$AA@ 000000018002eed8     libvcruntime:undname.obj
 0002:00000ee8       ??_C@_0BF@KDPPACIK@?$GAlocal?5static?5guard?8?$AA@ 000000018002eee8     libvcruntime:undname.obj
 0002:00000f00       ??_C@_08OBABFOLI@?$GAstring?8?$AA@ 000000018002ef00     libvcruntime:undname.obj
 0002:00000f10       ??_C@_0BD@JDLKDPAB@?$GAvbase?5destructor?8?$AA@ 000000018002ef10     libvcruntime:undname.obj
 0002:00000f28       ??_C@_0BN@DEGPLNFK@?$GAvector?5deleting?5destructor?8?$AA@ 000000018002ef28     libvcruntime:undname.obj
 0002:00000f48       ??_C@_0BO@OBMKPJIG@?$GAdefault?5constructor?5closure?8?$AA@ 000000018002ef48     libvcruntime:undname.obj
 0002:00000f68       ??_C@_0BN@IMDCHIKM@?$GAscalar?5deleting?5destructor?8?$AA@ 000000018002ef68     libvcruntime:undname.obj
 0002:00000f88       ??_C@_0BO@PFGOCPJJ@?$GAvector?5constructor?5iterator?8?$AA@ 000000018002ef88     libvcruntime:undname.obj
 0002:00000fa8       ??_C@_0BN@LFPFMEDL@?$GAvector?5destructor?5iterator?8?$AA@ 000000018002efa8     libvcruntime:undname.obj
 0002:00000fc8       ??_C@_0CE@IKBNEHA@?$GAvector?5vbase?5constructor?5iterat@ 000000018002efc8     libvcruntime:undname.obj
 0002:00000ff0       ??_C@_0BL@NILFHHPC@?$GAvirtual?5displacement?5map?8?$AA@ 000000018002eff0     libvcruntime:undname.obj
 0002:00001010       ??_C@_0CB@JONCMFFK@?$GAeh?5vector?5constructor?5iterator?8@ 000000018002f010     libvcruntime:undname.obj
 0002:00001038       ??_C@_0CA@GCEOPDGL@?$GAeh?5vector?5destructor?5iterator?8?$AA@ 000000018002f038     libvcruntime:undname.obj
 0002:00001058       ??_C@_0CH@OOJPLCPH@?$GAeh?5vector?5vbase?5constructor?5ite@ 000000018002f058     libvcruntime:undname.obj
 0002:00001080       ??_C@_0BL@LLKPOHJI@?$GAcopy?5constructor?5closure?8?$AA@ 000000018002f080     libvcruntime:undname.obj
 0002:000010a0       ??_C@_0BA@KBCDOMBN@?$GAudt?5returning?8?$AA@ 000000018002f0a0     libvcruntime:undname.obj
 0002:000010b0       ??_C@_03KLGMFNMG@?$GAEH?$AA@ 000000018002f0b0     libvcruntime:undname.obj
 0002:000010b4       ??_C@_05KHLCHHI@?$GARTTI?$AA@ 000000018002f0b4     libvcruntime:undname.obj
 0002:000010c0       ??_C@_0BA@KKLDJDLB@?$GAlocal?5vftable?8?$AA@ 000000018002f0c0     libvcruntime:undname.obj
 0002:000010d0       ??_C@_0CE@IIHCMGGL@?$GAlocal?5vftable?5constructor?5closu@ 000000018002f0d0     libvcruntime:undname.obj
 0002:000010f4       ??_C@_06FHBGPFGH@?5new?$FL?$FN?$AA@ 000000018002f0f4     libvcruntime:undname.obj
 0002:00001100       ??_C@_09LBNFPBCA@?5delete?$FL?$FN?$AA@ 000000018002f100     libvcruntime:undname.obj
 0002:00001110       ??_C@_0P@HJKNJFNN@?$GAomni?5callsig?8?$AA@ 000000018002f110     libvcruntime:undname.obj
 0002:00001120       ??_C@_0BL@CNOONJFP@?$GAplacement?5delete?5closure?8?$AA@ 000000018002f120     libvcruntime:undname.obj
 0002:00001140       ??_C@_0BN@CKNJLHMB@?$GAplacement?5delete?$FL?$FN?5closure?8?$AA@ 000000018002f140     libvcruntime:undname.obj
 0002:00001160       ??_C@_0CG@CFDHKGGD@?$GAmanaged?5vector?5constructor?5iter@ 000000018002f160     libvcruntime:undname.obj
 0002:00001188       ??_C@_0CF@IMGKMJNO@?$GAmanaged?5vector?5destructor?5itera@ 000000018002f188     libvcruntime:undname.obj
 0002:000011b0       ??_C@_0CG@HLDDJMAG@?$GAeh?5vector?5copy?5constructor?5iter@ 000000018002f1b0     libvcruntime:undname.obj
 0002:000011d8       ??_C@_0CM@FCBBDIGB@?$GAeh?5vector?5vbase?5copy?5constructo@ 000000018002f1d8     libvcruntime:undname.obj
 0002:00001208       ??_C@_0BL@CLIPGLGB@?$GAdynamic?5initializer?5for?5?8?$AA@ 000000018002f208     libvcruntime:undname.obj
 0002:00001228       ??_C@_0CB@PDBIFEP@?$GAdynamic?5atexit?5destructor?5for?5?8@ 000000018002f228     libvcruntime:undname.obj
 0002:00001250       ??_C@_0CD@CGAJBKEJ@?$GAvector?5copy?5constructor?5iterato@ 000000018002f250     libvcruntime:undname.obj
 0002:00001278       ??_C@_0CJ@GJELGAMM@?$GAvector?5vbase?5copy?5constructor?5i@ 000000018002f278     libvcruntime:undname.obj
 0002:000012a8       ??_C@_0CL@FGIJHLCE@?$GAmanaged?5vector?5copy?5constructor@ 000000018002f2a8     libvcruntime:undname.obj
 0002:000012d8       ??_C@_0BM@PMGGMLDN@?$GAlocal?5static?5thread?5guard?8?$AA@ 000000018002f2d8     libvcruntime:undname.obj
 0002:000012f8       ??_C@_0N@BDNMDMOL@operator?5?$CC?$CC?5?$AA@ 000000018002f2f8     libvcruntime:undname.obj
 0002:00001308       ??_C@_0BC@DAFEJGAK@?5Type?5Descriptor?8?$AA@ 000000018002f308     libvcruntime:undname.obj
 0002:00001320       ??_C@_0BM@LDKODKLH@?5Base?5Class?5Descriptor?5at?5?$CI?$AA@ 000000018002f320     libvcruntime:undname.obj
 0002:00001340       ??_C@_0BD@LGICGFMM@?5Base?5Class?5Array?8?$AA@ 000000018002f340     libvcruntime:undname.obj
 0002:00001358       ??_C@_0BN@MECKDCOJ@?5Class?5Hierarchy?5Descriptor?8?$AA@ 000000018002f358     libvcruntime:undname.obj
 0002:00001378       ??_C@_0BK@CFCOFLF@?5Complete?5Object?5Locator?8?$AA@ 000000018002f378     libvcruntime:undname.obj
 0002:000013a0       ??_C@_1EK@MBDPDCGA@?$AAM?$AAi?$AAc?$AAr?$AAo?$AAs?$AAo?$AAf?$AAt?$AA?5?$AAV?$AAi?$AAs?$AAu?$AAa?$AAl?$AA?5?$AAC?$AA?$CL?$AA?$CL?$AA?5?$AAR?$AAu?$AAn?$AAt?$AAi?$AAm?$AAe?$AA?5?$AAL?$AAi?$AAb@ 000000018002f3a0     libucrt:assert.obj
 0002:000013f0       ??_C@_1FE@LHBLIKM@?$AAA?$AAs?$AAs?$AAe?$AAr?$AAt?$AAi?$AAo?$AAn?$AA?5?$AAf?$AAa?$AAi?$AAl?$AAe?$AAd?$AA?3?$AA?5?$AA?$CF?$AAT?$AAs?$AA?0?$AA?5?$AAf?$AAi?$AAl?$AAe?$AA?5?$AA?$CF?$AAT?$AAs?$AA?0@ 000000018002f3f0     libucrt:assert.obj
 0002:00001448       ??_C@_1CE@OJBNHDMO@?$AAA?$AAs?$AAs?$AAe?$AAr?$AAt?$AAi?$AAo?$AAn?$AA?5?$AAf?$AAa?$AAi?$AAl?$AAe?$AAd?$AA?$CB?$AA?$AA@ 000000018002f448     libucrt:assert.obj
 0002:00001470       ??_C@_1BE@PHKBBGE@?$AAP?$AAr?$AAo?$AAg?$AAr?$AAa?$AAm?$AA?3?$AA?5?$AA?$AA@ 000000018002f470     libucrt:assert.obj
 0002:00001488       ??_C@_1O@HEMHKNDC@?$AAF?$AAi?$AAl?$AAe?$AA?3?$AA?5?$AA?$AA@ 000000018002f488     libucrt:assert.obj
 0002:00001498       ??_C@_1O@KCAFKHJE@?$AAL?$AAi?$AAn?$AAe?$AA?3?$AA?5?$AA?$AA@ 000000018002f498     libucrt:assert.obj
 0002:000014a8       ??_C@_1BK@PEDCIPMA@?$AAE?$AAx?$AAp?$AAr?$AAe?$AAs?$AAs?$AAi?$AAo?$AAn?$AA?3?$AA?5?$AA?$AA@ 000000018002f4a8     libucrt:assert.obj
 0002:000014d0       ??_C@_1OA@EGMLFBHJ@?$AAF?$AAo?$AAr?$AA?5?$AAi?$AAn?$AAf?$AAo?$AAr?$AAm?$AAa?$AAt?$AAi?$AAo?$AAn?$AA?5?$AAo?$AAn?$AA?5?$AAh?$AAo?$AAw?$AA?5?$AAy?$AAo?$AAu?$AAr?$AA?5?$AAp?$AAr?$AAo?$AAg@ 000000018002f4d0     libucrt:assert.obj
 0002:000015b0       ??_C@_1HK@POCJMFGK@?$AA?$CI?$AAP?$AAr?$AAe?$AAs?$AAs?$AA?5?$AAR?$AAe?$AAt?$AAr?$AAy?$AA?5?$AAt?$AAo?$AA?5?$AAd?$AAe?$AAb?$AAu?$AAg?$AA?5?$AAt?$AAh?$AAe?$AA?5?$AAa?$AAp?$AAp?$AAl?$AAi?$AAc@ 000000018002f5b0     libucrt:assert.obj
 0002:00001630       ??_C@_17LGKOMLJ@?$AA?4?$AA?4?$AA?4?$AA?$AA@ 000000018002f630     libucrt:assert.obj
 0002:00001638       ??_C@_13LBAGMAIH@?$AA?6?$AA?$AA@ 000000018002f638     libucrt:assert.obj
 0002:0000163c       ??_C@_15IABLJNFO@?$AA?6?$AA?6?$AA?$AA@ 000000018002f63c     libucrt:assert.obj
 0002:00001648       ??_C@_1CO@EAEJAADC@?$AA?$DM?$AAp?$AAr?$AAo?$AAg?$AAr?$AAa?$AAm?$AA?5?$AAn?$AAa?$AAm?$AAe?$AA?5?$AAu?$AAn?$AAk?$AAn?$AAo?$AAw?$AAn?$AA?$DO?$AA?$AA@ 000000018002f648     libucrt:assert.obj
 0002:00001680       standard_lookup_table      000000018002f680     libucrt:output.obj
 0002:000016dc       ??_C@_06OJHGLDPL@?$CInull?$CJ?$AA@ 000000018002f6dc     libucrt:output.obj
 0002:000016e8       ??_C@_1O@CEDCILHN@?$AA?$CI?$AAn?$AAu?$AAl?$AAl?$AA?$CJ?$AA?$AA@ 000000018002f6e8     libucrt:output.obj
 0002:00001700       __acrt_exception_action_table 000000018002f700     libucrt:exception_filter.obj
 0002:000017c0       __acrt_signal_action_table_count 000000018002f7c0     libucrt:exception_filter.obj
 0002:000017c8       __acrt_signal_action_first_fpe_index 000000018002f7c8     libucrt:exception_filter.obj
 0002:000017d0       __acrt_signal_action_fpe_count 000000018002f7d0     libucrt:exception_filter.obj
 0002:000017d8       ??_C@_1BI@BGOHAHKC@?$AAm?$AAs?$AAc?$AAo?$AAr?$AAe?$AAe?$AA?4?$AAd?$AAl?$AAl?$AA?$AA@ 000000018002f7d8     libucrt:exit.obj
 0002:000017f0       ??_C@_0P@MIGLKIOC@CorExitProcess?$AA@ 000000018002f7f0     libucrt:exit.obj
 0002:00001b00       ??_C@_1EG@CNNIPFIM@?$AAa?$AAp?$AAi?$AA?9?$AAm?$AAs?$AA?9?$AAw?$AAi?$AAn?$AA?9?$AAa?$AAp?$AAp?$AAm?$AAo?$AAd?$AAe?$AAl?$AA?9?$AAr?$AAu?$AAn?$AAt?$AAi?$AAm?$AAe?$AA?9?$AAl?$AA1?$AA?9?$AA1@ 000000018002fb00     libucrt:winapi_thunks.obj
 0002:00001b50       ??_C@_1EA@JGEFHKEI@?$AAa?$AAp?$AAi?$AA?9?$AAm?$AAs?$AA?9?$AAw?$AAi?$AAn?$AA?9?$AAc?$AAo?$AAr?$AAe?$AA?9?$AAd?$AAa?$AAt?$AAe?$AAt?$AAi?$AAm?$AAe?$AA?9?$AAl?$AA1?$AA?9?$AA1?$AA?9?$AA1?$AA?$AA@ 000000018002fb50     libucrt:winapi_thunks.obj
 0002:00001b90       ??_C@_1DI@GCIAAENM@?$AAa?$AAp?$AAi?$AA?9?$AAm?$AAs?$AA?9?$AAw?$AAi?$AAn?$AA?9?$AAc?$AAo?$AAr?$AAe?$AA?9?$AAf?$AAi?$AAl?$AAe?$AA?9?$AAl?$AA2?$AA?9?$AA1?$AA?9?$AA1?$AA?$AA@ 000000018002fb90     libucrt:winapi_thunks.obj
 0002:00001bd0       ??_C@_1EI@MPIAOHOC@?$AAa?$AAp?$AAi?$AA?9?$AAm?$AAs?$AA?9?$AAw?$AAi?$AAn?$AA?9?$AAc?$AAo?$AAr?$AAe?$AA?9?$AAl?$AAo?$AAc?$AAa?$AAl?$AAi?$AAz?$AAa?$AAt?$AAi?$AAo?$AAn?$AA?9?$AAl?$AA1?$AA?9@ 000000018002fbd0     libucrt:winapi_thunks.obj
 0002:00001c20       ??_C@_1FK@FPHCKFIE@?$AAa?$AAp?$AAi?$AA?9?$AAm?$AAs?$AA?9?$AAw?$AAi?$AAn?$AA?9?$AAc?$AAo?$AAr?$AAe?$AA?9?$AAl?$AAo?$AAc?$AAa?$AAl?$AAi?$AAz?$AAa?$AAt?$AAi?$AAo?$AAn?$AA?9?$AAo?$AAb?$AAs@ 000000018002fc20     libucrt:winapi_thunks.obj
 0002:00001c80       ??_C@_1EM@DILCGIIO@?$AAa?$AAp?$AAi?$AA?9?$AAm?$AAs?$AA?9?$AAw?$AAi?$AAn?$AA?9?$AAc?$AAo?$AAr?$AAe?$AA?9?$AAp?$AAr?$AAo?$AAc?$AAe?$AAs?$AAs?$AAt?$AAh?$AAr?$AAe?$AAa?$AAd?$AAs?$AA?9?$AAl@ 000000018002fc80     libucrt:winapi_thunks.obj
 0002:00001cd0       ??_C@_1DM@LNCGDDPN@?$AAa?$AAp?$AAi?$AA?9?$AAm?$AAs?$AA?9?$AAw?$AAi?$AAn?$AA?9?$AAc?$AAo?$AAr?$AAe?$AA?9?$AAs?$AAt?$AAr?$AAi?$AAn?$AAg?$AA?9?$AAl?$AA1?$AA?9?$AA1?$AA?9?$AA0?$AA?$AA@ 000000018002fcd0     libucrt:winapi_thunks.obj
 0002:00001d10       ??_C@_1DO@FPAPJEMD@?$AAa?$AAp?$AAi?$AA?9?$AAm?$AAs?$AA?9?$AAw?$AAi?$AAn?$AA?9?$AAc?$AAo?$AAr?$AAe?$AA?9?$AAs?$AAy?$AAs?$AAi?$AAn?$AAf?$AAo?$AA?9?$AAl?$AA1?$AA?9?$AA2?$AA?9?$AA1?$AA?$AA@ 000000018002fd10     libucrt:winapi_thunks.obj
 0002:00001d50       ??_C@_1DK@NDHNAHIO@?$AAa?$AAp?$AAi?$AA?9?$AAm?$AAs?$AA?9?$AAw?$AAi?$AAn?$AA?9?$AAc?$AAo?$AAr?$AAe?$AA?9?$AAw?$AAi?$AAn?$AAr?$AAt?$AA?9?$AAl?$AA1?$AA?9?$AA1?$AA?9?$AA0?$AA?$AA@ 000000018002fd50     libucrt:winapi_thunks.obj
 0002:00001d90       ??_C@_1DM@KGHDGBCM@?$AAa?$AAp?$AAi?$AA?9?$AAm?$AAs?$AA?9?$AAw?$AAi?$AAn?$AA?9?$AAc?$AAo?$AAr?$AAe?$AA?9?$AAx?$AAs?$AAt?$AAa?$AAt?$AAe?$AA?9?$AAl?$AA2?$AA?9?$AA1?$AA?9?$AA0?$AA?$AA@ 000000018002fd90     libucrt:winapi_thunks.obj
 0002:00001dd0       ??_C@_1EO@IJIOEFOH@?$AAa?$AAp?$AAi?$AA?9?$AAm?$AAs?$AA?9?$AAw?$AAi?$AAn?$AA?9?$AAr?$AAt?$AAc?$AAo?$AAr?$AAe?$AA?9?$AAn?$AAt?$AAu?$AAs?$AAe?$AAr?$AA?9?$AAw?$AAi?$AAn?$AAd?$AAo?$AAw?$AA?9@ 000000018002fdd0     libucrt:winapi_thunks.obj
 0002:00001e20       ??_C@_1FG@HHGEKANL@?$AAa?$AAp?$AAi?$AA?9?$AAm?$AAs?$AA?9?$AAw?$AAi?$AAn?$AA?9?$AAs?$AAe?$AAc?$AAu?$AAr?$AAi?$AAt?$AAy?$AA?9?$AAs?$AAy?$AAs?$AAt?$AAe?$AAm?$AAf?$AAu?$AAn?$AAc?$AAt?$AAi@ 000000018002fe20     libucrt:winapi_thunks.obj
 0002:00001e80       ??_C@_1FG@NCKKOLKO@?$AAe?$AAx?$AAt?$AA?9?$AAm?$AAs?$AA?9?$AAw?$AAi?$AAn?$AA?9?$AAk?$AAe?$AAr?$AAn?$AAe?$AAl?$AA3?$AA2?$AA?9?$AAp?$AAa?$AAc?$AAk?$AAa?$AAg?$AAe?$AA?9?$AAc?$AAu?$AAr?$AAr@ 000000018002fe80     libucrt:winapi_thunks.obj
 0002:00001ee0       ??_C@_1EG@DBIOJECG@?$AAe?$AAx?$AAt?$AA?9?$AAm?$AAs?$AA?9?$AAw?$AAi?$AAn?$AA?9?$AAn?$AAt?$AAu?$AAs?$AAe?$AAr?$AA?9?$AAd?$AAi?$AAa?$AAl?$AAo?$AAg?$AAb?$AAo?$AAx?$AA?9?$AAl?$AA1?$AA?9?$AA1@ 000000018002fee0     libucrt:winapi_thunks.obj
 0002:00001f30       ??_C@_1EO@FIHMJCLF@?$AAe?$AAx?$AAt?$AA?9?$AAm?$AAs?$AA?9?$AAw?$AAi?$AAn?$AA?9?$AAn?$AAt?$AAu?$AAs?$AAe?$AAr?$AA?9?$AAw?$AAi?$AAn?$AAd?$AAo?$AAw?$AAs?$AAt?$AAa?$AAt?$AAi?$AAo?$AAn?$AA?9@ 000000018002ff30     libucrt:winapi_thunks.obj
 0002:00001f80       ??_C@_1O@BCCLBEOE@?$AAu?$AAs?$AAe?$AAr?$AA3?$AA2?$AA?$AA@ 000000018002ff80     libucrt:winapi_thunks.obj
 0002:00001f98       ??_C@_0BA@FHFNEAED@AreFileApisANSI?$AA@ 000000018002ff98     libucrt:winapi_thunks.obj
 0002:00001fd0       ??_C@_0BA@HNOPNCHB@GetActiveWindow?$AA@ 000000018002ffd0     libucrt:winapi_thunks.obj
 0002:00001fe8       ??_C@_0BE@JOGNEJCI@GetCurrentPackageId?$AA@ 000000018002ffe8     libucrt:winapi_thunks.obj
 0002:00002008       ??_C@_0BD@HHGDFDBJ@GetLastActivePopup?$AA@ 0000000180030008     libucrt:winapi_thunks.obj
 0002:00002028       ??_C@_0BI@DFKBFLJE@GetProcessWindowStation?$AA@ 0000000180030028     libucrt:winapi_thunks.obj
 0002:00002048       ??_C@_0BK@DEKFELLI@GetUserObjectInformationW?$AA@ 0000000180030048     libucrt:winapi_thunks.obj
 0002:00002078       ??_C@_0O@KKBNKAPF@LCMapStringEx?$AA@ 0000000180030078     libucrt:winapi_thunks.obj
 0002:00002090       ??_C@_0BB@HBDEELFH@LocaleNameToLCID?$AA@ 0000000180030090     libucrt:winapi_thunks.obj
 0002:000020b0       ??_C@_0M@CHKKJDAI@MessageBoxA?$AA@ 00000001800300b0     libucrt:winapi_thunks.obj
 0002:000020c8       ??_C@_0M@DLDCCGNP@MessageBoxW?$AA@ 00000001800300c8     libucrt:winapi_thunks.obj
 0002:000020d4       ??_C@_03OEIAHPBN@INF?$AA@  00000001800300d4     libucrt:cvt.obj
 0002:000020d8       ??_C@_03OJHLLCGB@inf?$AA@  00000001800300d8     libucrt:cvt.obj
 0002:000020dc       ??_C@_03LKNCIKJB@NAN?$AA@  00000001800300dc     libucrt:cvt.obj
 0002:000020e0       ??_C@_03LHCJEHON@nan?$AA@  00000001800300e0     libucrt:cvt.obj
 0002:000020e8       ??_C@_09OFJJIMPC@NAN?$CISNAN?$CJ?$AA@ 00000001800300e8     libucrt:cvt.obj
 0002:000020f8       ??_C@_09IPFBKMDL@nan?$CIsnan?$CJ?$AA@ 00000001800300f8     libucrt:cvt.obj
 0002:00002108       ??_C@_08IKHNHAJ@NAN?$CIIND?$CJ?$AA@ 0000000180030108     libucrt:cvt.obj
 0002:00002118       ??_C@_08OFCDMILK@nan?$CIind?$CJ?$AA@ 0000000180030118     libucrt:cvt.obj
 0002:00002124       ??_C@_05KLBDPFGC@e?$CL000?$AA@ 0000000180030124     libucrt:cvt.obj
 0002:00002130       __lc_time_c                0000000180030130     libucrt:nlsdata.obj
 0002:000023f0       ??_C@_03KOEHGMDN@Sun?$AA@  00000001800303f0     libucrt:nlsdata.obj
 0002:000023f4       ??_C@_03PDAGKDH@Mon?$AA@   00000001800303f4     libucrt:nlsdata.obj
 0002:000023f8       ??_C@_03NAGEINEP@Tue?$AA@  00000001800303f8     libucrt:nlsdata.obj
 0002:000023fc       ??_C@_03MHOMLAJA@Wed?$AA@  00000001800303fc     libucrt:nlsdata.obj
 0002:00002400       ??_C@_03IOFIKPDN@Thu?$AA@  0000000180030400     libucrt:nlsdata.obj
 0002:00002404       ??_C@_03IDIOELNC@Fri?$AA@  0000000180030404     libucrt:nlsdata.obj
 0002:00002408       ??_C@_03FEFJNEK@Sat?$AA@   0000000180030408     libucrt:nlsdata.obj
 0002:0000240c       ??_C@_06OOPIFAJ@Sunday?$AA@ 000000018003040c     libucrt:nlsdata.obj
 0002:00002414       ??_C@_06JLEDEDGH@Monday?$AA@ 0000000180030414     libucrt:nlsdata.obj
 0002:00002420       ??_C@_07BAAGCFCM@Tuesday?$AA@ 0000000180030420     libucrt:nlsdata.obj
 0002:00002428       ??_C@_09DLIGFAKA@Wednesday?$AA@ 0000000180030428     libucrt:nlsdata.obj
 0002:00002438       ??_C@_08HACCIKIA@Thursday?$AA@ 0000000180030438     libucrt:nlsdata.obj
 0002:00002444       ??_C@_06JECMNKMI@Friday?$AA@ 0000000180030444     libucrt:nlsdata.obj
 0002:00002450       ??_C@_08INBOOONO@Saturday?$AA@ 0000000180030450     libucrt:nlsdata.obj
 0002:0000245c       ??_C@_03JIHJHPIE@Jan?$AA@  000000018003045c     libucrt:nlsdata.obj
 0002:00002460       ??_C@_03HJBDCHOM@Feb?$AA@  0000000180030460     libucrt:nlsdata.obj
 0002:00002464       ??_C@_03ODNJBKGA@Mar?$AA@  0000000180030464     libucrt:nlsdata.obj
 0002:00002468       ??_C@_03LEOLGMJP@Apr?$AA@  0000000180030468     libucrt:nlsdata.obj
 0002:0000246c       ??_C@_03CNMDKL@May?$AA@    000000018003046c     libucrt:nlsdata.obj
 0002:00002470       ??_C@_03IDFGHECI@Jun?$AA@  0000000180030470     libucrt:nlsdata.obj
 0002:00002474       ??_C@_03LBGABGKK@Jul?$AA@  0000000180030474     libucrt:nlsdata.obj
 0002:00002478       ??_C@_03IFJFEIGA@Aug?$AA@  0000000180030478     libucrt:nlsdata.obj
 0002:0000247c       ??_C@_03GGCAPAJC@Sep?$AA@  000000018003047c     libucrt:nlsdata.obj
 0002:00002480       ??_C@_03BMAOKBAD@Oct?$AA@  0000000180030480     libucrt:nlsdata.obj
 0002:00002484       ??_C@_03JPJOFNIA@Nov?$AA@  0000000180030484     libucrt:nlsdata.obj
 0002:00002488       ??_C@_03MKABNOCG@Dec?$AA@  0000000180030488     libucrt:nlsdata.obj
 0002:00002490       ??_C@_07CGJPFGJA@January?$AA@ 0000000180030490     libucrt:nlsdata.obj
 0002:00002498       ??_C@_08GNJGEPFN@February?$AA@ 0000000180030498     libucrt:nlsdata.obj
 0002:000024a4       ??_C@_05HPCKOFNC@March?$AA@ 00000001800304a4     libucrt:nlsdata.obj
 0002:000024ac       ??_C@_05DMJDNLEJ@April?$AA@ 00000001800304ac     libucrt:nlsdata.obj
 0002:000024b4       ??_C@_04CNLMGBGM@June?$AA@ 00000001800304b4     libucrt:nlsdata.obj
 0002:000024bc       ??_C@_04MIEPOIFP@July?$AA@ 00000001800304bc     libucrt:nlsdata.obj
 0002:000024c4       ??_C@_06LBBHFDDG@August?$AA@ 00000001800304c4     libucrt:nlsdata.obj
 0002:000024d0       ??_C@_09BHHEALKD@September?$AA@ 00000001800304d0     libucrt:nlsdata.obj
 0002:000024e0       ??_C@_07JJNFCEND@October?$AA@ 00000001800304e0     libucrt:nlsdata.obj
 0002:000024e8       ??_C@_08HCHEGEOA@November?$AA@ 00000001800304e8     libucrt:nlsdata.obj
 0002:000024f8       ??_C@_08EDHMEBNP@December?$AA@ 00000001800304f8     libucrt:nlsdata.obj
 0002:00002504       ??_C@_02DEDBPAFC@AM?$AA@   0000000180030504     libucrt:nlsdata.obj
 0002:00002508       ??_C@_02CJNFDJBF@PM?$AA@   0000000180030508     libucrt:nlsdata.obj
 0002:00002510       ??_C@_08BPBNCDIB@MM?1dd?1yy?$AA@ 0000000180030510     libucrt:nlsdata.obj
 0002:00002520       ??_C@_0BE@CKGJFCPC@dddd?0?5MMMM?5dd?0?5yyyy?$AA@ 0000000180030520     libucrt:nlsdata.obj
 0002:00002538       ??_C@_08JCCMCCIL@HH?3mm?3ss?$AA@ 0000000180030538     libucrt:nlsdata.obj
 0002:00002548       ??_C@_17MBGCMIPB@?$AAS?$AAu?$AAn?$AA?$AA@ 0000000180030548     libucrt:nlsdata.obj
 0002:00002550       ??_C@_17KBOMKBF@?$AAM?$AAo?$AAn?$AA?$AA@ 0000000180030550     libucrt:nlsdata.obj
 0002:00002558       ??_C@_17BMKGEGOJ@?$AAT?$AAu?$AAe?$AA?$AA@ 0000000180030558     libucrt:nlsdata.obj
 0002:00002560       ??_C@_17CJEDCEPE@?$AAW?$AAe?$AAd?$AA?$AA@ 0000000180030560     libucrt:nlsdata.obj
 0002:00002568       ??_C@_17PDPHAADD@?$AAT?$AAh?$AAu?$AA?$AA@ 0000000180030568     libucrt:nlsdata.obj
 0002:00002570       ??_C@_17HFOLPPLP@?$AAF?$AAr?$AAi?$AA?$AA@ 0000000180030570     libucrt:nlsdata.obj
 0002:00002578       ??_C@_17GGIBDPIH@?$AAS?$AAa?$AAt?$AA?$AA@ 0000000180030578     libucrt:nlsdata.obj
 0002:00002580       ??_C@_1O@IHNHDHPB@?$AAS?$AAu?$AAn?$AAd?$AAa?$AAy?$AA?$AA@ 0000000180030580     libucrt:nlsdata.obj
 0002:00002590       ??_C@_1O@MMNBFLIA@?$AAM?$AAo?$AAn?$AAd?$AAa?$AAy?$AA?$AA@ 0000000180030590     libucrt:nlsdata.obj
 0002:000025a0       ??_C@_1BA@ENFBFFEK@?$AAT?$AAu?$AAe?$AAs?$AAd?$AAa?$AAy?$AA?$AA@ 00000001800305a0     libucrt:nlsdata.obj
 0002:000025b0       ??_C@_1BE@EBOGMDOH@?$AAW?$AAe?$AAd?$AAn?$AAe?$AAs?$AAd?$AAa?$AAy?$AA?$AA@ 00000001800305b0     libucrt:nlsdata.obj
 0002:000025c8       ??_C@_1BC@HHMNLIHE@?$AAT?$AAh?$AAu?$AAr?$AAs?$AAd?$AAa?$AAy?$AA?$AA@ 00000001800305c8     libucrt:nlsdata.obj
 0002:000025e0       ??_C@_1O@PDICJHAG@?$AAF?$AAr?$AAi?$AAd?$AAa?$AAy?$AA?$AA@ 00000001800305e0     libucrt:nlsdata.obj
 0002:000025f0       ??_C@_1BC@ENMNNPAJ@?$AAS?$AAa?$AAt?$AAu?$AAr?$AAd?$AAa?$AAy?$AA?$AA@ 00000001800305f0     libucrt:nlsdata.obj
 0002:00002608       ??_C@_17DKNBKCHM@?$AAJ?$AAa?$AAn?$AA?$AA@ 0000000180030608     libucrt:nlsdata.obj
 0002:00002610       ??_C@_17LMDJEKJN@?$AAF?$AAe?$AAb?$AA?$AA@ 0000000180030610     libucrt:nlsdata.obj
 0002:00002618       ??_C@_17CKNLEDEC@?$AAM?$AAa?$AAr?$AA?$AA@ 0000000180030618     libucrt:nlsdata.obj
 0002:00002620       ??_C@_17LFPOIHDD@?$AAA?$AAp?$AAr?$AA?$AA@ 0000000180030620     libucrt:nlsdata.obj
 0002:00002628       ??_C@_17PNNKMEED@?$AAM?$AAa?$AAy?$AA?$AA@ 0000000180030628     libucrt:nlsdata.obj
 0002:00002630       ??_C@_17KCJGOCPB@?$AAJ?$AAu?$AAn?$AA?$AA@ 0000000180030630     libucrt:nlsdata.obj
 0002:00002638       ??_C@_17IJPCKHK@?$AAJ?$AAu?$AAl?$AA?$AA@ 0000000180030638     libucrt:nlsdata.obj
 0002:00002640       ??_C@_17ICPELBCN@?$AAA?$AAu?$AAg?$AA?$AA@ 0000000180030640     libucrt:nlsdata.obj
 0002:00002648       ??_C@_17HCHCOKMG@?$AAS?$AAe?$AAp?$AA?$AA@ 0000000180030648     libucrt:nlsdata.obj
 0002:00002650       ??_C@_17FNLKOI@?$AAO?$AAc?$AAt?$AA?$AA@ 0000000180030650     libucrt:nlsdata.obj
 0002:00002658       ??_C@_17BBDMLCIG@?$AAN?$AAo?$AAv?$AA?$AA@ 0000000180030658     libucrt:nlsdata.obj
 0002:00002660       ??_C@_17EGKACKIF@?$AAD?$AAe?$AAc?$AA?$AA@ 0000000180030660     libucrt:nlsdata.obj
 0002:00002668       ??_C@_1BA@EFMEIEBA@?$AAJ?$AAa?$AAn?$AAu?$AAa?$AAr?$AAy?$AA?$AA@ 0000000180030668     libucrt:nlsdata.obj
 0002:00002678       ??_C@_1BC@JGDDFFAM@?$AAF?$AAe?$AAb?$AAr?$AAu?$AAa?$AAr?$AAy?$AA?$AA@ 0000000180030678     libucrt:nlsdata.obj
 0002:00002690       ??_C@_1M@IKEENEDF@?$AAM?$AAa?$AAr?$AAc?$AAh?$AA?$AA@ 0000000180030690     libucrt:nlsdata.obj
 0002:000026a0       ??_C@_1M@GJNLMHFD@?$AAA?$AAp?$AAr?$AAi?$AAl?$AA?$AA@ 00000001800306a0     libucrt:nlsdata.obj
 0002:000026b0       ??_C@_19EPFLPGAP@?$AAJ?$AAu?$AAn?$AAe?$AA?$AA@ 00000001800306b0     libucrt:nlsdata.obj
 0002:000026c0       ??_C@_19BIFMLPCD@?$AAJ?$AAu?$AAl?$AAy?$AA?$AA@ 00000001800306c0     libucrt:nlsdata.obj
 0002:000026d0       ??_C@_1O@PAHLKOAC@?$AAA?$AAu?$AAg?$AAu?$AAs?$AAt?$AA?$AA@ 00000001800306d0     libucrt:nlsdata.obj
 0002:000026e0       ??_C@_1BE@DKAAMBJL@?$AAS?$AAe?$AAp?$AAt?$AAe?$AAm?$AAb?$AAe?$AAr?$AA?$AA@ 00000001800306e0     libucrt:nlsdata.obj
 0002:000026f8       ??_C@_1BA@EPANDLNG@?$AAO?$AAc?$AAt?$AAo?$AAb?$AAe?$AAr?$AA?$AA@ 00000001800306f8     libucrt:nlsdata.obj
 0002:00002708       ??_C@_1BC@BGLIFPF@?$AAN?$AAo?$AAv?$AAe?$AAm?$AAb?$AAe?$AAr?$AA?$AA@ 0000000180030708     libucrt:nlsdata.obj
 0002:00002720       ??_C@_1BC@FEMKIFH@?$AAD?$AAe?$AAc?$AAe?$AAm?$AAb?$AAe?$AAr?$AA?$AA@ 0000000180030720     libucrt:nlsdata.obj
 0002:00002734       ??_C@_15ODEHAHHF@?$AAA?$AAM?$AA?$AA@ 0000000180030734     libucrt:nlsdata.obj
 0002:0000273c       ??_C@_15CLMNNGEL@?$AAP?$AAM?$AA?$AA@ 000000018003073c     libucrt:nlsdata.obj
 0002:00002748       ??_C@_1BC@IEBCMHCM@?$AAM?$AAM?$AA?1?$AAd?$AAd?$AA?1?$AAy?$AAy?$AA?$AA@ 0000000180030748     libucrt:nlsdata.obj
 0002:00002760       ??_C@_1CI@KNAKOEBC@?$AAd?$AAd?$AAd?$AAd?$AA?0?$AA?5?$AAM?$AAM?$AAM?$AAM?$AA?5?$AAd?$AAd?$AA?0?$AA?5?$AAy?$AAy?$AAy?$AAy?$AA?$AA@ 0000000180030760     libucrt:nlsdata.obj
 0002:00002788       ??_C@_1BC@GDGBMEMK@?$AAH?$AAH?$AA?3?$AAm?$AAm?$AA?3?$AAs?$AAs?$AA?$AA@ 0000000180030788     libucrt:nlsdata.obj
 0002:000027a0       ??_C@_1M@BMHNFIME@?$AAe?$AAn?$AA?9?$AAU?$AAS?$AA?$AA@ 00000001800307a0     libucrt:nlsdata.obj
 0002:000027ac       ?ccs@?BL@???$__acrt_stdio_parse_mode@D@@YA?AU__acrt_stdio_stream_mode@@QEBD@Z@4QBDB 00000001800307ac     libucrt:openfile.obj
 0002:000027b0       ?utf8_encoding@?BL@???$__acrt_stdio_parse_mode@D@@YA?AU__acrt_stdio_stream_mode@@QEBD@Z@4QBDB 00000001800307b0     libucrt:openfile.obj
 0002:000027b8       ?utf16_encoding@?BL@???$__acrt_stdio_parse_mode@D@@YA?AU__acrt_stdio_stream_mode@@QEBD@Z@4QBDB 00000001800307b8     libucrt:openfile.obj
 0002:000027c0       ?unicode_encoding@?BL@???$__acrt_stdio_parse_mode@D@@YA?AU__acrt_stdio_stream_mode@@QEBD@Z@4QBDB 00000001800307c0     libucrt:openfile.obj
 0002:000027e8       ??_C@_1M@HPNHIDJI@?$AAj?$AAa?$AA?9?$AAJ?$AAP?$AA?$AA@ 00000001800307e8     libucrt:mbctype.obj
 0002:000027f8       ??_C@_1M@BIBDDEMK@?$AAz?$AAh?$AA?9?$AAC?$AAN?$AA?$AA@ 00000001800307f8     libucrt:mbctype.obj
 0002:00002808       ??_C@_1M@JLOOOEGK@?$AAk?$AAo?$AA?9?$AAK?$AAR?$AA?$AA@ 0000000180030808     libucrt:mbctype.obj
 0002:00002818       ??_C@_1M@CLNBBOPM@?$AAz?$AAh?$AA?9?$AAT?$AAW?$AA?$AA@ 0000000180030818     libucrt:mbctype.obj
 0002:00002830       __newctype                 0000000180030830     libucrt:ctype.obj
 0002:00002b30       __newclmap                 0000000180030b30     libucrt:ctype.obj
 0002:00002cb0       __newcumap                 0000000180030cb0     libucrt:ctype.obj
 0002:00002e30       _wctype                    0000000180030e30     libucrt:ctype.obj
 0002:00003034       ??_C@_05HGHHAHAP@log10?$AA@ 0000000180031034     libucrt:fpexcept.obj
 0002:0000303c       ??_C@_04PDIFKINK@acos?$AA@ 000000018003103c     libucrt:fpexcept.obj
 0002:00003e90       ??_C@_15EMKDOKLE@?$AAa?$AAr?$AA?$AA@ 0000000180031e90     libucrt:lcidtoname_downlevel.obj
 0002:00003e98       ??_C@_15KNPADPLH@?$AAb?$AAg?$AA?$AA@ 0000000180031e98     libucrt:lcidtoname_downlevel.obj
 0002:00003ea0       ??_C@_15EDMHLDMO@?$AAc?$AAa?$AA?$AA@ 0000000180031ea0     libucrt:lcidtoname_downlevel.obj
 0002:00003ea8       ??_C@_1O@BPEAJADD@?$AAz?$AAh?$AA?9?$AAC?$AAH?$AAS?$AA?$AA@ 0000000180031ea8     libucrt:lcidtoname_downlevel.obj
 0002:00003eb8       ??_C@_15LJNHCMNK@?$AAc?$AAs?$AA?$AA@ 0000000180031eb8     libucrt:lcidtoname_downlevel.obj
 0002:00003ec0       ??_C@_15FOMCIDHG@?$AAd?$AAa?$AA?$AA@ 0000000180031ec0     libucrt:lcidtoname_downlevel.obj
 0002:00003ec8       ??_C@_15NBKABECB@?$AAd?$AAe?$AA?$AA@ 0000000180031ec8     libucrt:lcidtoname_downlevel.obj
 0002:00003ed0       ??_C@_15GHPEIIAO@?$AAe?$AAl?$AA?$AA@ 0000000180031ed0     libucrt:lcidtoname_downlevel.obj
 0002:00003ed8       ??_C@_15MNPNEAIF@?$AAe?$AAn?$AA?$AA@ 0000000180031ed8     libucrt:lcidtoname_downlevel.obj
 0002:00003ee0       ??_C@_15GPIOMPMH@?$AAe?$AAs?$AA?$AA@ 0000000180031ee0     libucrt:lcidtoname_downlevel.obj
 0002:00003ee8       ??_C@_15NGLOAKJC@?$AAf?$AAi?$AA?$AA@ 0000000180031ee8     libucrt:lcidtoname_downlevel.obj
 0002:00003ef0       ??_C@_15FBKGNKAM@?$AAf?$AAr?$AA?$AA@ 0000000180031ef0     libucrt:lcidtoname_downlevel.obj
 0002:00003ef8       ??_C@_15KGGCNEFK@?$AAh?$AAe?$AA?$AA@ 0000000180031ef8     libucrt:lcidtoname_downlevel.obj
 0002:00003f00       ??_C@_15PGHLIDMF@?$AAh?$AAu?$AA?$AA@ 0000000180031f00     libucrt:lcidtoname_downlevel.obj
 0002:00003f08       ??_C@_15BIEMAPLM@?$AAi?$AAs?$AA?$AA@ 0000000180031f08     libucrt:lcidtoname_downlevel.obj
 0002:00003f10       ??_C@_15IFJLDHAF@?$AAi?$AAt?$AA?$AA@ 0000000180031f10     libucrt:lcidtoname_downlevel.obj
 0002:00003f18       ??_C@_15GEMIOCAG@?$AAj?$AAa?$AA?$AA@ 0000000180031f18     libucrt:lcidtoname_downlevel.obj
 0002:00003f20       ??_C@_15EPELEGJA@?$AAk?$AAo?$AA?$AA@ 0000000180031f20     libucrt:lcidtoname_downlevel.obj
 0002:00003f28       ??_C@_15NDDHIMN@?$AAn?$AAl?$AA?$AA@ 0000000180031f28     libucrt:lcidtoname_downlevel.obj
 0002:00003f30       ??_C@_15BPIGNHCD@?$AAn?$AAo?$AA?$AA@ 0000000180031f30     libucrt:lcidtoname_downlevel.obj
 0002:00003f38       ??_C@_15DEOPBLCG@?$AAp?$AAl?$AA?$AA@ 0000000180031f38     libucrt:lcidtoname_downlevel.obj
 0002:00003f40       ??_C@_15KBECGEFG@?$AAp?$AAt?$AA?$AA@ 0000000180031f40     libucrt:lcidtoname_downlevel.obj
 0002:00003f48       ??_C@_15GLJCBFMD@?$AAr?$AAo?$AA?$AA@ 0000000180031f48     libucrt:lcidtoname_downlevel.obj
 0002:00003f50       ??_C@_15FEDGKCDI@?$AAr?$AAu?$AA?$AA@ 0000000180031f50     libucrt:lcidtoname_downlevel.obj
 0002:00003f58       ??_C@_15GLKMLLHM@?$AAh?$AAr?$AA?$AA@ 0000000180031f58     libucrt:lcidtoname_downlevel.obj
 0002:00003f60       ??_C@_15CPKMFBDB@?$AAs?$AAk?$AA?$AA@ 0000000180031f60     libucrt:lcidtoname_downlevel.obj
 0002:00003f68       ??_C@_15BAAIOGMK@?$AAs?$AAq?$AA?$AA@ 0000000180031f68     libucrt:lcidtoname_downlevel.obj
 0002:00003f70       ??_C@_15INNPNOHD@?$AAs?$AAv?$AA?$AA@ 0000000180031f70     libucrt:lcidtoname_downlevel.obj
 0002:00003f78       ??_C@_15CABMMOGH@?$AAt?$AAh?$AA?$AA@ 0000000180031f78     libucrt:lcidtoname_downlevel.obj
 0002:00003f80       ??_C@_15BPLIHJJM@?$AAt?$AAr?$AA?$AA@ 0000000180031f80     libucrt:lcidtoname_downlevel.obj
 0002:00003f88       ??_C@_15NEOEKKDJ@?$AAu?$AAr?$AA?$AA@ 0000000180031f88     libucrt:lcidtoname_downlevel.obj
 0002:00003f90       ??_C@_15NFICGAJK@?$AAi?$AAd?$AA?$AA@ 0000000180031f90     libucrt:lcidtoname_downlevel.obj
 0002:00003f98       ??_C@_15PJPFLCCM@?$AAu?$AAk?$AA?$AA@ 0000000180031f98     libucrt:lcidtoname_downlevel.obj
 0002:00003fa0       ??_C@_15HPJPHDM@?$AAb?$AAe?$AA?$AA@ 0000000180031fa0     libucrt:lcidtoname_downlevel.obj
 0002:00003fa8       ??_C@_15LCHLGJII@?$AAs?$AAl?$AA?$AA@ 0000000180031fa8     libucrt:lcidtoname_downlevel.obj
 0002:00003fb0       ??_C@_15PCFJPHHO@?$AAe?$AAt?$AA?$AA@ 0000000180031fb0     libucrt:lcidtoname_downlevel.obj
 0002:00003fb8       ??_C@_15HPFPGODN@?$AAl?$AAv?$AA?$AA@ 0000000180031fb8     libucrt:lcidtoname_downlevel.obj
 0002:00003fc0       ??_C@_15NFFGKGLG@?$AAl?$AAt?$AA?$AA@ 0000000180031fc0     libucrt:lcidtoname_downlevel.obj
 0002:00003fc8       ??_C@_15BDAKCCHN@?$AAf?$AAa?$AA?$AA@ 0000000180031fc8     libucrt:lcidtoname_downlevel.obj
 0002:00003fd0       ??_C@_15NFGIAIAJ@?$AAv?$AAi?$AA?$AA@ 0000000180031fd0     libucrt:lcidtoname_downlevel.obj
 0002:00003fd8       ??_C@_15LMKNDMHN@?$AAh?$AAy?$AA?$AA@ 0000000180031fd8     libucrt:lcidtoname_downlevel.obj
 0002:00003fe0       ??_C@_15IJBHMCFL@?$AAa?$AAz?$AA?$AA@ 0000000180031fe0     libucrt:lcidtoname_downlevel.obj
 0002:00003fe8       ??_C@_15EKOFJABL@?$AAe?$AAu?$AA?$AA@ 0000000180031fe8     libucrt:lcidtoname_downlevel.obj
 0002:00003ff0       ??_C@_15BGHADCNK@?$AAm?$AAk?$AA?$AA@ 0000000180031ff0     libucrt:lcidtoname_downlevel.obj
 0002:00003ff8       ??_C@_15JDNICKHM@?$AAa?$AAf?$AA?$AA@ 0000000180031ff8     libucrt:lcidtoname_downlevel.obj
 0002:00004000       ??_C@_15KPJEDBKD@?$AAk?$AAa?$AA?$AA@ 0000000180032000     libucrt:lcidtoname_downlevel.obj
 0002:00004008       ??_C@_15PDNFFFEO@?$AAf?$AAo?$AA?$AA@ 0000000180032008     libucrt:lcidtoname_downlevel.obj
 0002:00004010       ??_C@_15OMLEGLOC@?$AAh?$AAi?$AA?$AA@ 0000000180032010     libucrt:lcidtoname_downlevel.obj
 0002:00004018       ??_C@_15IDNNENKK@?$AAm?$AAs?$AA?$AA@ 0000000180032018     libucrt:lcidtoname_downlevel.obj
 0002:00004020       ??_C@_15MACJNBMH@?$AAk?$AAk?$AA?$AA@ 0000000180032020     libucrt:lcidtoname_downlevel.obj
 0002:00004028       ??_C@_15DKDJEOND@?$AAk?$AAy?$AA?$AA@ 0000000180032028     libucrt:lcidtoname_downlevel.obj
 0002:00004030       ??_C@_15DFGDLJBG@?$AAs?$AAw?$AA?$AA@ 0000000180032030     libucrt:lcidtoname_downlevel.obj
 0002:00004038       ??_C@_15BBFAICNG@?$AAu?$AAz?$AA?$AA@ 0000000180032038     libucrt:lcidtoname_downlevel.obj
 0002:00004040       ??_C@_15DKNDCGEA@?$AAt?$AAt?$AA?$AA@ 0000000180032040     libucrt:lcidtoname_downlevel.obj
 0002:00004048       ??_C@_15MGIFMDPL@?$AAp?$AAa?$AA?$AA@ 0000000180032048     libucrt:lcidtoname_downlevel.obj
 0002:00004050       ??_C@_15HCNDBBA@?$AAg?$AAu?$AA?$AA@ 0000000180032050     libucrt:lcidtoname_downlevel.obj
 0002:00004058       ??_C@_15FNBEIBON@?$AAt?$AAa?$AA?$AA@ 0000000180032058     libucrt:lcidtoname_downlevel.obj
 0002:00004060       ??_C@_15NCHGBGLK@?$AAt?$AAe?$AA?$AA@ 0000000180032060     libucrt:lcidtoname_downlevel.obj
 0002:00004068       ??_C@_15PHPHCBPF@?$AAk?$AAn?$AA?$AA@ 0000000180032068     libucrt:lcidtoname_downlevel.obj
 0002:00004070       ??_C@_15DLGBCKMP@?$AAm?$AAr?$AA?$AA@ 0000000180032070     libucrt:lcidtoname_downlevel.obj
 0002:00004078       ??_C@_15EABBLBFF@?$AAs?$AAa?$AA?$AA@ 0000000180032078     libucrt:lcidtoname_downlevel.obj
 0002:00004080       ??_C@_15CBKOMCOI@?$AAm?$AAn?$AA?$AA@ 0000000180032080     libucrt:lcidtoname_downlevel.obj
 0002:00004088       ??_C@_15CKDMCJAF@?$AAg?$AAl?$AA?$AA@ 0000000180032088     libucrt:lcidtoname_downlevel.obj
 0002:00004090       ??_C@_17CNJFBPG@?$AAk?$AAo?$AAk?$AA?$AA@ 0000000180032090     libucrt:lcidtoname_downlevel.obj
 0002:00004098       ??_C@_17FFBJICPL@?$AAs?$AAy?$AAr?$AA?$AA@ 0000000180032098     libucrt:lcidtoname_downlevel.obj
 0002:000040a0       ??_C@_17KPNDCPAF@?$AAd?$AAi?$AAv?$AA?$AA@ 00000001800320a0     libucrt:lcidtoname_downlevel.obj
 0002:000040a8       ??_C@_11LOCGONAA@?$AA?$AA@ 00000001800320a8     libucrt:lcidtoname_downlevel.obj
 0002:000040b0       ??_C@_1M@OKAHONE@?$AAa?$AAr?$AA?9?$AAS?$AAA?$AA?$AA@ 00000001800320b0     libucrt:lcidtoname_downlevel.obj
 0002:000040c0       ??_C@_1M@FFFIGIGK@?$AAb?$AAg?$AA?9?$AAB?$AAG?$AA?$AA@ 00000001800320c0     libucrt:lcidtoname_downlevel.obj
 0002:000040d0       ??_C@_1M@BJNKEDC@?$AAc?$AAa?$AA?9?$AAE?$AAS?$AA?$AA@ 00000001800320d0     libucrt:lcidtoname_downlevel.obj
 0002:000040e0       ??_C@_1M@IJJHFJHA@?$AAc?$AAs?$AA?9?$AAC?$AAZ?$AA?$AA@ 00000001800320e0     libucrt:lcidtoname_downlevel.obj
 0002:000040f0       ??_C@_1M@CLPEOBGI@?$AAd?$AAa?$AA?9?$AAD?$AAK?$AA?$AA@ 00000001800320f0     libucrt:lcidtoname_downlevel.obj
 0002:00004100       ??_C@_1M@MCMADGCB@?$AAd?$AAe?$AA?9?$AAD?$AAE?$AA?$AA@ 0000000180032100     libucrt:lcidtoname_downlevel.obj
 0002:00004110       ??_C@_1M@OOCKEMAM@?$AAe?$AAl?$AA?9?$AAG?$AAR?$AA?$AA@ 0000000180032110     libucrt:lcidtoname_downlevel.obj
 0002:00004120       ??_C@_1M@DDNJFGID@?$AAf?$AAi?$AA?9?$AAF?$AAI?$AA?$AA@ 0000000180032120     libucrt:lcidtoname_downlevel.obj
 0002:00004130       ??_C@_1M@GLIPPMAC@?$AAf?$AAr?$AA?9?$AAF?$AAR?$AA?$AA@ 0000000180032130     libucrt:lcidtoname_downlevel.obj
 0002:00004140       ??_C@_1M@GFMCHPE@?$AAh?$AAe?$AA?9?$AAI?$AAL?$AA?$AA@ 0000000180032140     libucrt:lcidtoname_downlevel.obj
 0002:00004150       ??_C@_1M@MHLPGNKM@?$AAh?$AAu?$AA?9?$AAH?$AAU?$AA?$AA@ 0000000180032150     libucrt:lcidtoname_downlevel.obj
 0002:00004160       ??_C@_1M@LPDDNNPN@?$AAi?$AAs?$AA?9?$AAI?$AAS?$AA?$AA@ 0000000180032160     libucrt:lcidtoname_downlevel.obj
 0002:00004170       ??_C@_1M@MADIPODN@?$AAi?$AAt?$AA?9?$AAI?$AAT?$AA?$AA@ 0000000180032170     libucrt:lcidtoname_downlevel.obj
 0002:00004180       ??_C@_1M@IHBJJGG@?$AAn?$AAl?$AA?9?$AAN?$AAL?$AA?$AA@ 0000000180032180     libucrt:lcidtoname_downlevel.obj
 0002:00004190       ??_C@_1M@EANAGDL@?$AAn?$AAb?$AA?9?$AAN?$AAO?$AA?$AA@ 0000000180032190     libucrt:lcidtoname_downlevel.obj
 0002:000041a0       ??_C@_1M@NEIEMEGP@?$AAp?$AAl?$AA?9?$AAP?$AAL?$AA?$AA@ 00000001800321a0     libucrt:lcidtoname_downlevel.obj
 0002:000041b0       ??_C@_1M@BOCFIGEP@?$AAp?$AAt?$AA?9?$AAB?$AAR?$AA?$AA@ 00000001800321b0     libucrt:lcidtoname_downlevel.obj
 0002:000041c0       ??_C@_1M@IMPFOPBG@?$AAr?$AAo?$AA?9?$AAR?$AAO?$AA?$AA@ 00000001800321c0     libucrt:lcidtoname_downlevel.obj
 0002:000041d0       ??_C@_1M@IDNNEJMM@?$AAr?$AAu?$AA?9?$AAR?$AAU?$AA?$AA@ 00000001800321d0     libucrt:lcidtoname_downlevel.obj
 0002:000041e0       ??_C@_1M@LILEEOGM@?$AAh?$AAr?$AA?9?$AAH?$AAR?$AA?$AA@ 00000001800321e0     libucrt:lcidtoname_downlevel.obj
 0002:000041f0       ??_C@_1M@FKIFEHPB@?$AAs?$AAk?$AA?9?$AAS?$AAK?$AA?$AA@ 00000001800321f0     libucrt:lcidtoname_downlevel.obj
 0002:00004200       ??_C@_1M@LJMAMNPJ@?$AAs?$AAq?$AA?9?$AAA?$AAL?$AA?$AA@ 0000000180032200     libucrt:lcidtoname_downlevel.obj
 0002:00004210       ??_C@_1M@GIAKDKJK@?$AAs?$AAv?$AA?9?$AAS?$AAE?$AA?$AA@ 0000000180032210     libucrt:lcidtoname_downlevel.obj
 0002:00004220       ??_C@_1M@MKJKIKCL@?$AAt?$AAh?$AA?9?$AAT?$AAH?$AA?$AA@ 0000000180032220     libucrt:lcidtoname_downlevel.obj
 0002:00004230       ??_C@_1M@MFLCCMPB@?$AAt?$AAr?$AA?9?$AAT?$AAR?$AA?$AA@ 0000000180032230     libucrt:lcidtoname_downlevel.obj
 0002:00004240       ??_C@_1M@OIJHDKJN@?$AAu?$AAr?$AA?9?$AAP?$AAK?$AA?$AA@ 0000000180032240     libucrt:lcidtoname_downlevel.obj
 0002:00004250       ??_C@_1M@LHIPCIEK@?$AAi?$AAd?$AA?9?$AAI?$AAD?$AA?$AA@ 0000000180032250     libucrt:lcidtoname_downlevel.obj
 0002:00004260       ??_C@_1M@MFMOBGI@?$AAu?$AAk?$AA?9?$AAU?$AAA?$AA?$AA@ 0000000180032260     libucrt:lcidtoname_downlevel.obj
 0002:00004270       ??_C@_1M@OBGLJIPL@?$AAb?$AAe?$AA?9?$AAB?$AAY?$AA?$AA@ 0000000180032270     libucrt:lcidtoname_downlevel.obj
 0002:00004280       ??_C@_1M@BCFAJEAD@?$AAs?$AAl?$AA?9?$AAS?$AAI?$AA?$AA@ 0000000180032280     libucrt:lcidtoname_downlevel.obj
 0002:00004290       ??_C@_1M@FKFFEDDN@?$AAe?$AAt?$AA?9?$AAE?$AAE?$AA?$AA@ 0000000180032290     libucrt:lcidtoname_downlevel.obj
 0002:000042a0       ??_C@_1M@KGKKAACI@?$AAl?$AAv?$AA?9?$AAL?$AAV?$AA?$AA@ 00000001800322a0     libucrt:lcidtoname_downlevel.obj
 0002:000042b0       ??_C@_1M@IFGBIJO@?$AAl?$AAt?$AA?9?$AAL?$AAT?$AA?$AA@ 00000001800322b0     libucrt:lcidtoname_downlevel.obj
 0002:000042c0       ??_C@_1M@FGEAHEDM@?$AAf?$AAa?$AA?9?$AAI?$AAR?$AA?$AA@ 00000001800322c0     libucrt:lcidtoname_downlevel.obj
 0002:000042d0       ??_C@_1M@KBMAIBFN@?$AAv?$AAi?$AA?9?$AAV?$AAN?$AA?$AA@ 00000001800322d0     libucrt:lcidtoname_downlevel.obj
 0002:000042e0       ??_C@_1M@GPCBKDJK@?$AAh?$AAy?$AA?9?$AAA?$AAM?$AA?$AA@ 00000001800322e0     libucrt:lcidtoname_downlevel.obj
 0002:000042f0       ??_C@_1BG@BECMDDJB@?$AAa?$AAz?$AA?9?$AAA?$AAZ?$AA?9?$AAL?$AAa?$AAt?$AAn?$AA?$AA@ 00000001800322f0     libucrt:lcidtoname_downlevel.obj
 0002:00004308       ??_C@_1M@MAOFCAEA@?$AAe?$AAu?$AA?9?$AAE?$AAS?$AA?$AA@ 0000000180032308     libucrt:lcidtoname_downlevel.obj
 0002:00004318       ??_C@_1M@IGHABKPI@?$AAm?$AAk?$AA?9?$AAM?$AAK?$AA?$AA@ 0000000180032318     libucrt:lcidtoname_downlevel.obj
 0002:00004328       ??_C@_1M@IAIGNEJG@?$AAt?$AAn?$AA?9?$AAZ?$AAA?$AA?$AA@ 0000000180032328     libucrt:lcidtoname_downlevel.obj
 0002:00004338       ??_C@_1M@IIJCOJFA@?$AAx?$AAh?$AA?9?$AAZ?$AAA?$AA?$AA@ 0000000180032338     libucrt:lcidtoname_downlevel.obj
 0002:00004348       ??_C@_1M@LGPJHNJH@?$AAz?$AAu?$AA?9?$AAZ?$AAA?$AA?$AA@ 0000000180032348     libucrt:lcidtoname_downlevel.obj
 0002:00004358       ??_C@_1M@HOKAOIO@?$AAa?$AAf?$AA?9?$AAZ?$AAA?$AA?$AA@ 0000000180032358     libucrt:lcidtoname_downlevel.obj
 0002:00004368       ??_C@_1M@DPCLHLIE@?$AAk?$AAa?$AA?9?$AAG?$AAE?$AA?$AA@ 0000000180032368     libucrt:lcidtoname_downlevel.obj
 0002:00004378       ??_C@_1M@BLKMHJBI@?$AAf?$AAo?$AA?9?$AAF?$AAO?$AA?$AA@ 0000000180032378     libucrt:lcidtoname_downlevel.obj
 0002:00004388       ??_C@_1M@LGGJAPPB@?$AAh?$AAi?$AA?9?$AAI?$AAN?$AA?$AA@ 0000000180032388     libucrt:lcidtoname_downlevel.obj
 0002:00004398       ??_C@_1M@FIKPIHFE@?$AAm?$AAt?$AA?9?$AAM?$AAT?$AA?$AA@ 0000000180032398     libucrt:lcidtoname_downlevel.obj
 0002:000043a8       ??_C@_1M@HEGGPBFA@?$AAs?$AAe?$AA?9?$AAN?$AAO?$AA?$AA@ 00000001800323a8     libucrt:lcidtoname_downlevel.obj
 0002:000043b8       ??_C@_1M@EIBJEEPA@?$AAm?$AAs?$AA?9?$AAM?$AAY?$AA?$AA@ 00000001800323b8     libucrt:lcidtoname_downlevel.obj
 0002:000043c8       ??_C@_1M@FHLBGMPP@?$AAk?$AAk?$AA?9?$AAK?$AAZ?$AA?$AA@ 00000001800323c8     libucrt:lcidtoname_downlevel.obj
 0002:000043d8       ??_C@_1M@NGJJLCGI@?$AAk?$AAy?$AA?9?$AAK?$AAG?$AA?$AA@ 00000001800323d8     libucrt:lcidtoname_downlevel.obj
 0002:000043e8       ??_C@_1M@GIENNBFC@?$AAs?$AAw?$AA?9?$AAK?$AAE?$AA?$AA@ 00000001800323e8     libucrt:lcidtoname_downlevel.obj
 0002:000043f8       ??_C@_1BG@NDGMJIMJ@?$AAu?$AAz?$AA?9?$AAU?$AAZ?$AA?9?$AAL?$AAa?$AAt?$AAn?$AA?$AA@ 00000001800323f8     libucrt:lcidtoname_downlevel.obj
 0002:00004410       ??_C@_1M@IDCCIHBC@?$AAt?$AAt?$AA?9?$AAR?$AAU?$AA?$AA@ 0000000180032410     libucrt:lcidtoname_downlevel.obj
 0002:00004420       ??_C@_1M@LOICPMOJ@?$AAb?$AAn?$AA?9?$AAI?$AAN?$AA?$AA@ 0000000180032420     libucrt:lcidtoname_downlevel.obj
 0002:00004430       ??_C@_1M@KPKKNEAH@?$AAp?$AAa?$AA?9?$AAI?$AAN?$AA?$AA@ 0000000180032430     libucrt:lcidtoname_downlevel.obj
 0002:00004440       ??_C@_1M@PJGPPBOG@?$AAg?$AAu?$AA?9?$AAI?$AAN?$AA?$AA@ 0000000180032440     libucrt:lcidtoname_downlevel.obj
 0002:00004450       ??_C@_1M@KMKMOPHI@?$AAt?$AAa?$AA?9?$AAI?$AAN?$AA?$AA@ 0000000180032450     libucrt:lcidtoname_downlevel.obj
 0002:00004460       ??_C@_1M@KFEHEPAC@?$AAt?$AAe?$AA?9?$AAI?$AAN?$AA?$AA@ 0000000180032460     libucrt:lcidtoname_downlevel.obj
 0002:00004470       ??_C@_1M@CDCLMGHI@?$AAk?$AAn?$AA?9?$AAI?$AAN?$AA?$AA@ 0000000180032470     libucrt:lcidtoname_downlevel.obj
 0002:00004480       ??_C@_1M@MIODLDKF@?$AAm?$AAl?$AA?9?$AAI?$AAN?$AA?$AA@ 0000000180032480     libucrt:lcidtoname_downlevel.obj
 0002:00004490       ??_C@_1M@PBIEACPO@?$AAm?$AAr?$AA?9?$AAI?$AAN?$AA?$AA@ 0000000180032490     libucrt:lcidtoname_downlevel.obj
 0002:000044a0       ??_C@_1M@NIDEAGPH@?$AAs?$AAa?$AA?9?$AAI?$AAN?$AA?$AA@ 00000001800324a0     libucrt:lcidtoname_downlevel.obj
 0002:000044b0       ??_C@_1M@FHIHCBIO@?$AAm?$AAn?$AA?9?$AAM?$AAN?$AA?$AA@ 00000001800324b0     libucrt:lcidtoname_downlevel.obj
 0002:000044c0       ??_C@_1M@JAIJPENP@?$AAc?$AAy?$AA?9?$AAG?$AAB?$AA?$AA@ 00000001800324c0     libucrt:lcidtoname_downlevel.obj
 0002:000044d0       ??_C@_1M@PHGFBEPN@?$AAg?$AAl?$AA?9?$AAE?$AAS?$AA?$AA@ 00000001800324d0     libucrt:lcidtoname_downlevel.obj
 0002:000044e0       ??_C@_1O@KPIPDNCP@?$AAk?$AAo?$AAk?$AA?9?$AAI?$AAN?$AA?$AA@ 00000001800324e0     libucrt:lcidtoname_downlevel.obj
 0002:000044f0       ??_C@_1O@KNHJLDJA@?$AAs?$AAy?$AAr?$AA?9?$AAS?$AAY?$AA?$AA@ 00000001800324f0     libucrt:lcidtoname_downlevel.obj
 0002:00004500       ??_C@_1O@MKEKBLAH@?$AAd?$AAi?$AAv?$AA?9?$AAM?$AAV?$AA?$AA@ 0000000180032500     libucrt:lcidtoname_downlevel.obj
 0002:00004510       ??_C@_1O@OHDCKDDF@?$AAq?$AAu?$AAz?$AA?9?$AAB?$AAO?$AA?$AA@ 0000000180032510     libucrt:lcidtoname_downlevel.obj
 0002:00004520       ??_C@_1M@LEPJNLFD@?$AAn?$AAs?$AA?9?$AAZ?$AAA?$AA?$AA@ 0000000180032520     libucrt:lcidtoname_downlevel.obj
 0002:00004530       ??_C@_1M@OMLEIIJB@?$AAm?$AAi?$AA?9?$AAN?$AAZ?$AA?$AA@ 0000000180032530     libucrt:lcidtoname_downlevel.obj
 0002:00004540       ??_C@_1M@PMPEAILG@?$AAa?$AAr?$AA?9?$AAI?$AAQ?$AA?$AA@ 0000000180032540     libucrt:lcidtoname_downlevel.obj
 0002:00004550       ??_C@_1M@CNKPNOEE@?$AAd?$AAe?$AA?9?$AAC?$AAH?$AA?$AA@ 0000000180032550     libucrt:lcidtoname_downlevel.obj
 0002:00004560       ??_C@_1M@LKMGMLKO@?$AAe?$AAn?$AA?9?$AAG?$AAB?$AA?$AA@ 0000000180032560     libucrt:lcidtoname_downlevel.obj
 0002:00004570       ??_C@_1M@PGKJFFGL@?$AAe?$AAs?$AA?9?$AAM?$AAX?$AA?$AA@ 0000000180032570     libucrt:lcidtoname_downlevel.obj
 0002:00004580       ??_C@_1M@DNNANBDC@?$AAf?$AAr?$AA?9?$AAB?$AAE?$AA?$AA@ 0000000180032580     libucrt:lcidtoname_downlevel.obj
 0002:00004590       ??_C@_1M@HLGMDFHM@?$AAi?$AAt?$AA?9?$AAC?$AAH?$AA?$AA@ 0000000180032590     libucrt:lcidtoname_downlevel.obj
 0002:000045a0       ??_C@_1M@CLLBGJH@?$AAn?$AAl?$AA?9?$AAB?$AAE?$AA?$AA@ 00000001800325a0     libucrt:lcidtoname_downlevel.obj
 0002:000045b0       ??_C@_1M@BODBOGLF@?$AAn?$AAn?$AA?9?$AAN?$AAO?$AA?$AA@ 00000001800325b0     libucrt:lcidtoname_downlevel.obj
 0002:000045c0       ??_C@_1M@HFFAHKAD@?$AAp?$AAt?$AA?9?$AAP?$AAT?$AA?$AA@ 00000001800325c0     libucrt:lcidtoname_downlevel.obj
 0002:000045d0       ??_C@_1BG@LNOAKHIE@?$AAs?$AAr?$AA?9?$AAS?$AAP?$AA?9?$AAL?$AAa?$AAt?$AAn?$AA?$AA@ 00000001800325d0     libucrt:lcidtoname_downlevel.obj
 0002:000045e8       ??_C@_1M@HBMHBGAK@?$AAs?$AAv?$AA?9?$AAF?$AAI?$AA?$AA@ 00000001800325e8     libucrt:lcidtoname_downlevel.obj
 0002:000045f8       ??_C@_1BG@DGCJGJBE@?$AAa?$AAz?$AA?9?$AAA?$AAZ?$AA?9?$AAC?$AAy?$AAr?$AAl?$AA?$AA@ 00000001800325f8     libucrt:lcidtoname_downlevel.obj
 0002:00004610       ??_C@_1M@KEJDAAHB@?$AAs?$AAe?$AA?9?$AAS?$AAE?$AA?$AA@ 0000000180032610     libucrt:lcidtoname_downlevel.obj
 0002:00004620       ??_C@_1M@HEIBJJAD@?$AAm?$AAs?$AA?9?$AAB?$AAN?$AA?$AA@ 0000000180032620     libucrt:lcidtoname_downlevel.obj
 0002:00004630       ??_C@_1BG@PBGJMCEM@?$AAu?$AAz?$AA?9?$AAU?$AAZ?$AA?9?$AAC?$AAy?$AAr?$AAl?$AA?$AA@ 0000000180032630     libucrt:lcidtoname_downlevel.obj
 0002:00004648       ??_C@_1O@LAOBCMDF@?$AAq?$AAu?$AAz?$AA?9?$AAE?$AAC?$AA?$AA@ 0000000180032648     libucrt:lcidtoname_downlevel.obj
 0002:00004658       ??_C@_1M@POEEMAIO@?$AAa?$AAr?$AA?9?$AAE?$AAG?$AA?$AA@ 0000000180032658     libucrt:lcidtoname_downlevel.obj
 0002:00004668       ??_C@_1M@EFAKDEDL@?$AAz?$AAh?$AA?9?$AAH?$AAK?$AA?$AA@ 0000000180032668     libucrt:lcidtoname_downlevel.obj
 0002:00004678       ??_C@_1M@HKKIJHGI@?$AAd?$AAe?$AA?9?$AAA?$AAT?$AA?$AA@ 0000000180032678     libucrt:lcidtoname_downlevel.obj
 0002:00004688       ??_C@_1M@KBFBEHJF@?$AAe?$AAn?$AA?9?$AAA?$AAU?$AA?$AA@ 0000000180032688     libucrt:lcidtoname_downlevel.obj
 0002:00004698       ??_C@_1M@MNPLFAAH@?$AAe?$AAs?$AA?9?$AAE?$AAS?$AA?$AA@ 0000000180032698     libucrt:lcidtoname_downlevel.obj
 0002:000046a8       ??_C@_1M@HJOOJFMA@?$AAf?$AAr?$AA?9?$AAC?$AAA?$AA?$AA@ 00000001800326a8     libucrt:lcidtoname_downlevel.obj
 0002:000046b8       ??_C@_1BG@JPOFPNAB@?$AAs?$AAr?$AA?9?$AAS?$AAP?$AA?9?$AAC?$AAy?$AAr?$AAl?$AA?$AA@ 00000001800326b8     libucrt:lcidtoname_downlevel.obj
 0002:000046d0       ??_C@_1M@LNFOCMOB@?$AAs?$AAe?$AA?9?$AAF?$AAI?$AA?$AA@ 00000001800326d0     libucrt:lcidtoname_downlevel.obj
 0002:000046e0       ??_C@_1O@MGJBOAMB@?$AAq?$AAu?$AAz?$AA?9?$AAP?$AAE?$AA?$AA@ 00000001800326e0     libucrt:lcidtoname_downlevel.obj
 0002:000046f0       ??_C@_1M@GJINLBOK@?$AAa?$AAr?$AA?9?$AAL?$AAY?$AA?$AA@ 00000001800326f0     libucrt:lcidtoname_downlevel.obj
 0002:00004700       ??_C@_1M@GGMNHJNL@?$AAz?$AAh?$AA?9?$AAS?$AAG?$AA?$AA@ 0000000180032700     libucrt:lcidtoname_downlevel.obj
 0002:00004710       ??_C@_1M@HOIKODND@?$AAd?$AAe?$AA?9?$AAL?$AAU?$AA?$AA@ 0000000180032710     libucrt:lcidtoname_downlevel.obj
 0002:00004720       ??_C@_1M@DDOCCGFG@?$AAe?$AAn?$AA?9?$AAC?$AAA?$AA?$AA@ 0000000180032720     libucrt:lcidtoname_downlevel.obj
 0002:00004730       ??_C@_1M@BNOEMJLF@?$AAe?$AAs?$AA?9?$AAG?$AAT?$AA?$AA@ 0000000180032730     libucrt:lcidtoname_downlevel.obj
 0002:00004740       ??_C@_1M@EOGNKEK@?$AAf?$AAr?$AA?9?$AAC?$AAH?$AA?$AA@ 0000000180032740     libucrt:lcidtoname_downlevel.obj
 0002:00004750       ??_C@_1M@FLIDJFHL@?$AAh?$AAr?$AA?9?$AAB?$AAA?$AA?$AA@ 0000000180032750     libucrt:lcidtoname_downlevel.obj
 0002:00004760       ??_C@_1O@FMCELNAJ@?$AAs?$AAm?$AAj?$AA?9?$AAN?$AAO?$AA?$AA@ 0000000180032760     libucrt:lcidtoname_downlevel.obj
 0002:00004770       ??_C@_1M@JHGLJMGJ@?$AAa?$AAr?$AA?9?$AAD?$AAZ?$AA?$AA@ 0000000180032770     libucrt:lcidtoname_downlevel.obj
 0002:00004780       ??_C@_1M@JKKFDCNP@?$AAz?$AAh?$AA?9?$AAM?$AAO?$AA?$AA@ 0000000180032780     libucrt:lcidtoname_downlevel.obj
 0002:00004790       ??_C@_1M@GEEFALPE@?$AAd?$AAe?$AA?9?$AAL?$AAI?$AA?$AA@ 0000000180032790     libucrt:lcidtoname_downlevel.obj
 0002:000047a0       ??_C@_1M@IGEOFBG@?$AAe?$AAn?$AA?9?$AAN?$AAZ?$AA?$AA@ 00000001800327a0     libucrt:lcidtoname_downlevel.obj
 0002:000047b0       ??_C@_1M@KDBONEHP@?$AAe?$AAs?$AA?9?$AAC?$AAR?$AA?$AA@ 00000001800327b0     libucrt:lcidtoname_downlevel.obj
 0002:000047c0       ??_C@_1M@FHMDOHNN@?$AAf?$AAr?$AA?9?$AAL?$AAU?$AA?$AA@ 00000001800327c0     libucrt:lcidtoname_downlevel.obj
 0002:000047d0       ??_C@_1BG@NFKKMAFG@?$AAb?$AAs?$AA?9?$AAB?$AAA?$AA?9?$AAL?$AAa?$AAt?$AAn?$AA?$AA@ 00000001800327d0     libucrt:lcidtoname_downlevel.obj
 0002:000047e8       ??_C@_1O@IMNBEMCI@?$AAs?$AAm?$AAj?$AA?9?$AAS?$AAE?$AA?$AA@ 00000001800327e8     libucrt:lcidtoname_downlevel.obj
 0002:000047f8       ??_C@_1M@DHHMBNDP@?$AAa?$AAr?$AA?9?$AAM?$AAA?$AA?$AA@ 00000001800327f8     libucrt:lcidtoname_downlevel.obj
 0002:00004808       ??_C@_1M@BNBLJCGH@?$AAe?$AAn?$AA?9?$AAI?$AAE?$AA?$AA@ 0000000180032808     libucrt:lcidtoname_downlevel.obj
 0002:00004818       ??_C@_1M@GEPAFMDL@?$AAe?$AAs?$AA?9?$AAP?$AAA?$AA?$AA@ 0000000180032818     libucrt:lcidtoname_downlevel.obj
 0002:00004828       ??_C@_1M@OJONDMDL@?$AAf?$AAr?$AA?9?$AAM?$AAC?$AA?$AA@ 0000000180032828     libucrt:lcidtoname_downlevel.obj
 0002:00004838       ??_C@_1BG@OBCNFJB@?$AAs?$AAr?$AA?9?$AAB?$AAA?$AA?9?$AAL?$AAa?$AAt?$AAn?$AA?$AA@ 0000000180032838     libucrt:lcidtoname_downlevel.obj
 0002:00004850       ??_C@_1O@KEMEEGPO@?$AAs?$AAm?$AAa?$AA?9?$AAN?$AAO?$AA?$AA@ 0000000180032850     libucrt:lcidtoname_downlevel.obj
 0002:00004860       ??_C@_1M@ELMGFODK@?$AAa?$AAr?$AA?9?$AAT?$AAN?$AA?$AA@ 0000000180032860     libucrt:lcidtoname_downlevel.obj
 0002:00004870       ??_C@_1M@BHDLHFAF@?$AAe?$AAn?$AA?9?$AAZ?$AAA?$AA?$AA@ 0000000180032870     libucrt:lcidtoname_downlevel.obj
 0002:00004880       ??_C@_1M@BMGIGLIF@?$AAe?$AAs?$AA?9?$AAD?$AAO?$AA?$AA@ 0000000180032880     libucrt:lcidtoname_downlevel.obj
 0002:00004890       ??_C@_1BG@CMBHIPBE@?$AAs?$AAr?$AA?9?$AAB?$AAA?$AA?9?$AAC?$AAy?$AAr?$AAl?$AA?$AA@ 0000000180032890     libucrt:lcidtoname_downlevel.obj
 0002:000048a8       ??_C@_1O@HEDBLHNP@?$AAs?$AAm?$AAa?$AA?9?$AAS?$AAE?$AA?$AA@ 00000001800328a8     libucrt:lcidtoname_downlevel.obj
 0002:000048b8       ??_C@_1M@DAGCADIM@?$AAa?$AAr?$AA?9?$AAO?$AAM?$AA?$AA@ 00000001800328b8     libucrt:lcidtoname_downlevel.obj
 0002:000048c8       ??_C@_1M@FODLMICG@?$AAe?$AAn?$AA?9?$AAJ?$AAM?$AA?$AA@ 00000001800328c8     libucrt:lcidtoname_downlevel.obj
 0002:000048d8       ??_C@_1M@DNMLCIHB@?$AAe?$AAs?$AA?9?$AAV?$AAE?$AA?$AA@ 00000001800328d8     libucrt:lcidtoname_downlevel.obj
 0002:000048e8       ??_C@_1O@EOKHMKJK@?$AAs?$AAm?$AAs?$AA?9?$AAF?$AAI?$AA?$AA@ 00000001800328e8     libucrt:lcidtoname_downlevel.obj
 0002:000048f8       ??_C@_1M@CAFJMKOF@?$AAa?$AAr?$AA?9?$AAY?$AAE?$AA?$AA@ 00000001800328f8     libucrt:lcidtoname_downlevel.obj
 0002:00004908       ??_C@_1M@CBFHIJLI@?$AAe?$AAn?$AA?9?$AAC?$AAB?$AA?$AA@ 0000000180032908     libucrt:lcidtoname_downlevel.obj
 0002:00004918       ??_C@_1M@BGNFLDN@?$AAe?$AAs?$AA?9?$AAC?$AAO?$AA?$AA@ 0000000180032918     libucrt:lcidtoname_downlevel.obj
 0002:00004928       ??_C@_1O@JMPHMAMC@?$AAs?$AAm?$AAn?$AA?9?$AAF?$AAI?$AA?$AA@ 0000000180032928     libucrt:lcidtoname_downlevel.obj
 0002:00004938       ??_C@_1M@JLANABKE@?$AAa?$AAr?$AA?9?$AAS?$AAY?$AA?$AA@ 0000000180032938     libucrt:lcidtoname_downlevel.obj
 0002:00004948       ??_C@_1M@HPKGCFGN@?$AAe?$AAn?$AA?9?$AAB?$AAZ?$AA?$AA@ 0000000180032948     libucrt:lcidtoname_downlevel.obj
 0002:00004958       ??_C@_1M@OLJCMLGM@?$AAe?$AAs?$AA?9?$AAP?$AAE?$AA?$AA@ 0000000180032958     libucrt:lcidtoname_downlevel.obj
 0002:00004968       ??_C@_1M@MKKGFKLE@?$AAa?$AAr?$AA?9?$AAJ?$AAO?$AA?$AA@ 0000000180032968     libucrt:lcidtoname_downlevel.obj
 0002:00004978       ??_C@_1M@EKPGLDNI@?$AAe?$AAn?$AA?9?$AAT?$AAT?$AA?$AA@ 0000000180032978     libucrt:lcidtoname_downlevel.obj
 0002:00004988       ??_C@_1M@OONGHFHE@?$AAe?$AAs?$AA?9?$AAA?$AAR?$AA?$AA@ 0000000180032988     libucrt:lcidtoname_downlevel.obj
 0002:00004998       ??_C@_1M@OOJFGBHE@?$AAa?$AAr?$AA?9?$AAL?$AAB?$AA?$AA@ 0000000180032998     libucrt:lcidtoname_downlevel.obj
 0002:000049a8       ??_C@_1M@GCEJHNEG@?$AAe?$AAn?$AA?9?$AAZ?$AAW?$AA?$AA@ 00000001800329a8     libucrt:lcidtoname_downlevel.obj
 0002:000049b8       ??_C@_1M@JNOCAHJI@?$AAe?$AAs?$AA?9?$AAE?$AAC?$AA?$AA@ 00000001800329b8     libucrt:lcidtoname_downlevel.obj
 0002:000049c8       ??_C@_1M@JEFHPGGB@?$AAa?$AAr?$AA?9?$AAK?$AAW?$AA?$AA@ 00000001800329c8     libucrt:lcidtoname_downlevel.obj
 0002:000049d8       ??_C@_1M@MLKIBJOJ@?$AAe?$AAn?$AA?9?$AAP?$AAH?$AA?$AA@ 00000001800329d8     libucrt:lcidtoname_downlevel.obj
 0002:000049e8       ??_C@_1M@BDNIPEND@?$AAe?$AAs?$AA?9?$AAC?$AAL?$AA?$AA@ 00000001800329e8     libucrt:lcidtoname_downlevel.obj
 0002:000049f8       ??_C@_1M@MPNMEKBD@?$AAa?$AAr?$AA?9?$AAA?$AAE?$AA?$AA@ 00000001800329f8     libucrt:lcidtoname_downlevel.obj
 0002:00004a08       ??_C@_1M@KBJALCPI@?$AAe?$AAs?$AA?9?$AAU?$AAY?$AA?$AA@ 0000000180032a08     libucrt:lcidtoname_downlevel.obj
 0002:00004a18       ??_C@_1M@LLCCOAGA@?$AAa?$AAr?$AA?9?$AAB?$AAH?$AA?$AA@ 0000000180032a18     libucrt:lcidtoname_downlevel.obj
 0002:00004a28       ??_C@_1M@PBFNCDEL@?$AAe?$AAs?$AA?9?$AAP?$AAY?$AA?$AA@ 0000000180032a28     libucrt:lcidtoname_downlevel.obj
 0002:00004a38       ??_C@_1M@EDGINPNP@?$AAa?$AAr?$AA?9?$AAQ?$AAA?$AA?$AA@ 0000000180032a38     libucrt:lcidtoname_downlevel.obj
 0002:00004a48       ??_C@_1M@MKDBIIJI@?$AAe?$AAs?$AA?9?$AAB?$AAO?$AA?$AA@ 0000000180032a48     libucrt:lcidtoname_downlevel.obj
 0002:00004a58       ??_C@_1M@CPKKEBLD@?$AAe?$AAs?$AA?9?$AAS?$AAV?$AA?$AA@ 0000000180032a58     libucrt:lcidtoname_downlevel.obj
 0002:00004a68       ??_C@_1M@NDBGMMJL@?$AAe?$AAs?$AA?9?$AAH?$AAN?$AA?$AA@ 0000000180032a68     libucrt:lcidtoname_downlevel.obj
 0002:00004a78       ??_C@_1M@JIJIBHDP@?$AAe?$AAs?$AA?9?$AAN?$AAI?$AA?$AA@ 0000000180032a78     libucrt:lcidtoname_downlevel.obj
 0002:00004a88       ??_C@_1M@CGFMKEEK@?$AAe?$AAs?$AA?9?$AAP?$AAR?$AA?$AA@ 0000000180032a88     libucrt:lcidtoname_downlevel.obj
 0002:00004a98       ??_C@_1O@ICJHKIIK@?$AAz?$AAh?$AA?9?$AAC?$AAH?$AAT?$AA?$AA@ 0000000180032a98     libucrt:lcidtoname_downlevel.obj
 0002:00004aa8       ??_C@_15CLNEJCE@?$AAs?$AAr?$AA?$AA@ 0000000180032aa8     libucrt:lcidtoname_downlevel.obj
 0002:000058f0       ??_C@_1M@KAHEKEIG@?$AAa?$AAf?$AA?9?$AAz?$AAa?$AA?$AA@ 00000001800338f0     libucrt:lcidtoname_downlevel.obj
 0002:00005900       ??_C@_1M@GIECOABL@?$AAa?$AAr?$AA?9?$AAa?$AAe?$AA?$AA@ 0000000180033900     libucrt:lcidtoname_downlevel.obj
 0002:00005910       ??_C@_1M@BMLMEKGI@?$AAa?$AAr?$AA?9?$AAb?$AAh?$AA?$AA@ 0000000180033910     libucrt:lcidtoname_downlevel.obj
 0002:00005920       ??_C@_1M@DAPFDGGB@?$AAa?$AAr?$AA?9?$AAd?$AAz?$AA?$AA@ 0000000180033920     libucrt:lcidtoname_downlevel.obj
 0002:00005930       ??_C@_1M@FJNKGKIG@?$AAa?$AAr?$AA?9?$AAe?$AAg?$AA?$AA@ 0000000180033930     libucrt:lcidtoname_downlevel.obj
 0002:00005940       ??_C@_1M@FLGKKCLO@?$AAa?$AAr?$AA?9?$AAi?$AAq?$AA?$AA@ 0000000180033940     libucrt:lcidtoname_downlevel.obj
 0002:00005950       ??_C@_1M@GNDIPALM@?$AAa?$AAr?$AA?9?$AAj?$AAo?$AA?$AA@ 0000000180033950     libucrt:lcidtoname_downlevel.obj
 0002:00005960       ??_C@_1M@DDMJFMGJ@?$AAa?$AAr?$AA?9?$AAk?$AAw?$AA?$AA@ 0000000180033960     libucrt:lcidtoname_downlevel.obj
 0002:00005970       ??_C@_1M@EJALMLHM@?$AAa?$AAr?$AA?9?$AAl?$AAb?$AA?$AA@ 0000000180033970     libucrt:lcidtoname_downlevel.obj
 0002:00005980       ??_C@_1M@MOBDBLOC@?$AAa?$AAr?$AA?9?$AAl?$AAy?$AA?$AA@ 0000000180033980     libucrt:lcidtoname_downlevel.obj
 0002:00005990       ??_C@_1M@JAOCLHDH@?$AAa?$AAr?$AA?9?$AAm?$AAa?$AA?$AA@ 0000000180033990     libucrt:lcidtoname_downlevel.obj
 0002:000059a0       ??_C@_1M@JHPMKJIE@?$AAa?$AAr?$AA?9?$AAo?$AAm?$AA?$AA@ 00000001800339a0     libucrt:lcidtoname_downlevel.obj
 0002:000059b0       ??_C@_1M@OEPGHFNH@?$AAa?$AAr?$AA?9?$AAq?$AAa?$AA?$AA@ 00000001800339b0     libucrt:lcidtoname_downlevel.obj
 0002:000059c0       ??_C@_1M@KJDONENM@?$AAa?$AAr?$AA?9?$AAs?$AAa?$AA?$AA@ 00000001800339c0     libucrt:lcidtoname_downlevel.obj
 0002:000059d0       ??_C@_1M@DMJDKLKM@?$AAa?$AAr?$AA?9?$AAs?$AAy?$AA?$AA@ 00000001800339d0     libucrt:lcidtoname_downlevel.obj
 0002:000059e0       ??_C@_1M@OMFIPEDC@?$AAa?$AAr?$AA?9?$AAt?$AAn?$AA?$AA@ 00000001800339e0     libucrt:lcidtoname_downlevel.obj
 0002:000059f0       ??_C@_1M@IHMHGAON@?$AAa?$AAr?$AA?9?$AAy?$AAe?$AA?$AA@ 00000001800339f0     libucrt:lcidtoname_downlevel.obj
 0002:00005a00       ??_C@_1BG@KDCPGJGB@?$AAa?$AAz?$AA?9?$AAa?$AAz?$AA?9?$AAc?$AAy?$AAr?$AAl?$AA?$AA@ 0000000180033a00     libucrt:lcidtoname_downlevel.obj
 0002:00005a18       ??_C@_1BG@IBCKDDOE@?$AAa?$AAz?$AA?9?$AAa?$AAz?$AA?9?$AAl?$AAa?$AAt?$AAn?$AA?$AA@ 0000000180033a18     libucrt:lcidtoname_downlevel.obj
 0002:00005a30       ??_C@_1M@EGPFDCPD@?$AAb?$AAe?$AA?9?$AAb?$AAy?$AA?$AA@ 0000000180033a30     libucrt:lcidtoname_downlevel.obj
 0002:00005a40       ??_C@_1M@PCMGMCGC@?$AAb?$AAg?$AA?9?$AAb?$AAg?$AA?$AA@ 0000000180033a40     libucrt:lcidtoname_downlevel.obj
 0002:00005a50       ??_C@_1M@BJBMFGOB@?$AAb?$AAn?$AA?9?$AAi?$AAn?$AA?$AA@ 0000000180033a50     libucrt:lcidtoname_downlevel.obj
 0002:00005a60       ??_C@_1BG@EAKMMACD@?$AAb?$AAs?$AA?9?$AAb?$AAa?$AA?9?$AAl?$AAa?$AAt?$AAn?$AA?$AA@ 0000000180033a60     libucrt:lcidtoname_downlevel.obj
 0002:00005a78       ??_C@_1M@KGADAODK@?$AAc?$AAa?$AA?9?$AAe?$AAs?$AA?$AA@ 0000000180033a78     libucrt:lcidtoname_downlevel.obj
 0002:00005a88       ??_C@_1M@COAJPDHI@?$AAc?$AAs?$AA?9?$AAc?$AAz?$AA?$AA@ 0000000180033a88     libucrt:lcidtoname_downlevel.obj
 0002:00005a98       ??_C@_1M@DHBHFONH@?$AAc?$AAy?$AA?9?$AAg?$AAb?$AA?$AA@ 0000000180033a98     libucrt:lcidtoname_downlevel.obj
 0002:00005aa8       ??_C@_1M@IMGKELGA@?$AAd?$AAa?$AA?9?$AAd?$AAk?$AA?$AA@ 0000000180033aa8     libucrt:lcidtoname_downlevel.obj
 0002:00005ab8       ??_C@_1M@NNDGDNGA@?$AAd?$AAe?$AA?9?$AAa?$AAt?$AA?$AA@ 0000000180033ab8     libucrt:lcidtoname_downlevel.obj
 0002:00005ac8       ??_C@_1M@IKDBHEEM@?$AAd?$AAe?$AA?9?$AAc?$AAh?$AA?$AA@ 0000000180033ac8     libucrt:lcidtoname_downlevel.obj
 0002:00005ad8       ??_C@_1M@GFFOJMCJ@?$AAd?$AAe?$AA?9?$AAd?$AAe?$AA?$AA@ 0000000180033ad8     libucrt:lcidtoname_downlevel.obj
 0002:00005ae8       ??_C@_1M@MDNLKBPM@?$AAd?$AAe?$AA?9?$AAl?$AAi?$AA?$AA@ 0000000180033ae8     libucrt:lcidtoname_downlevel.obj
 0002:00005af8       ??_C@_1M@NJBEEJNL@?$AAd?$AAe?$AA?9?$AAl?$AAu?$AA?$AA@ 0000000180033af8     libucrt:lcidtoname_downlevel.obj
 0002:00005b08       ??_C@_1O@GNNELBAP@?$AAd?$AAi?$AAv?$AA?9?$AAm?$AAv?$AA?$AA@ 0000000180033b08     libucrt:lcidtoname_downlevel.obj
 0002:00005b18       ??_C@_1M@EJLEOGAE@?$AAe?$AAl?$AA?9?$AAg?$AAr?$AA?$AA@ 0000000180033b18     libucrt:lcidtoname_downlevel.obj
 0002:00005b28       ??_C@_1M@GMPONJN@?$AAe?$AAn?$AA?9?$AAa?$AAu?$AA?$AA@ 0000000180033b28     libucrt:lcidtoname_downlevel.obj
 0002:00005b38       ??_C@_1M@NIDIIPGF@?$AAe?$AAn?$AA?9?$AAb?$AAz?$AA?$AA@ 0000000180033b38     libucrt:lcidtoname_downlevel.obj
 0002:00005b48       ??_C@_1M@JEHMIMFO@?$AAe?$AAn?$AA?9?$AAc?$AAa?$AA?$AA@ 0000000180033b48     libucrt:lcidtoname_downlevel.obj
 0002:00005b58       ??_C@_1M@IGMJCDLA@?$AAe?$AAn?$AA?9?$AAc?$AAb?$AA?$AA@ 0000000180033b58     libucrt:lcidtoname_downlevel.obj
 0002:00005b68       ??_C@_1M@BNFIGBKG@?$AAe?$AAn?$AA?9?$AAg?$AAb?$AA?$AA@ 0000000180033b68     libucrt:lcidtoname_downlevel.obj
 0002:00005b78       ??_C@_1M@LKIFDIGP@?$AAe?$AAn?$AA?9?$AAi?$AAe?$AA?$AA@ 0000000180033b78     libucrt:lcidtoname_downlevel.obj
 0002:00005b88       ??_C@_1M@PJKFGCCO@?$AAe?$AAn?$AA?9?$AAj?$AAm?$AA?$AA@ 0000000180033b88     libucrt:lcidtoname_downlevel.obj
 0002:00005b98       ??_C@_1M@KPPKEPBO@?$AAe?$AAn?$AA?9?$AAn?$AAz?$AA?$AA@ 0000000180033b98     libucrt:lcidtoname_downlevel.obj
 0002:00005ba8       ??_C@_1M@GMDGLDOB@?$AAe?$AAn?$AA?9?$AAp?$AAh?$AA?$AA@ 0000000180033ba8     libucrt:lcidtoname_downlevel.obj
 0002:00005bb8       ??_C@_1M@ONGIBJNA@?$AAe?$AAn?$AA?9?$AAt?$AAt?$AA?$AA@ 0000000180033bb8     libucrt:lcidtoname_downlevel.obj
 0002:00005bc8       ??_C@_1M@LLODPCMM@?$AAe?$AAn?$AA?9?$AAu?$AAs?$AA?$AA@ 0000000180033bc8     libucrt:lcidtoname_downlevel.obj
 0002:00005bd8       ??_C@_1M@LAKFNPAN@?$AAe?$AAn?$AA?9?$AAz?$AAa?$AA?$AA@ 0000000180033bd8     libucrt:lcidtoname_downlevel.obj
 0002:00005be8       ??_C@_1M@MFNHNHEO@?$AAe?$AAn?$AA?9?$AAz?$AAw?$AA?$AA@ 0000000180033be8     libucrt:lcidtoname_downlevel.obj
 0002:00005bf8       ??_C@_1M@EJEINPHM@?$AAe?$AAs?$AA?9?$AAa?$AAr?$AA?$AA@ 0000000180033bf8     libucrt:lcidtoname_downlevel.obj
 0002:00005c08       ??_C@_1M@GNKPCCJA@?$AAe?$AAs?$AA?9?$AAb?$AAo?$AA?$AA@ 0000000180033c08     libucrt:lcidtoname_downlevel.obj
 0002:00005c18       ??_C@_1M@LEEGFONL@?$AAe?$AAs?$AA?9?$AAc?$AAl?$AA?$AA@ 0000000180033c18     libucrt:lcidtoname_downlevel.obj
 0002:00005c28       ??_C@_1M@KGPDPBDF@?$AAe?$AAs?$AA?9?$AAc?$AAo?$AA?$AA@ 0000000180033c28     libucrt:lcidtoname_downlevel.obj
 0002:00005c38       ??_C@_1M@EIAHOHH@?$AAe?$AAs?$AA?9?$AAc?$AAr?$AA?$AA@ 0000000180033c38     libucrt:lcidtoname_downlevel.obj
 0002:00005c48       ??_C@_1M@LLPGMBIN@?$AAe?$AAs?$AA?9?$AAd?$AAo?$AA?$AA@ 0000000180033c48     libucrt:lcidtoname_downlevel.obj
 0002:00005c58       ??_C@_1M@DKHMKNJA@?$AAe?$AAs?$AA?9?$AAe?$AAc?$AA?$AA@ 0000000180033c58     libucrt:lcidtoname_downlevel.obj
 0002:00005c68       ??_C@_1M@GKGFPKAP@?$AAe?$AAs?$AA?9?$AAe?$AAs?$AA?$AA@ 0000000180033c68     libucrt:lcidtoname_downlevel.obj
 0002:00005c78       ??_C@_1M@LKHKGDLN@?$AAe?$AAs?$AA?9?$AAg?$AAt?$AA?$AA@ 0000000180033c78     libucrt:lcidtoname_downlevel.obj
 0002:00005c88       ??_C@_1M@HEIIGGJD@?$AAe?$AAs?$AA?9?$AAh?$AAn?$AA?$AA@ 0000000180033c88     libucrt:lcidtoname_downlevel.obj
 0002:00005c98       ??_C@_1M@FBDHPPGD@?$AAe?$AAs?$AA?9?$AAm?$AAx?$AA?$AA@ 0000000180033c98     libucrt:lcidtoname_downlevel.obj
 0002:00005ca8       ??_C@_1M@DPAGLNDH@?$AAe?$AAs?$AA?9?$AAn?$AAi?$AA?$AA@ 0000000180033ca8     libucrt:lcidtoname_downlevel.obj
 0002:00005cb8       ??_C@_1M@MDGOPGDD@?$AAe?$AAs?$AA?9?$AAp?$AAa?$AA?$AA@ 0000000180033cb8     libucrt:lcidtoname_downlevel.obj
 0002:00005cc8       ??_C@_1M@EMAMGBGE@?$AAe?$AAs?$AA?9?$AAp?$AAe?$AA?$AA@ 0000000180033cc8     libucrt:lcidtoname_downlevel.obj
 0002:00005cd8       ??_C@_1M@IBMCAOEC@?$AAe?$AAs?$AA?9?$AAp?$AAr?$AA?$AA@ 0000000180033cd8     libucrt:lcidtoname_downlevel.obj
 0002:00005ce8       ??_C@_1M@FGMDIJED@?$AAe?$AAs?$AA?9?$AAp?$AAy?$AA?$AA@ 0000000180033ce8     libucrt:lcidtoname_downlevel.obj
 0002:00005cf8       ??_C@_1M@IIDEOLLL@?$AAe?$AAs?$AA?9?$AAs?$AAv?$AA?$AA@ 0000000180033cf8     libucrt:lcidtoname_downlevel.obj
 0002:00005d08       ??_C@_1M@GAOBIPA@?$AAe?$AAs?$AA?9?$AAu?$AAy?$AA?$AA@ 0000000180033d08     libucrt:lcidtoname_downlevel.obj
 0002:00005d18       ??_C@_1M@JKFFICHJ@?$AAe?$AAs?$AA?9?$AAv?$AAe?$AA?$AA@ 0000000180033d18     libucrt:lcidtoname_downlevel.obj
 0002:00005d28       ??_C@_1M@PNMLOJDF@?$AAe?$AAt?$AA?9?$AAe?$AAe?$AA?$AA@ 0000000180033d28     libucrt:lcidtoname_downlevel.obj
 0002:00005d38       ??_C@_1M@GHHLIKEI@?$AAe?$AAu?$AA?9?$AAe?$AAs?$AA?$AA@ 0000000180033d38     libucrt:lcidtoname_downlevel.obj
 0002:00005d48       ??_C@_1M@PBNONODE@?$AAf?$AAa?$AA?9?$AAi?$AAr?$AA?$AA@ 0000000180033d48     libucrt:lcidtoname_downlevel.obj
 0002:00005d58       ??_C@_1M@JEEHPMIL@?$AAf?$AAi?$AA?9?$AAf?$AAi?$AA?$AA@ 0000000180033d58     libucrt:lcidtoname_downlevel.obj
 0002:00005d68       ??_C@_1M@LMDCNDBA@?$AAf?$AAo?$AA?9?$AAf?$AAo?$AA?$AA@ 0000000180033d68     libucrt:lcidtoname_downlevel.obj
 0002:00005d78       ??_C@_1M@JKEOHLDK@?$AAf?$AAr?$AA?9?$AAb?$AAe?$AA?$AA@ 0000000180033d78     libucrt:lcidtoname_downlevel.obj
 0002:00005d88       ??_C@_1M@NOHADPMI@?$AAf?$AAr?$AA?9?$AAc?$AAa?$AA?$AA@ 0000000180033d88     libucrt:lcidtoname_downlevel.obj
 0002:00005d98       ??_C@_1M@KDHIHAEC@?$AAf?$AAr?$AA?9?$AAc?$AAh?$AA?$AA@ 0000000180033d98     libucrt:lcidtoname_downlevel.obj
 0002:00005da8       ??_C@_1M@MMBBFGAK@?$AAf?$AAr?$AA?9?$AAf?$AAr?$AA?$AA@ 0000000180033da8     libucrt:lcidtoname_downlevel.obj
 0002:00005db8       ??_C@_1M@PAFNENNF@?$AAf?$AAr?$AA?9?$AAl?$AAu?$AA?$AA@ 0000000180033db8     libucrt:lcidtoname_downlevel.obj
 0002:00005dc8       ??_C@_1M@EOHDJGDD@?$AAf?$AAr?$AA?9?$AAm?$AAc?$AA?$AA@ 0000000180033dc8     libucrt:lcidtoname_downlevel.obj
 0002:00005dd8       ??_C@_1M@FAPLLOPF@?$AAg?$AAl?$AA?9?$AAe?$AAs?$AA?$AA@ 0000000180033dd8     libucrt:lcidtoname_downlevel.obj
 0002:00005de8       ??_C@_1M@FOPBFLOO@?$AAg?$AAu?$AA?9?$AAi?$AAn?$AA?$AA@ 0000000180033de8     libucrt:lcidtoname_downlevel.obj
 0002:00005df8       ??_C@_1M@KBMCINPM@?$AAh?$AAe?$AA?9?$AAi?$AAl?$AA?$AA@ 0000000180033df8     libucrt:lcidtoname_downlevel.obj
 0002:00005e08       ??_C@_1M@BBPHKFPJ@?$AAh?$AAi?$AA?9?$AAi?$AAn?$AA?$AA@ 0000000180033e08     libucrt:lcidtoname_downlevel.obj
 0002:00005e18       ??_C@_1M@PMBNDPHD@?$AAh?$AAr?$AA?9?$AAb?$AAa?$AA?$AA@ 0000000180033e18     libucrt:lcidtoname_downlevel.obj
 0002:00005e28       ??_C@_1M@BPCKOEGE@?$AAh?$AAr?$AA?9?$AAh?$AAr?$AA?$AA@ 0000000180033e28     libucrt:lcidtoname_downlevel.obj
 0002:00005e38       ??_C@_1M@GACBMHKE@?$AAh?$AAu?$AA?9?$AAh?$AAu?$AA?$AA@ 0000000180033e38     libucrt:lcidtoname_downlevel.obj
 0002:00005e48       ??_C@_1M@MILPAJJC@?$AAh?$AAy?$AA?9?$AAa?$AAm?$AA?$AA@ 0000000180033e48     libucrt:lcidtoname_downlevel.obj
 0002:00005e58       ??_C@_1M@BABBICEC@?$AAi?$AAd?$AA?9?$AAi?$AAd?$AA?$AA@ 0000000180033e58     libucrt:lcidtoname_downlevel.obj
 0002:00005e68       ??_C@_1M@BIKNHHPF@?$AAi?$AAs?$AA?9?$AAi?$AAs?$AA?$AA@ 0000000180033e68     libucrt:lcidtoname_downlevel.obj
 0002:00005e78       ??_C@_1M@NMPCJPHE@?$AAi?$AAt?$AA?9?$AAc?$AAh?$AA?$AA@ 0000000180033e78     libucrt:lcidtoname_downlevel.obj
 0002:00005e88       ??_C@_1M@GHKGFEDF@?$AAi?$AAt?$AA?9?$AAi?$AAt?$AA?$AA@ 0000000180033e88     libucrt:lcidtoname_downlevel.obj
 0002:00005e98       ??_C@_1M@NIEJCJJA@?$AAj?$AAa?$AA?9?$AAj?$AAp?$AA?$AA@ 0000000180033e98     libucrt:lcidtoname_downlevel.obj
 0002:00005ea8       ??_C@_1M@JILFNBIM@?$AAk?$AAa?$AA?9?$AAg?$AAe?$AA?$AA@ 0000000180033ea8     libucrt:lcidtoname_downlevel.obj
 0002:00005eb8       ??_C@_1M@PACPMGPH@?$AAk?$AAk?$AA?9?$AAk?$AAz?$AA?$AA@ 0000000180033eb8     libucrt:lcidtoname_downlevel.obj
 0002:00005ec8       ??_C@_1M@IELFGMHA@?$AAk?$AAn?$AA?9?$AAi?$AAn?$AA?$AA@ 0000000180033ec8     libucrt:lcidtoname_downlevel.obj
 0002:00005ed8       ??_C@_1O@IBBJHCH@?$AAk?$AAo?$AAk?$AA?9?$AAi?$AAn?$AA?$AA@ 0000000180033ed8     libucrt:lcidtoname_downlevel.obj
 0002:00005ee8       ??_C@_1M@DMHAEOGC@?$AAk?$AAo?$AA?9?$AAk?$AAr?$AA?$AA@ 0000000180033ee8     libucrt:lcidtoname_downlevel.obj
 0002:00005ef8       ??_C@_1M@HBAHBIGA@?$AAk?$AAy?$AA?9?$AAk?$AAg?$AA?$AA@ 0000000180033ef8     libucrt:lcidtoname_downlevel.obj
 0002:00005f08       ??_C@_1M@KPMILCJG@?$AAl?$AAt?$AA?9?$AAl?$AAt?$AA?$AA@ 0000000180033f08     libucrt:lcidtoname_downlevel.obj
 0002:00005f18       ??_C@_1M@BDEKKCA@?$AAl?$AAv?$AA?9?$AAl?$AAv?$AA?$AA@ 0000000180033f18     libucrt:lcidtoname_downlevel.obj
 0002:00005f28       ??_C@_1M@ELCKCCJJ@?$AAm?$AAi?$AA?9?$AAn?$AAz?$AA?$AA@ 0000000180033f28     libucrt:lcidtoname_downlevel.obj
 0002:00005f38       ??_C@_1M@CBOOLAPA@?$AAm?$AAk?$AA?9?$AAm?$AAk?$AA?$AA@ 0000000180033f38     libucrt:lcidtoname_downlevel.obj
 0002:00005f48       ??_C@_1M@GPHNBJKN@?$AAm?$AAl?$AA?9?$AAi?$AAn?$AA?$AA@ 0000000180033f48     libucrt:lcidtoname_downlevel.obj
 0002:00005f58       ??_C@_1M@PABJILIG@?$AAm?$AAn?$AA?9?$AAm?$AAn?$AA?$AA@ 0000000180033f58     libucrt:lcidtoname_downlevel.obj
 0002:00005f68       ??_C@_1M@FGBKKIPG@?$AAm?$AAr?$AA?9?$AAi?$AAn?$AA?$AA@ 0000000180033f68     libucrt:lcidtoname_downlevel.obj
 0002:00005f78       ??_C@_1M@NDBPDDAL@?$AAm?$AAs?$AA?9?$AAb?$AAn?$AA?$AA@ 0000000180033f78     libucrt:lcidtoname_downlevel.obj
 0002:00005f88       ??_C@_1M@OPIHOOPI@?$AAm?$AAs?$AA?9?$AAm?$AAy?$AA?$AA@ 0000000180033f88     libucrt:lcidtoname_downlevel.obj
 0002:00005f98       ??_C@_1M@PPDBCNFM@?$AAm?$AAt?$AA?9?$AAm?$AAt?$AA?$AA@ 0000000180033f98     libucrt:lcidtoname_downlevel.obj
 0002:00005fa8       ??_C@_1M@KDJDKMDD@?$AAn?$AAb?$AA?9?$AAn?$AAo?$AA?$AA@ 0000000180033fa8     libucrt:lcidtoname_downlevel.obj
 0002:00005fb8       ??_C@_1M@KFCFLMJP@?$AAn?$AAl?$AA?9?$AAb?$AAe?$AA?$AA@ 0000000180033fb8     libucrt:lcidtoname_downlevel.obj
 0002:00005fc8       ??_C@_1M@KPOPDDGO@?$AAn?$AAl?$AA?9?$AAn?$AAl?$AA?$AA@ 0000000180033fc8     libucrt:lcidtoname_downlevel.obj
 0002:00005fd8       ??_C@_1M@LJKPEMLN@?$AAn?$AAn?$AA?9?$AAn?$AAo?$AA?$AA@ 0000000180033fd8     libucrt:lcidtoname_downlevel.obj
 0002:00005fe8       ??_C@_1M@BDGHHBFL@?$AAn?$AAs?$AA?9?$AAz?$AAa?$AA?$AA@ 0000000180033fe8     libucrt:lcidtoname_downlevel.obj
 0002:00005ff8       ??_C@_1M@IDEHOAP@?$AAp?$AAa?$AA?9?$AAi?$AAn?$AA?$AA@ 0000000180033ff8     libucrt:lcidtoname_downlevel.obj
 0002:00006008       ??_C@_1M@HDBKGOGH@?$AAp?$AAl?$AA?9?$AAp?$AAl?$AA?$AA@ 0000000180034008     libucrt:lcidtoname_downlevel.obj
 0002:00006018       ??_C@_1M@LJLLCMEH@?$AAp?$AAt?$AA?9?$AAb?$AAr?$AA?$AA@ 0000000180034018     libucrt:lcidtoname_downlevel.obj
 0002:00006028       ??_C@_1M@NCMONAAL@?$AAp?$AAt?$AA?9?$AAp?$AAt?$AA?$AA@ 0000000180034028     libucrt:lcidtoname_downlevel.obj
 0002:00006038       ??_C@_1O@EAKMAJDN@?$AAq?$AAu?$AAz?$AA?9?$AAb?$AAo?$AA?$AA@ 0000000180034038     libucrt:lcidtoname_downlevel.obj
 0002:00006048       ??_C@_1O@BHHPIGDN@?$AAq?$AAu?$AAz?$AA?9?$AAe?$AAc?$AA?$AA@ 0000000180034048     libucrt:lcidtoname_downlevel.obj
 0002:00006058       ??_C@_1O@GBAPEKMJ@?$AAq?$AAu?$AAz?$AA?9?$AAp?$AAe?$AA?$AA@ 0000000180034058     libucrt:lcidtoname_downlevel.obj
 0002:00006068       ??_C@_1M@CLGLEFBO@?$AAr?$AAo?$AA?9?$AAr?$AAo?$AA?$AA@ 0000000180034068     libucrt:lcidtoname_downlevel.obj
 0002:00006078       ??_C@_1M@CEEDODME@?$AAr?$AAu?$AA?9?$AAr?$AAu?$AA?$AA@ 0000000180034078     libucrt:lcidtoname_downlevel.obj
 0002:00006088       ??_C@_1M@HPKKKMPP@?$AAs?$AAa?$AA?9?$AAi?$AAn?$AA?$AA@ 0000000180034088     libucrt:lcidtoname_downlevel.obj
 0002:00006098       ??_C@_1M@BKMAIGOJ@?$AAs?$AAe?$AA?9?$AAf?$AAi?$AA?$AA@ 0000000180034098     libucrt:lcidtoname_downlevel.obj
 0002:000060a8       ??_C@_1M@NDPIFLFI@?$AAs?$AAe?$AA?9?$AAn?$AAo?$AA?$AA@ 00000001800340a8     libucrt:lcidtoname_downlevel.obj
 0002:000060b8       ??_C@_1M@DANKKHJ@?$AAs?$AAe?$AA?9?$AAs?$AAe?$AA?$AA@ 00000001800340b8     libucrt:lcidtoname_downlevel.obj
 0002:000060c8       ??_C@_1M@PNBLONPJ@?$AAs?$AAk?$AA?9?$AAs?$AAk?$AA?$AA@ 00000001800340c8     libucrt:lcidtoname_downlevel.obj
 0002:000060d8       ??_C@_1M@LFMODOAL@?$AAs?$AAl?$AA?9?$AAs?$AAi?$AA?$AA@ 00000001800340d8     libucrt:lcidtoname_downlevel.obj
 0002:000060e8       ??_C@_1O@DFKOMPG@?$AAs?$AAm?$AAa?$AA?9?$AAn?$AAo?$AA?$AA@ 00000001800340e8     libucrt:lcidtoname_downlevel.obj
 0002:000060f8       ??_C@_1O@NDKPBNNH@?$AAs?$AAm?$AAa?$AA?9?$AAs?$AAe?$AA?$AA@ 00000001800340f8     libucrt:lcidtoname_downlevel.obj
 0002:00006108       ??_C@_1O@PLLKBHAB@?$AAs?$AAm?$AAj?$AA?9?$AAn?$AAo?$AA?$AA@ 0000000180034108     libucrt:lcidtoname_downlevel.obj
 0002:00006118       ??_C@_1O@CLEPOGCA@?$AAs?$AAm?$AAj?$AA?9?$AAs?$AAe?$AA?$AA@ 0000000180034118     libucrt:lcidtoname_downlevel.obj
 0002:00006128       ??_C@_1O@DLGJGKMK@?$AAs?$AAm?$AAn?$AA?9?$AAf?$AAi?$AA?$AA@ 0000000180034128     libucrt:lcidtoname_downlevel.obj
 0002:00006138       ??_C@_1O@OJDJGAJC@?$AAs?$AAm?$AAs?$AA?9?$AAf?$AAi?$AA?$AA@ 0000000180034138     libucrt:lcidtoname_downlevel.obj
 0002:00006148       ??_C@_1M@BOFOGHPB@?$AAs?$AAq?$AA?9?$AAa?$AAl?$AA?$AA@ 0000000180034148     libucrt:lcidtoname_downlevel.obj
 0002:00006158       ??_C@_1BG@LJBBIPGB@?$AAs?$AAr?$AA?9?$AAb?$AAa?$AA?9?$AAc?$AAy?$AAr?$AAl?$AA?$AA@ 0000000180034158     libucrt:lcidtoname_downlevel.obj
 0002:00006170       ??_C@_1BG@JLBENFOE@?$AAs?$AAr?$AA?9?$AAb?$AAa?$AA?9?$AAl?$AAa?$AAt?$AAn?$AA?$AA@ 0000000180034170     libucrt:lcidtoname_downlevel.obj
 0002:00006188       ??_C@_1BG@KODPNHE@?$AAs?$AAr?$AA?9?$AAs?$AAp?$AA?9?$AAc?$AAy?$AAr?$AAl?$AA?$AA@ 0000000180034188     libucrt:lcidtoname_downlevel.obj
 0002:000061a0       ??_C@_1BG@CIOGKHPB@?$AAs?$AAr?$AA?9?$AAs?$AAp?$AA?9?$AAl?$AAa?$AAt?$AAn?$AA?$AA@ 00000001800341a0     libucrt:lcidtoname_downlevel.obj
 0002:000061b8       ??_C@_1M@NGFJLMAC@?$AAs?$AAv?$AA?9?$AAf?$AAi?$AA?$AA@ 00000001800341b8     libucrt:lcidtoname_downlevel.obj
 0002:000061c8       ??_C@_1M@MPJEJAJC@?$AAs?$AAv?$AA?9?$AAs?$AAe?$AA?$AA@ 00000001800341c8     libucrt:lcidtoname_downlevel.obj
 0002:000061d8       ??_C@_1M@MPNDHLFK@?$AAs?$AAw?$AA?9?$AAk?$AAe?$AA?$AA@ 00000001800341d8     libucrt:lcidtoname_downlevel.obj
 0002:000061e8       ??_C@_1O@KOHBJJI@?$AAs?$AAy?$AAr?$AA?9?$AAs?$AAy?$AA?$AA@ 00000001800341e8     libucrt:lcidtoname_downlevel.obj
 0002:000061f8       ??_C@_1M@LDCEFHA@?$AAt?$AAa?$AA?9?$AAi?$AAn?$AA?$AA@ 00000001800341f8     libucrt:lcidtoname_downlevel.obj
 0002:00006208       ??_C@_1M@CNJOFAK@?$AAt?$AAe?$AA?9?$AAi?$AAn?$AA?$AA@ 0000000180034208     libucrt:lcidtoname_downlevel.obj
 0002:00006218       ??_C@_1M@GNAECACD@?$AAt?$AAh?$AA?9?$AAt?$AAh?$AA?$AA@ 0000000180034218     libucrt:lcidtoname_downlevel.obj
 0002:00006228       ??_C@_1M@CHBIHOJO@?$AAt?$AAn?$AA?9?$AAz?$AAa?$AA?$AA@ 0000000180034228     libucrt:lcidtoname_downlevel.obj
 0002:00006238       ??_C@_1M@GCCMIGPJ@?$AAt?$AAr?$AA?9?$AAt?$AAr?$AA?$AA@ 0000000180034238     libucrt:lcidtoname_downlevel.obj
 0002:00006248       ??_C@_1M@CELMCNBK@?$AAt?$AAt?$AA?9?$AAr?$AAu?$AA?$AA@ 0000000180034248     libucrt:lcidtoname_downlevel.obj
 0002:00006258       ??_C@_1M@KLMCELGA@?$AAu?$AAk?$AA?9?$AAu?$AAa?$AA?$AA@ 0000000180034258     libucrt:lcidtoname_downlevel.obj
 0002:00006268       ??_C@_1M@EPAJJAJF@?$AAu?$AAr?$AA?9?$AAp?$AAk?$AA?$AA@ 0000000180034268     libucrt:lcidtoname_downlevel.obj
 0002:00006278       ??_C@_1BG@GEGPMCDJ@?$AAu?$AAz?$AA?9?$AAu?$AAz?$AA?9?$AAc?$AAy?$AAr?$AAl?$AA?$AA@ 0000000180034278     libucrt:lcidtoname_downlevel.obj
 0002:00006290       ??_C@_1BG@EGGKJILM@?$AAu?$AAz?$AA?9?$AAu?$AAz?$AA?9?$AAl?$AAa?$AAt?$AAn?$AA?$AA@ 0000000180034290     libucrt:lcidtoname_downlevel.obj
 0002:000062a8       ??_C@_1M@GFOCLFF@?$AAv?$AAi?$AA?9?$AAv?$AAn?$AA?$AA@ 00000001800342a8     libucrt:lcidtoname_downlevel.obj
 0002:000062b8       ??_C@_1M@CPAMEDFI@?$AAx?$AAh?$AA?9?$AAz?$AAa?$AA?$AA@ 00000001800342b8     libucrt:lcidtoname_downlevel.obj
 0002:000062c8       ??_C@_1O@EBKIFIGN@?$AAz?$AAh?$AA?9?$AAc?$AAh?$AAs?$AA?$AA@ 00000001800342c8     libucrt:lcidtoname_downlevel.obj
 0002:000062d8       ??_C@_1O@NMHPGANE@?$AAz?$AAh?$AA?9?$AAc?$AAh?$AAt?$AA?$AA@ 00000001800342d8     libucrt:lcidtoname_downlevel.obj
 0002:000062e8       ??_C@_1M@LPINJOMC@?$AAz?$AAh?$AA?9?$AAc?$AAn?$AA?$AA@ 00000001800342e8     libucrt:lcidtoname_downlevel.obj
 0002:000062f8       ??_C@_1M@OCJEJODD@?$AAz?$AAh?$AA?9?$AAh?$AAk?$AA?$AA@ 00000001800342f8     libucrt:lcidtoname_downlevel.obj
 0002:00006308       ??_C@_1M@DNDLJINH@?$AAz?$AAh?$AA?9?$AAm?$AAo?$AA?$AA@ 0000000180034308     libucrt:lcidtoname_downlevel.obj
 0002:00006318       ??_C@_1M@MBFDNDND@?$AAz?$AAh?$AA?9?$AAs?$AAg?$AA?$AA@ 0000000180034318     libucrt:lcidtoname_downlevel.obj
 0002:00006328       ??_C@_1M@IMEPLEPE@?$AAz?$AAh?$AA?9?$AAt?$AAw?$AA?$AA@ 0000000180034328     libucrt:lcidtoname_downlevel.obj
 0002:00006338       ??_C@_1M@BBGHNHJP@?$AAz?$AAu?$AA?9?$AAz?$AAa?$AA?$AA@ 0000000180034338     libucrt:lcidtoname_downlevel.obj
 0002:00006350       ?large_power_data@?1??multiply_by_power_of_ten@__crt_strtox@@YA_NAEAUbig_integer@2@I@Z@4QBIB 0000000180034350     libucrt:cfout.obj
 0002:00006c60       ?large_power_indices@?1??multiply_by_power_of_ten@__crt_strtox@@YA_NAEAUbig_integer@2@I@Z@4QBUunpack_index@?1??12@YA_N0I@Z@B 0000000180034c60     libucrt:cfout.obj
 0002:00006cf8       ?small_powers_of_ten@?6??multiply_by_power_of_ten@__crt_strtox@@YA_NAEAUbig_integer@2@I@Z@4QBIB 0000000180034cf8     libucrt:cfout.obj
 0002:00006d1c       ??_C@_05DNEBIAHO@1?$CDINF?$AA@ 0000000180034d1c     libucrt:cfout.obj
 0002:00006d24       ??_C@_06IMKFLFPG@1?$CDQNAN?$AA@ 0000000180034d24     libucrt:cfout.obj
 0002:00006d2c       ??_C@_06PGGFOGJG@1?$CDSNAN?$AA@ 0000000180034d2c     libucrt:cfout.obj
 0002:00006d34       ??_C@_05PHHOCPM@1?$CDIND?$AA@ 0000000180034d34     libucrt:cfout.obj
 0002:00006fa0       ??_C@_1BA@BALFACEM@?$AAC?$AAO?$AAN?$AAO?$AAU?$AAT?$AA$?$AA?$AA@ 0000000180034fa0     libucrt:initcon.obj
 0002:00006fb0       __log10_256_lead           0000000180034fb0     libucrt:log10_256_lead_tail_table.obj
 0002:000077c0       __log10_256_tail           00000001800357c0     libucrt:log10_256_lead_tail_table.obj
 0002:00007fd0       __log_F_inv_qword          0000000180035fd0     libucrt:log_f_inv_qword_table.obj
 0002:000087e0       ??_C@_1BK@DBDEIDLH@?$AAK?$AAE?$AAR?$AAN?$AAE?$AAL?$AA3?$AA2?$AA?4?$AAD?$AAL?$AAL?$AA?$AA@ 00000001800367e0     DelayImp:delayhlp.obj
 0002:00008800       ??_C@_0BI@OMNLIJDB@AcquireSRWLockExclusive?$AA@ 0000000180036800     DelayImp:delayhlp.obj
 0002:00008818       ??_C@_0BI@HMIEPCNJ@ReleaseSRWLockExclusive?$AA@ 0000000180036818     DelayImp:delayhlp.obj
 0002:00008830       __pfnDliFailureHook2       0000000180036830     DelayImp:delayhk1.obj
 0002:00008840       _load_config_used          0000000180036840     LIBCMT:loadcfg.obj
 0002:000088d8       ??_C@_1DG@OKCGPKIB@?$AAp?$AAe?$AAr?$AAs?$AAi?$AAs?$AAt?$AAe?$AAn?$AAt?$AA?$CI?$AA?$CJ?$AA?4?$AAI?$AAs?$AAN?$AAe?$AAa?$AAr?$AAD?$AAe?$AAa?$AAt?$AAh?$AA?$CI?$AA?$CJ?$AA?$AA@ 00000001800368d8     Canvas.obj
 0002:00008910       ??_C@_1CO@EGNPJLKI@?$AAp?$AAe?$AAr?$AAs?$AAi?$AAs?$AAt?$AAe?$AAn?$AAt?$AA?$CI?$AA?$CJ?$AA?4?$AAI?$AAs?$AAE?$AAm?$AAp?$AAt?$AAy?$AA?$CI?$AA?$CJ?$AA?$AA@ 0000000180036910     Canvas.obj
 0002:00008940       ??_C@_1DA@FBGAEOIO@?$AA?$CB?$AAp?$AAe?$AAr?$AAs?$AAi?$AAs?$AAt?$AAe?$AAn?$AAt?$AA?$CI?$AA?$CJ?$AA?4?$AAI?$AAs?$AAE?$AAm?$AAp?$AAt?$AAy?$AA?$CI?$AA?$CJ?$AA?$AA@ 0000000180036940     Canvas.obj
 0002:00008970       ??_C@_1CO@JCKLEFMA@?$AA?$CB?$AAp?$AAe?$AAr?$AAs?$AAi?$AAs?$AAt?$AAe?$AAn?$AAt?$AA?$CI?$AA?$CJ?$AA?4?$AAI?$AAs?$AAW?$AAe?$AAa?$AAk?$AA?$CI?$AA?$CJ?$AA?$AA@ 0000000180036970     Canvas.obj
 0002:000089a0       ??_C@_1BE@GMLLOIPJ@?$AAr?$AAe?$AAf?$AAs?$AA_?$AA?5?$AA?$DO?$AA?5?$AA0?$AA?$AA@ 00000001800369a0     Canvas.obj
 0002:000089b8       ??_C@_1CC@GBFLAAPF@?$AAw?$AAr?$AAa?$AAp?$AA?9?$AA?$DO?$AAr?$AAe?$AAf?$AAs?$AA_?$AA?5?$AA?$DN?$AA?$DN?$AA?5?$AA0?$AA?$AA@ 00000001800369b8     Canvas.obj
 0002:000089e0       ??_C@_1JA@BPGADHFM@?$AAC?$AA?3?$AA?2?$AAU?$AAs?$AAe?$AAr?$AAs?$AA?2?$AAr?$AAe?$AAs?$AAc?$AAh?$AA?2?$AAS?$AAo?$AAu?$AAr?$AAc?$AAe?$AA?2?$AAR?$AAe?$AAp?$AAo?$AAs?$AA?2?$AAW?$AAo?$AAr?$AAk@ 00000001800369e0     Canvas.obj
 0002:00008a70       ??_C@_1GA@PFOOBIAG@?$AAl?$AAe?$AAn?$AAg?$AAt?$AAh?$AA?5?$AA?$DM?$AA?$DN?$AA?5?$AAi?$AAm?$AAp?$AA?3?$AA?3?$AAk?$AAM?$AAa?$AAx?$AAL?$AAe?$AAn?$AAg?$AAt?$AAh?$AA?5?$AA?$CG?$AA?$CG?$AA?5?$AA?$CC?$AAt?$AAo@ 0000000180036a70     Canvas.obj
 0002:00008ad0       ??_C@_1FM@LOELJOFK@?$AAs?$AAi?$AAz?$AAe?$AA?5?$AA?$DM?$AA?$DN?$AA?5?$AAi?$AAm?$AAp?$AA?3?$AA?3?$AAk?$AAM?$AAa?$AAx?$AAL?$AAe?$AAn?$AAg?$AAt?$AAh?$AA?5?$AA?$CG?$AA?$CG?$AA?5?$AA?$CC?$AAt?$AAo?$AAo?$AA?5@ 0000000180036ad0     Canvas.obj
 0002:00008b30       ??_C@_1KI@CLGDJKOM@?$AAc?$AA?3?$AA?2?$AAu?$AAs?$AAe?$AAr?$AAs?$AA?2?$AAr?$AAe?$AAs?$AAc?$AAh?$AA?2?$AAs?$AAo?$AAu?$AAr?$AAc?$AAe?$AA?2?$AAr?$AAe?$AAp?$AAo?$AAs?$AA?2?$AAw?$AAo?$AAr?$AAk@ 0000000180036b30     Canvas.obj
 0002:00008be0       ??_C@_1EC@MGGLMBLC@?$AAo?$AAb?$AAj?$AAe?$AAc?$AAt?$AA?9?$AA?$DO?$AAI?$AAn?$AAt?$AAe?$AAr?$AAn?$AAa?$AAl?$AAF?$AAi?$AAe?$AAl?$AAd?$AAC?$AAo?$AAu?$AAn?$AAt?$AA?$CI?$AA?$CJ?$AA?5?$AA?$DO?$AA?5?$AA0@ 0000000180036be0     Canvas.obj
 0002:00008c28       ??_C@_1DI@ELDBKNAK@?$AAw?$AAr?$AAa?$AAp?$AA?9?$AA?$DO?$AAh?$AAa?$AAn?$AAd?$AAl?$AAe?$AA_?$AA?4?$AAI?$AAs?$AAN?$AAe?$AAa?$AAr?$AAD?$AAe?$AAa?$AAt?$AAh?$AA?$CI?$AA?$CJ?$AA?$AA@ 0000000180036c28     Canvas.obj
 0002:00008c60       ??_C@_05EGBLHKBN@1?44?43?$AA@ 0000000180036c60     Canvas.obj
 0002:00008c68       ??_C@_06PBIJCONE@Canvas?$AA@ 0000000180036c68     Canvas.obj
 0002:00008c70       ??_C@_08GOCDALDA@toBuffer?$AA@ 0000000180036c70     Canvas.obj
 0002:00008c80       ??_C@_0O@IOKOGJGN@streamPNGSync?$AA@ 0000000180036c80     Canvas.obj
 0002:00008c90       ??_C@_0O@OBICOFIG@streamPDFSync?$AA@ 0000000180036c90     Canvas.obj
 0002:00008ca0       ??_C@_04GPMDFGEJ@type?$AA@ 0000000180036ca0     Canvas.obj
 0002:00008ca8       ??_C@_06LNMIFCNI@stride?$AA@ 0000000180036ca8     Canvas.obj
 0002:00008cb0       ??_C@_05IGKADHGO@width?$AA@ 0000000180036cb0     Canvas.obj
 0002:00008cb8       ??_C@_06LNLHEAAG@height?$AA@ 0000000180036cb8     Canvas.obj
 0002:00008cc0       ??_C@_0P@DNOOAMCM@PNG_NO_FILTERS?$AA@ 0000000180036cc0     Canvas.obj
 0002:00008cd0       ??_C@_0BA@NECJFJGB@PNG_FILTER_NONE?$AA@ 0000000180036cd0     Canvas.obj
 0002:00008ce0       ??_C@_0P@ILKINAJE@PNG_FILTER_SUB?$AA@ 0000000180036ce0     Canvas.obj
 0002:00008cf0       ??_C@_0O@PHEANGBB@PNG_FILTER_UP?$AA@ 0000000180036cf0     Canvas.obj
 0002:00008d00       ??_C@_0P@OIJAFJM@PNG_FILTER_AVG?$AA@ 0000000180036d00     Canvas.obj
 0002:00008d10       ??_C@_0BB@EOMICOFG@PNG_FILTER_PAETH?$AA@ 0000000180036d10     Canvas.obj
 0002:00008d28       ??_C@_0BA@HBOOLNBH@PNG_ALL_FILTERS?$AA@ 0000000180036d28     Canvas.obj
 0002:00008d38       ??_C@_0DD@NOKGMICM@Class?5constructors?5cannot?5be?5inv@ 0000000180036d38     Canvas.obj
 0002:00008d6c       ??_C@_03MJPNCPKC@pdf?$AA@  0000000180036d6c     Canvas.obj
 0002:00008d70       ??_C@_03NNPBMGBD@svg?$AA@  0000000180036d70     Canvas.obj
 0002:00008d74       ??_C@_05NGOMGBBD@image?$AA@ 0000000180036d74     Canvas.obj
 0002:00008d7c       ??_C@_03DGOGAGNC@raw?$AA@  0000000180036d7c     Canvas.obj
 0002:00008d80       ??_C@_01GBGANLPD@0?$AA@    0000000180036d80     Canvas.obj
 0002:00008d88       ??_C@_0DE@NKCMEFAA@Allowed?5compression?5levels?5lie?5i@ 0000000180036d88     Canvas.obj
 0002:00008dc0       ??_C@_0CE@KMCMNKHK@Compression?5level?5must?5be?5a?5numb@ 0000000180036dc0     Canvas.obj
 0002:00008de8       ??_C@_0BG@HPFBKLBE@Invalid?5filter?5value?4?$AA@ 0000000180036de8     Canvas.obj
 0002:00008e00       ??_C@_0BL@NEPODJIN@callback?5function?5required?$AA@ 0000000180036e00     Canvas.obj
 0002:00008e20       ??_C@_0BC@FANAGBIP@wrong?5canvas?5type?$AA@ 0000000180036e20     Canvas.obj
 0002:00008e38       ??_C@_1CC@CMIELAMF@?$AA?4?$AA?4?$AA?2?$AAs?$AAr?$AAc?$AA?2?$AAC?$AAa?$AAn?$AAv?$AAa?$AAs?$AA?4?$AAc?$AAc?$AA?$AA@ 0000000180036e38     Canvas.obj
 0002:00008e60       ??_C@_1BC@KFAOGGDO@?$AA_?$AAc?$AAl?$AAo?$AAs?$AAu?$AAr?$AAe?$AA?$AA@ 0000000180036e60     Canvas.obj
 0002:00008e78       ??_C@_1DO@PEKPJEKO@?$AAs?$AAt?$AAa?$AAt?$AAu?$AAs?$AA?5?$AA?$DN?$AA?$DN?$AA?5?$AAC?$AAA?$AAI?$AAR?$AAO?$AA_?$AAS?$AAT?$AAA?$AAT?$AAU?$AAS?$AA_?$AAS?$AAU?$AAC?$AAC?$AAE?$AAS?$AAS?$AA?$AA@ 0000000180036e78     Canvas.obj
 0002:00008eb8       ??_C@_1BC@OIIGNDNN@?$AA_?$AAs?$AAu?$AAr?$AAf?$AAa?$AAc?$AAe?$AA?$AA@ 0000000180036eb8     Canvas.obj
 0002:00008ed0       ??_C@_07JKKCBBMM@context?$AA@ 0000000180036ed0     Canvas.obj
 0002:00008ed8       ??_C@_1CE@LNAGEONJ@?$AA?$CB?$AAo?$AAb?$AAj?$AAe?$AAc?$AAt?$AA?4?$AAI?$AAs?$AAE?$AAm?$AAp?$AAt?$AAy?$AA?$CI?$AA?$CJ?$AA?$AA@ 0000000180036ed8     Canvas.obj
 0002:00008f00       ??_7ObjectWrap@Nan@@6B@    0000000180036f00     Canvas.obj
 0002:00008f18       ??_7Canvas@@6B@            0000000180036f18     Canvas.obj
 0002:00008f30       ??_C@_0P@CKNMLMDB@CanvasGradient?$AA@ 0000000180036f30     CanvasGradient.obj
 0002:00008f40       ??_C@_0N@FFOKKILE@addColorStop?$AA@ 0000000180036f40     CanvasGradient.obj
 0002:00008f50       ??_C@_0BC@KNPMEBHA@invalid?5arguments?$AA@ 0000000180036f50     CanvasGradient.obj
 0002:00008f68       ??_C@_0BA@ELGKPKEI@offset?5required?$AA@ 0000000180036f68     CanvasGradient.obj
 0002:00008f78       ??_C@_0BG@HHHCEBEM@color?5string?5required?$AA@ 0000000180036f78     CanvasGradient.obj
 0002:00008f90       ??_C@_0BD@JKDEPLNJ@parse?5color?5failed?$AA@ 0000000180036f90     CanvasGradient.obj
 0002:00008fa8       ??_7Pattern@@6B@           0000000180036fa8     CanvasPattern.obj
 0002:00008fa8       ??_7Gradient@@6B@          0000000180036fa8     CanvasGradient.obj
 0002:00008fc0       ??_C@_0O@KEPDKAFI@CanvasPattern?$AA@ 0000000180036fc0     CanvasPattern.obj
 0002:00008fd0       ??_C@_0CG@CKGIHBBA@Image?5given?5has?5not?5completed?5lo@ 0000000180036fd0     CanvasPattern.obj
 0002:00008ff8       ??_C@_0BJ@NBALILEB@Image?5or?5Canvas?5expected?$AA@ 0000000180036ff8     CanvasPattern.obj
 0002:00009018       ??_C@_0BJ@HOMNLOJF@CanvasRenderingContext2D?$AA@ 0000000180037018     CanvasRenderingContext2d.obj
 0002:00009038       ??_C@_09LANPKMCJ@drawImage?$AA@ 0000000180037038     CanvasRenderingContext2d.obj
 0002:00009048       ??_C@_0N@HMHAOANH@putImageData?$AA@ 0000000180037048     CanvasRenderingContext2d.obj
 0002:00009058       ??_C@_0N@LJBMKNKJ@getImageData?$AA@ 0000000180037058     CanvasRenderingContext2d.obj
 0002:00009068       ??_C@_07IEJLLIOD@addPage?$AA@ 0000000180037068     CanvasRenderingContext2d.obj
 0002:00009070       ??_C@_04EMMDIJJL@save?$AA@ 0000000180037070     CanvasRenderingContext2d.obj
 0002:00009078       ??_C@_07HICINA@restore?$AA@ 0000000180037078     CanvasRenderingContext2d.obj
 0002:00009080       ??_C@_06CEHMNFAL@rotate?$AA@ 0000000180037080     CanvasRenderingContext2d.obj
 0002:00009088       ??_C@_09ODNGOEIO@translate?$AA@ 0000000180037088     CanvasRenderingContext2d.obj
 0002:00009098       ??_C@_09IFONHNKG@transform?$AA@ 0000000180037098     CanvasRenderingContext2d.obj
 0002:000090a8       ??_C@_0P@KBHJLFLN@resetTransform?$AA@ 00000001800370a8     CanvasRenderingContext2d.obj
 0002:000090b8       ??_C@_0O@MDNHBEAB@isPointInPath?$AA@ 00000001800370b8     CanvasRenderingContext2d.obj
 0002:000090c8       ??_C@_05MHMEBBGO@scale?$AA@ 00000001800370c8     CanvasRenderingContext2d.obj
 0002:000090d0       ??_C@_04POIGMEJN@clip?$AA@ 00000001800370d0     CanvasRenderingContext2d.obj
 0002:000090d8       ??_C@_04OBAECEGJ@fill?$AA@ 00000001800370d8     CanvasRenderingContext2d.obj
 0002:000090e0       ??_C@_06JDPPEKDJ@stroke?$AA@ 00000001800370e0     CanvasRenderingContext2d.obj
 0002:000090e8       ??_C@_08BKNBKKHP@fillText?$AA@ 00000001800370e8     CanvasRenderingContext2d.obj
 0002:000090f8       ??_C@_0L@NKNGGLJB@strokeText?$AA@ 00000001800370f8     CanvasRenderingContext2d.obj
 0002:00009108       ??_C@_08IFOCBDEO@fillRect?$AA@ 0000000180037108     CanvasRenderingContext2d.obj
 0002:00009118       ??_C@_0L@EFOFNCKA@strokeRect?$AA@ 0000000180037118     CanvasRenderingContext2d.obj
 0002:00009128       ??_C@_09CADLENBP@clearRect?$AA@ 0000000180037128     CanvasRenderingContext2d.obj
 0002:00009134       ??_C@_04LHPFHFPH@rect?$AA@ 0000000180037134     CanvasRenderingContext2d.obj
 0002:00009140       ??_C@_0M@PDPLNFGN@measureText?$AA@ 0000000180037140     CanvasRenderingContext2d.obj
 0002:0000914c       ??_C@_06ICOKFDHB@moveTo?$AA@ 000000018003714c     CanvasRenderingContext2d.obj
 0002:00009154       ??_C@_06KCFEGHJL@lineTo?$AA@ 0000000180037154     CanvasRenderingContext2d.obj
 0002:00009160       ??_C@_0O@PAEGDEKM@bezierCurveTo?$AA@ 0000000180037160     CanvasRenderingContext2d.obj
 0002:00009170       ??_C@_0BB@NNCDNEFE@quadraticCurveTo?$AA@ 0000000180037170     CanvasRenderingContext2d.obj
 0002:00009188       ??_C@_09GMDIDHBP@beginPath?$AA@ 0000000180037188     CanvasRenderingContext2d.obj
 0002:00009198       ??_C@_09FFNFMCIM@closePath?$AA@ 0000000180037198     CanvasRenderingContext2d.obj
 0002:000091a4       ??_C@_03EEIEDENP@arc?$AA@  00000001800371a4     CanvasRenderingContext2d.obj
 0002:000091a8       ??_C@_05KOMEJIOF@arcTo?$AA@ 00000001800371a8     CanvasRenderingContext2d.obj
 0002:000091b0       ??_C@_0M@KIBHMOJH@setLineDash?$AA@ 00000001800371b0     CanvasRenderingContext2d.obj
 0002:000091c0       ??_C@_0M@KHAJBIBE@getLineDash?$AA@ 00000001800371c0     CanvasRenderingContext2d.obj
 0002:000091d0       ??_C@_08GCBDMPHE@_setFont?$AA@ 00000001800371d0     CanvasRenderingContext2d.obj
 0002:000091e0       ??_C@_0O@LDAFEHIB@_setFillColor?$AA@ 00000001800371e0     CanvasRenderingContext2d.obj
 0002:000091f0       ??_C@_0BA@KNEOHGAJ@_setStrokeColor?$AA@ 00000001800371f0     CanvasRenderingContext2d.obj
 0002:00009200       ??_C@_0BA@PBFLDAPN@_setFillPattern?$AA@ 0000000180037200     CanvasRenderingContext2d.obj
 0002:00009210       ??_C@_0BC@FDNPDMMP@_setStrokePattern?$AA@ 0000000180037210     CanvasRenderingContext2d.obj
 0002:00009228       ??_C@_0BB@CFGDFFJO@_setTextBaseline?$AA@ 0000000180037228     CanvasRenderingContext2d.obj
 0002:00009240       ??_C@_0BC@FPEBGOFB@_setTextAlignment?$AA@ 0000000180037240     CanvasRenderingContext2d.obj
 0002:00009258       ??_C@_0P@HGKACBEG@patternQuality?$AA@ 0000000180037258     CanvasRenderingContext2d.obj
 0002:00009268       ??_C@_0BJ@KOAEPHEF@globalCompositeOperation?$AA@ 0000000180037268     CanvasRenderingContext2d.obj
 0002:00009288       ??_C@_0M@EJNLOLOE@globalAlpha?$AA@ 0000000180037288     CanvasRenderingContext2d.obj
 0002:00009298       ??_C@_0M@JPJLLJDB@shadowColor?$AA@ 0000000180037298     CanvasRenderingContext2d.obj
 0002:000092a8       ??_C@_09EGMCAAKI@fillColor?$AA@ 00000001800372a8     CanvasRenderingContext2d.obj
 0002:000092b8       ??_C@_0M@BLAMIBG@strokeColor?$AA@ 00000001800372b8     CanvasRenderingContext2d.obj
 0002:000092c8       ??_C@_0L@EFNIPLDK@miterLimit?$AA@ 00000001800372c8     CanvasRenderingContext2d.obj
 0002:000092d8       ??_C@_09PELAPJEH@lineWidth?$AA@ 00000001800372d8     CanvasRenderingContext2d.obj
 0002:000092e8       ??_C@_07IPBACFHB@lineCap?$AA@ 00000001800372e8     CanvasRenderingContext2d.obj
 0002:000092f0       ??_C@_08CCMLJKBL@lineJoin?$AA@ 00000001800372f0     CanvasRenderingContext2d.obj
 0002:00009300       ??_C@_0P@NNEFDNMM@lineDashOffset?$AA@ 0000000180037300     CanvasRenderingContext2d.obj
 0002:00009310       ??_C@_0O@FOAIOCIO@shadowOffsetX?$AA@ 0000000180037310     CanvasRenderingContext2d.obj
 0002:00009320       ??_C@_0O@EHBDNDMP@shadowOffsetY?$AA@ 0000000180037320     CanvasRenderingContext2d.obj
 0002:00009330       ??_C@_0L@FJBIPGOL@shadowBlur?$AA@ 0000000180037330     CanvasRenderingContext2d.obj
 0002:00009340       ??_C@_09BEIGEBLF@antialias?$AA@ 0000000180037340     CanvasRenderingContext2d.obj
 0002:00009350       ??_C@_0BA@GALDJJKL@textDrawingMode?$AA@ 0000000180037350     CanvasRenderingContext2d.obj
 0002:00009360       ??_C@_06EOIELIPE@filter?$AA@ 0000000180037360     CanvasRenderingContext2d.obj
 0002:00009368       ??_C@_0BJ@OLEJJKDH@CanvasRenderingContext2d?$AA@ 0000000180037368     CanvasRenderingContext2d.obj
 0002:00009388       ??_C@_07NOFPBGJH@evenodd?$AA@ 0000000180037388     CanvasRenderingContext2d.obj
 0002:00009390       ??_C@_0BA@IBFIJLCO@Canvas?5expected?$AA@ 0000000180037390     CanvasRenderingContext2d.obj
 0002:000093a0       ??_C@_0CG@EHLCPGGB@only?5PDF?5canvases?5support?5?4nextP@ 00000001800373a0     CanvasRenderingContext2d.obj
 0002:000093c8       ??_C@_0BD@DJPHEEKJ@ImageData?5expected?$AA@ 00000001800373c8     CanvasRenderingContext2d.obj
 0002:000093e0       ??_C@_0CH@NDMGIAMG@IndexSizeError?3?5The?5source?5width@ 00000001800373e0     CanvasRenderingContext2d.obj
 0002:00009408       ??_C@_0CI@HDADGBDO@IndexSizeError?3?5The?5source?5heigh@ 0000000180037408     CanvasRenderingContext2d.obj
 0002:00009430       ??_C@_0CD@KMCHNGIG@Expected?5object?0?5number?5and?5numb@ 0000000180037430     CanvasRenderingContext2d.obj
 0002:00009458       ??_C@_0M@OABMHCHE@source?9over?$AA@ 0000000180037458     CanvasRenderingContext2d.obj
 0002:00009468       ??_C@_0M@MKIEODMK@source?9atop?$AA@ 0000000180037468     CanvasRenderingContext2d.obj
 0002:00009478       ??_C@_09CMAEPNDN@source?9in?$AA@ 0000000180037478     CanvasRenderingContext2d.obj
 0002:00009488       ??_C@_0L@CGAPOHFD@source?9out?$AA@ 0000000180037488     CanvasRenderingContext2d.obj
 0002:00009494       ??_C@_03COLCDPPJ@xor?$AA@  0000000180037494     CanvasRenderingContext2d.obj
 0002:00009498       ??_C@_0BB@CPBJJEG@destination?9atop?$AA@ 0000000180037498     CanvasRenderingContext2d.obj
 0002:000094b0       ??_C@_0P@GAHJLNBO@destination?9in?$AA@ 00000001800374b0     CanvasRenderingContext2d.obj
 0002:000094c0       ??_C@_0BA@IECEOLGB@destination?9out?$AA@ 00000001800374c0     CanvasRenderingContext2d.obj
 0002:000094d0       ??_C@_0BB@CIGJAIPI@destination?9over?$AA@ 00000001800374d0     CanvasRenderingContext2d.obj
 0002:000094e4       ??_C@_05MEHLAELG@clear?$AA@ 00000001800374e4     CanvasRenderingContext2d.obj
 0002:000094ec       ??_C@_06OEKOLKIL@source?$AA@ 00000001800374ec     CanvasRenderingContext2d.obj
 0002:000094f4       ??_C@_04EEHDLEKF@dest?$AA@ 00000001800374f4     CanvasRenderingContext2d.obj
 0002:000094fc       ??_C@_04DPPOAFIB@over?$AA@ 00000001800374fc     CanvasRenderingContext2d.obj
 0002:00009508       ??_C@_08MEKLKAIJ@saturate?$AA@ 0000000180037508     CanvasRenderingContext2d.obj
 0002:00009518       ??_C@_07OODLOHBD@lighten?$AA@ 0000000180037518     CanvasRenderingContext2d.obj
 0002:00009520       ??_C@_03BDGOHNNK@add?$AA@  0000000180037520     CanvasRenderingContext2d.obj
 0002:00009524       ??_C@_06OCOCEFJK@darker?$AA@ 0000000180037524     CanvasRenderingContext2d.obj
 0002:00009530       ??_C@_08MMOCDOEL@multiply?$AA@ 0000000180037530     CanvasRenderingContext2d.obj
 0002:0000953c       ??_C@_06LPLGMLP@screen?$AA@ 000000018003753c     CanvasRenderingContext2d.obj
 0002:00009548       ??_C@_07BJNHBMF@overlay?$AA@ 0000000180037548     CanvasRenderingContext2d.obj
 0002:00009550       ??_C@_0L@CEKGHIKD@hard?9light?$AA@ 0000000180037550     CanvasRenderingContext2d.obj
 0002:00009560       ??_C@_0L@DKCPCJMJ@soft?9light?$AA@ 0000000180037560     CanvasRenderingContext2d.obj
 0002:00009570       ??_C@_07LGBGJPAP@hsl?9hue?$AA@ 0000000180037570     CanvasRenderingContext2d.obj
 0002:00009578       ??_C@_0P@HLIOCFIP@hsl?9saturation?$AA@ 0000000180037578     CanvasRenderingContext2d.obj
 0002:00009588       ??_C@_09IEDFIDAP@hsl?9color?$AA@ 0000000180037588     CanvasRenderingContext2d.obj
 0002:00009598       ??_C@_0P@HOBGGHID@hsl?9luminosity?$AA@ 0000000180037598     CanvasRenderingContext2d.obj
 0002:000095a8       ??_C@_0M@HJIFAOGP@color?9dodge?$AA@ 00000001800375a8     CanvasRenderingContext2d.obj
 0002:000095b8       ??_C@_0L@BNODHIAO@color?9burn?$AA@ 00000001800375b8     CanvasRenderingContext2d.obj
 0002:000095c8       ??_C@_0L@CHCOIIBP@difference?$AA@ 00000001800375c8     CanvasRenderingContext2d.obj
 0002:000095d8       ??_C@_09GJPEMMGJ@exclusion?$AA@ 00000001800375d8     CanvasRenderingContext2d.obj
 0002:000095e4       ??_C@_04LBNBHAJC@fast?$AA@ 00000001800375e4     CanvasRenderingContext2d.obj
 0002:000095ec       ??_C@_04DDJAGGFE@good?$AA@ 00000001800375ec     CanvasRenderingContext2d.obj
 0002:000095f4       ??_C@_04MLDDEBAF@best?$AA@ 00000001800375f4     CanvasRenderingContext2d.obj
 0002:00009600       ??_C@_07NHJEPDMH@nearest?$AA@ 0000000180037600     CanvasRenderingContext2d.obj
 0002:00009608       ??_C@_08LJMMPFJO@bilinear?$AA@ 0000000180037608     CanvasRenderingContext2d.obj
 0002:00009618       ??_C@_07IEMLKEO@lighter?$AA@ 0000000180037618     CanvasRenderingContext2d.obj
 0002:00009620       ??_C@_04CGFJFPFD@none?$AA@ 0000000180037620     CanvasRenderingContext2d.obj
 0002:00009628       ??_C@_04GEBBKIAA@gray?$AA@ 0000000180037628     CanvasRenderingContext2d.obj
 0002:00009630       ??_C@_08JOJOGLJH@subpixel?$AA@ 0000000180037630     CanvasRenderingContext2d.obj
 0002:00009640       ??_C@_07DLHCIBDH@default?$AA@ 0000000180037640     CanvasRenderingContext2d.obj
 0002:00009648       ??_C@_04LNEJFJGI@path?$AA@ 0000000180037648     CanvasRenderingContext2d.obj
 0002:00009650       ??_C@_05OIOMJNBL@glyph?$AA@ 0000000180037650     CanvasRenderingContext2d.obj
 0002:00009658       ??_C@_07CIFAGBMG@unknown?$AA@ 0000000180037658     CanvasRenderingContext2d.obj
 0002:00009660       ??_C@_05JDNDNKBA@bevel?$AA@ 0000000180037660     CanvasRenderingContext2d.obj
 0002:00009668       ??_C@_05MIMAKCN@round?$AA@ 0000000180037668     CanvasRenderingContext2d.obj
 0002:00009670       ??_C@_05NJDNHCJA@miter?$AA@ 0000000180037670     CanvasRenderingContext2d.obj
 0002:00009678       ??_C@_06ICDKOIFG@square?$AA@ 0000000180037678     CanvasRenderingContext2d.obj
 0002:00009680       ??_C@_04JOGFAABP@butt?$AA@ 0000000180037680     CanvasRenderingContext2d.obj
 0002:00009688       ??_C@_0BN@MEBGIMHG@Gradient?5or?5Pattern?5expected?$AA@ 0000000180037688     CanvasRenderingContext2d.obj
 0002:000096a8       ??_C@_0BM@CKBGKGDN@lineTo?$CI?$CJ?5x?5must?5be?5a?5number?$AA@ 00000001800376a8     CanvasRenderingContext2d.obj
 0002:000096c8       ??_C@_0BM@PNPECGGF@lineTo?$CI?$CJ?5y?5must?5be?5a?5number?$AA@ 00000001800376c8     CanvasRenderingContext2d.obj
 0002:000096e8       ??_C@_0BM@GIIBHACD@moveTo?$CI?$CJ?5x?5must?5be?5a?5number?$AA@ 00000001800376e8     CanvasRenderingContext2d.obj
 0002:00009708       ??_C@_0BM@LPGDPAHL@moveTo?$CI?$CJ?5y?5must?5be?5a?5number?$AA@ 0000000180037708     CanvasRenderingContext2d.obj
 0002:00009724       ??_C@_06DAHKLION@italic?$AA@ 0000000180037724     CanvasRenderingContext2d.obj
 0002:00009730       ??_C@_07PNBIOHPA@oblique?$AA@ 0000000180037730     CanvasRenderingContext2d.obj
 0002:00009738       ??_C@_04PJDGFHHN@bold?$AA@ 0000000180037738     CanvasRenderingContext2d.obj
 0002:00009740       ??_C@_0BG@IGICBKHO@actualBoundingBoxLeft?$AA@ 0000000180037740     CanvasRenderingContext2d.obj
 0002:00009758       ??_C@_0BH@KNMENBEI@actualBoundingBoxRight?$AA@ 0000000180037758     CanvasRenderingContext2d.obj
 0002:00009770       ??_C@_0BI@NBNJEOJE@actualBoundingBoxAscent?$AA@ 0000000180037770     CanvasRenderingContext2d.obj
 0002:00009788       ??_C@_0BJ@LKCIMDON@actualBoundingBoxDescent?$AA@ 0000000180037788     CanvasRenderingContext2d.obj
 0002:000097a8       ??_C@_0P@FGHEPLGI@emHeightAscent?$AA@ 00000001800377a8     CanvasRenderingContext2d.obj
 0002:000097b8       ??_C@_0BA@OKENAGP@emHeightDescent?$AA@ 00000001800377b8     CanvasRenderingContext2d.obj
 0002:000097c8       ??_C@_0BD@NGFBNEGE@alphabeticBaseline?$AA@ 00000001800377c8     CanvasRenderingContext2d.obj
 0002:000097e0       ??_C@_0BD@OLBABOEK@vector?$DMT?$DO?5too?5long?$AA@ 00000001800377e0     CanvasRenderingContext2d.obj
 0002:000097f8       ??_7Context2d@@6B@         00000001800377f8     CanvasRenderingContext2d.obj
 0002:00009810       ??_C@_0M@CEEDCJLA@transparent?$AA@ 0000000180037810     color.obj
 0002:00009820       ??_C@_09GNHGKALJ@aliceblue?$AA@ 0000000180037820     color.obj
 0002:00009830       ??_C@_0N@OJFLMGEJ@antiquewhite?$AA@ 0000000180037830     color.obj
 0002:00009840       ??_C@_04GANAGBLL@aqua?$AA@ 0000000180037840     color.obj
 0002:00009848       ??_C@_0L@MOKEMMG@aquamarine?$AA@ 0000000180037848     color.obj
 0002:00009854       ??_C@_05CNOJAJLP@azure?$AA@ 0000000180037854     color.obj
 0002:0000985c       ??_C@_05EJOPPCPO@beige?$AA@ 000000018003785c     color.obj
 0002:00009864       ??_C@_06HGAAELGA@bisque?$AA@ 0000000180037864     color.obj
 0002:0000986c       ??_C@_05BIMBDNDC@black?$AA@ 000000018003786c     color.obj
 0002:00009878       ??_C@_0P@CMCBOAOE@blanchedalmond?$AA@ 0000000180037878     color.obj
 0002:00009888       ??_C@_04OBGPFBCN@blue?$AA@ 0000000180037888     color.obj
 0002:00009890       ??_C@_0L@LKLKALMM@blueviolet?$AA@ 0000000180037890     color.obj
 0002:0000989c       ??_C@_05EBJGJMAL@brown?$AA@ 000000018003789c     color.obj
 0002:000098a8       ??_C@_09JHLANABP@burlywood?$AA@ 00000001800378a8     color.obj
 0002:000098b8       ??_C@_09KIJDGGAG@cadetblue?$AA@ 00000001800378b8     color.obj
 0002:000098c8       ??_C@_0L@CHNAEACO@chartreuse?$AA@ 00000001800378c8     color.obj
 0002:000098d8       ??_C@_09BPADAHOC@chocolate?$AA@ 00000001800378d8     color.obj
 0002:000098e4       ??_C@_05JKFECOJP@coral?$AA@ 00000001800378e4     color.obj
 0002:000098f0       ??_C@_0P@KLMOGGLK@cornflowerblue?$AA@ 00000001800378f0     color.obj
 0002:00009900       ??_C@_08DECOJLB@cornsilk?$AA@ 0000000180037900     color.obj
 0002:00009910       ??_C@_07DAGIGOOE@crimson?$AA@ 0000000180037910     color.obj
 0002:00009918       ??_C@_04EDBDANFH@cyan?$AA@ 0000000180037918     color.obj
 0002:00009920       ??_C@_08MFEOPMII@darkblue?$AA@ 0000000180037920     color.obj
 0002:00009930       ??_C@_08GHDCKAPC@darkcyan?$AA@ 0000000180037930     color.obj
 0002:00009940       ??_C@_0O@GGJPBKNE@darkgoldenrod?$AA@ 0000000180037940     color.obj
 0002:00009950       ??_C@_08EADAAFKF@darkgray?$AA@ 0000000180037950     color.obj
 0002:00009960       ??_C@_09MHNMOMAI@darkgreen?$AA@ 0000000180037960     color.obj
 0002:00009970       ??_C@_08EHDJKNHJ@darkgrey?$AA@ 0000000180037970     color.obj
 0002:00009980       ??_C@_09FAPDIPMK@darkkhaki?$AA@ 0000000180037980     color.obj
 0002:00009990       ??_C@_0M@MEEFECHN@darkmagenta?$AA@ 0000000180037990     color.obj
 0002:000099a0       ??_C@_0P@BGCLDNDK@darkolivegreen?$AA@ 00000001800379a0     color.obj
 0002:000099b0       ??_C@_0L@ICJJPBF@darkorange?$AA@ 00000001800379b0     color.obj
 0002:000099c0       ??_C@_0L@EEAHIPOC@darkorchid?$AA@ 00000001800379c0     color.obj
 0002:000099d0       ??_C@_07MFAOOMGP@darkred?$AA@ 00000001800379d0     color.obj
 0002:000099d8       ??_C@_0L@CKNHPKLG@darksalmon?$AA@ 00000001800379d8     color.obj
 0002:000099e8       ??_C@_0N@FBOCOPGH@darkseagreen?$AA@ 00000001800379e8     color.obj
 0002:000099f8       ??_C@_0O@PABAFENG@darkslateblue?$AA@ 00000001800379f8     color.obj
 0002:00009a08       ??_C@_0O@HFGOKNPL@darkslategray?$AA@ 0000000180037a08     color.obj
 0002:00009a18       ??_C@_0O@HCGHAFCH@darkslategrey?$AA@ 0000000180037a18     color.obj
 0002:00009a28       ??_C@_0O@HKLGOIEA@darkturquoise?$AA@ 0000000180037a28     color.obj
 0002:00009a38       ??_C@_0L@NGBKDFME@darkviolet?$AA@ 0000000180037a38     color.obj
 0002:00009a48       ??_C@_08CJGCPHKF@deeppink?$AA@ 0000000180037a48     color.obj
 0002:00009a58       ??_C@_0M@BGGBNDNG@deepskyblue?$AA@ 0000000180037a58     color.obj
 0002:00009a68       ??_C@_07DJPEDLIH@dimgray?$AA@ 0000000180037a68     color.obj
 0002:00009a70       ??_C@_07DOPNJDFL@dimgrey?$AA@ 0000000180037a70     color.obj
 0002:00009a78       ??_C@_0L@MIOOBLBJ@dodgerblue?$AA@ 0000000180037a78     color.obj
 0002:00009a88       ??_C@_09ELCPEDIM@firebrick?$AA@ 0000000180037a88     color.obj
 0002:00009a98       ??_C@_0M@FFMCAIP@floralwhite?$AA@ 0000000180037a98     color.obj
 0002:00009aa8       ??_C@_0M@HBKAKFBN@forestgreen?$AA@ 0000000180037aa8     color.obj
 0002:00009ab8       ??_C@_07FHEBJCGF@fuchsia?$AA@ 0000000180037ab8     color.obj
 0002:00009ac0       ??_C@_09MIGKOGAO@gainsboro?$AA@ 0000000180037ac0     color.obj
 0002:00009ad0       ??_C@_0L@CELMEDAA@ghostwhite?$AA@ 0000000180037ad0     color.obj
 0002:00009adc       ??_C@_04DBNGNIAN@gold?$AA@ 0000000180037adc     color.obj
 0002:00009ae8       ??_C@_09KJDOAGJL@goldenrod?$AA@ 0000000180037ae8     color.obj
 0002:00009af4       ??_C@_05GBEEJKMC@green?$AA@ 0000000180037af4     color.obj
 0002:00009b00       ??_C@_0M@LFPLFELJ@greenyellow?$AA@ 0000000180037b00     color.obj
 0002:00009b0c       ??_C@_04GDBIAANM@grey?$AA@ 0000000180037b0c     color.obj
 0002:00009b18       ??_C@_08BKNCNHLL@honeydew?$AA@ 0000000180037b18     color.obj
 0002:00009b28       ??_C@_07PCCOEED@hotpink?$AA@ 0000000180037b28     color.obj
 0002:00009b30       ??_C@_09IELIJPNO@indianred?$AA@ 0000000180037b30     color.obj
 0002:00009b3c       ??_C@_06MLCCIEFE@indigo?$AA@ 0000000180037b3c     color.obj
 0002:00009b44       ??_C@_05NNJJIMHF@ivory?$AA@ 0000000180037b44     color.obj
 0002:00009b4c       ??_C@_05PGGLPJAA@khaki?$AA@ 0000000180037b4c     color.obj
 0002:00009b58       ??_C@_08KJDCPJPL@lavender?$AA@ 0000000180037b58     color.obj
 0002:00009b68       ??_C@_0O@CCCMFNCK@lavenderblush?$AA@ 0000000180037b68     color.obj
 0002:00009b78       ??_C@_09MONDINDP@lawngreen?$AA@ 0000000180037b78     color.obj
 0002:00009b88       ??_C@_0N@ICDCAEHK@lemonchiffon?$AA@ 0000000180037b88     color.obj
 0002:00009b98       ??_C@_09NBIPJLA@lightblue?$AA@ 0000000180037b98     color.obj
 0002:00009ba8       ??_C@_0L@BEAGLGMO@lightcoral?$AA@ 0000000180037ba8     color.obj
 0002:00009bb8       ??_C@_09KPGEKFMK@lightcyan?$AA@ 0000000180037bb8     color.obj
 0002:00009bc8       ??_C@_0BF@PJADCIND@lightgoldenrodyellow?$AA@ 0000000180037bc8     color.obj
 0002:00009be0       ??_C@_09IIGGAAJN@lightgray?$AA@ 0000000180037be0     color.obj
 0002:00009bf0       ??_C@_0L@OPBGACJD@lightgreen?$AA@ 0000000180037bf0     color.obj
 0002:00009c00       ??_C@_09IPGPKIEB@lightgrey?$AA@ 0000000180037c00     color.obj
 0002:00009c10       ??_C@_09KOBGKMHP@lightpink?$AA@ 0000000180037c10     color.obj
 0002:00009c20       ??_C@_0M@ENCCHKJE@lightsalmon?$AA@ 0000000180037c20     color.obj
 0002:00009c30       ??_C@_0O@BLOIENJC@lightseagreen?$AA@ 0000000180037c30     color.obj
 0002:00009c40       ??_C@_0N@JIFIFCAN@lightskyblue?$AA@ 0000000180037c40     color.obj
 0002:00009c50       ??_C@_0P@LIPDKBMK@lightslategray?$AA@ 0000000180037c50     color.obj
 0002:00009c60       ??_C@_0P@LPPKAJBG@lightslategrey?$AA@ 0000000180037c60     color.obj
 0002:00009c70       ??_C@_0P@EIHJHAMG@lightsteelblue?$AA@ 0000000180037c70     color.obj
 0002:00009c80       ??_C@_0M@FBHPKJLB@lightyellow?$AA@ 0000000180037c80     color.obj
 0002:00009c8c       ??_C@_04HLLEONLG@lime?$AA@ 0000000180037c8c     color.obj
 0002:00009c98       ??_C@_09JKHHFGDO@limegreen?$AA@ 0000000180037c98     color.obj
 0002:00009ca4       ??_C@_05MLLCELJD@linen?$AA@ 0000000180037ca4     color.obj
 0002:00009cb0       ??_C@_07EMDGAPCI@magenta?$AA@ 0000000180037cb0     color.obj
 0002:00009cb8       ??_C@_06BDPIEPJF@maroon?$AA@ 0000000180037cb8     color.obj
 0002:00009cc0       ??_C@_0BB@HHCOFKIC@mediumaquamarine?$AA@ 0000000180037cc0     color.obj
 0002:00009cd8       ??_C@_0L@CEFFILOH@mediumblue?$AA@ 0000000180037cd8     color.obj
 0002:00009ce8       ??_C@_0N@GIADPNAO@mediumorchid?$AA@ 0000000180037ce8     color.obj
 0002:00009cf8       ??_C@_0N@DDGNBDHJ@mediumpurple?$AA@ 0000000180037cf8     color.obj
 0002:00009d08       ??_C@_0P@BNCCGPJD@mediumseagreen?$AA@ 0000000180037d08     color.obj
 0002:00009d18       ??_C@_0BA@EKIMKCFD@mediumslateblue?$AA@ 0000000180037d18     color.obj
 0002:00009d28       ??_C@_0BC@POGDBPNO@mediumspringgreen?$AA@ 0000000180037d28     color.obj
 0002:00009d40       ??_C@_0BA@MACKBOMF@mediumturquoise?$AA@ 0000000180037d40     color.obj
 0002:00009d50       ??_C@_0BA@PNNCDMHM@mediumvioletred?$AA@ 0000000180037d50     color.obj
 0002:00009d60       ??_C@_0N@PJDKAOHK@midnightblue?$AA@ 0000000180037d60     color.obj
 0002:00009d70       ??_C@_09INCGBEJA@mintcream?$AA@ 0000000180037d70     color.obj
 0002:00009d80       ??_C@_09HABDAMOF@mistyrose?$AA@ 0000000180037d80     color.obj
 0002:00009d90       ??_C@_08OIIPPDDA@moccasin?$AA@ 0000000180037d90     color.obj
 0002:00009da0       ??_C@_0M@OKLAMJCL@navajowhite?$AA@ 0000000180037da0     color.obj
 0002:00009dac       ??_C@_04DCMEIHPF@navy?$AA@ 0000000180037dac     color.obj
 0002:00009db8       ??_C@_07MBCGBJON@oldlace?$AA@ 0000000180037db8     color.obj
 0002:00009dc0       ??_C@_05OFIFEKBG@olive?$AA@ 0000000180037dc0     color.obj
 0002:00009dc8       ??_C@_09CNLBGLAE@olivedrab?$AA@ 0000000180037dc8     color.obj
 0002:00009dd4       ??_C@_06HDDOCMMN@orange?$AA@ 0000000180037dd4     color.obj
 0002:00009de0       ??_C@_09OPJMLMBK@orangered?$AA@ 0000000180037de0     color.obj
 0002:00009dec       ??_C@_06DPBADMDK@orchid?$AA@ 0000000180037dec     color.obj
 0002:00009df8       ??_C@_0O@KONOLMEH@palegoldenrod?$AA@ 0000000180037df8     color.obj
 0002:00009e08       ??_C@_09NAJHJFNO@palegreen?$AA@ 0000000180037e08     color.obj
 0002:00009e18       ??_C@_0O@LCPHEOND@paleturquoise?$AA@ 0000000180037e18     color.obj
 0002:00009e28       ??_C@_0O@IPAPGMGK@palevioletred?$AA@ 0000000180037e28     color.obj
 0002:00009e38       ??_C@_0L@NPJMDDDD@papayawhip?$AA@ 0000000180037e38     color.obj
 0002:00009e48       ??_C@_09GELOGGEC@peachpuff?$AA@ 0000000180037e48     color.obj
 0002:00009e54       ??_C@_04MJMKNOJB@peru?$AA@ 0000000180037e54     color.obj
 0002:00009e5c       ??_C@_04ECGBAEOC@pink?$AA@ 0000000180037e5c     color.obj
 0002:00009e64       ??_C@_04DDJGBPMH@plum?$AA@ 0000000180037e64     color.obj
 0002:00009e70       ??_C@_0L@MNADNFAH@powderblue?$AA@ 0000000180037e70     color.obj
 0002:00009e7c       ??_C@_06GEHONCEN@purple?$AA@ 0000000180037e7c     color.obj
 0002:00009e88       ??_C@_0O@JGOBAAIL@rebeccapurple?$AA@ 0000000180037e88     color.obj
 0002:00009e98       ??_C@_03FAAAOPJM@red?$AA@  0000000180037e98     color.obj
 0002:00009ea0       ??_C@_09DJJHENIF@rosybrown?$AA@ 0000000180037ea0     color.obj
 0002:00009eb0       ??_C@_09FEEJNHFN@royalblue?$AA@ 0000000180037eb0     color.obj
 0002:00009ec0       ??_C@_0M@MOEGEDCP@saddlebrown?$AA@ 0000000180037ec0     color.obj
 0002:00009ecc       ??_C@_06FBMAEJGO@salmon?$AA@ 0000000180037ecc     color.obj
 0002:00009ed8       ??_C@_0L@HLMGLGHH@sandybrown?$AA@ 0000000180037ed8     color.obj
 0002:00009ee8       ??_C@_08EKGLDJFB@seagreen?$AA@ 0000000180037ee8     color.obj
 0002:00009ef8       ??_C@_08MFJLKPPC@seashell?$AA@ 0000000180037ef8     color.obj
 0002:00009f04       ??_C@_06CEGMHAGE@sienna?$AA@ 0000000180037f04     color.obj
 0002:00009f0c       ??_C@_06NBGLMDBG@silver?$AA@ 0000000180037f0c     color.obj
 0002:00009f18       ??_C@_07MFCMKLDM@skyblue?$AA@ 0000000180037f18     color.obj
 0002:00009f20       ??_C@_09DPLBEIJJ@slateblue?$AA@ 0000000180037f20     color.obj
 0002:00009f30       ??_C@_09LKMPLBLE@slategray?$AA@ 0000000180037f30     color.obj
 0002:00009f40       ??_C@_09LNMGBJGI@slategrey?$AA@ 0000000180037f40     color.obj
 0002:00009f4c       ??_C@_04HPKDHBOB@snow?$AA@ 0000000180037f4c     color.obj
 0002:00009f58       ??_C@_0M@IPKJFOEB@springgreen?$AA@ 0000000180037f58     color.obj
 0002:00009f68       ??_C@_09EKEFGALI@steelblue?$AA@ 0000000180037f68     color.obj
 0002:00009f74       ??_C@_03IIINPABG@tan?$AA@  0000000180037f74     color.obj
 0002:00009f78       ??_C@_04LJCKMMGA@teal?$AA@ 0000000180037f78     color.obj
 0002:00009f80       ??_C@_07CGANODJO@thistle?$AA@ 0000000180037f80     color.obj
 0002:00009f88       ??_C@_06NALDPNEI@tomato?$AA@ 0000000180037f88     color.obj
 0002:00009f90       ??_C@_09LFBHPEAP@turquoise?$AA@ 0000000180037f90     color.obj
 0002:00009f9c       ??_C@_06KNANIGBM@violet?$AA@ 0000000180037f9c     color.obj
 0002:00009fa4       ??_C@_05PPOGEFHN@wheat?$AA@ 0000000180037fa4     color.obj
 0002:00009fac       ??_C@_05PMAELIEO@white?$AA@ 0000000180037fac     color.obj
 0002:00009fb8       ??_C@_0L@FDFMBGNF@whitesmoke?$AA@ 0000000180037fb8     color.obj
 0002:00009fc4       ??_C@_06ENJNJKEL@yellow?$AA@ 0000000180037fc4     color.obj
 0002:00009fd0       ??_C@_0M@GCLLLGON@yellowgreen?$AA@ 0000000180037fd0     color.obj
 0002:00009fe0       ??_C@_0O@CAFKCKKM@?$CD?$CF?42x?$CF?42x?$CF?42x?$AA@ 0000000180037fe0     color.obj
 0002:00009ff0       ??_C@_0BH@IMKFBGII@rgba?$CI?$CFd?0?5?$CFd?0?5?$CFd?0?5?$CF?42f?$CJ?$AA@ 0000000180037ff0     color.obj
 0002:0000a008       ??_C@_04KDAMFBD@rgb?$CI?$AA@ 0000000180038008     color.obj
 0002:0000a010       ??_C@_05KGKCGJPO@rgba?$CI?$AA@ 0000000180038010     color.obj
 0002:0000a018       ??_C@_05HBFAAOHC@hsla?$CI?$AA@ 0000000180038018     color.obj
 0002:0000a020       ??_C@_04PFIFKHPC@hsl?$CI?$AA@ 0000000180038020     color.obj
 0002:0000a028       ??_C@_04CLILDBFP@rgba?$AA@ 0000000180038028     color.obj
 0002:0000a030       ??_C@_03FNOJMHE@rgb?$AA@   0000000180038030     color.obj
 0002:0000a034       ??_C@_04NEDOFDLO@hsla?$AA@ 0000000180038034     color.obj
 0002:0000a03c       ??_C@_03LPNGANKN@hsl?$AA@  000000018003803c     color.obj
 0002:0000a9a0       __pfnDliNotifyHook2        00000001800389a0     win_delay_load_hook.obj
 0002:0000a9a8       ??_C@_00CNPNBAHC@?$AA@     00000001800389a8     Image.obj
 0002:0000a9ac       ??_C@_05NBEAGECF@Image?$AA@ 00000001800389ac     Image.obj
 0002:0000a9b8       ??_C@_08IPNIAGNA@complete?$AA@ 00000001800389b8     Image.obj
 0002:0000a9c4       ??_C@_06FKJAAAAK@onload?$AA@ 00000001800389c4     Image.obj
 0002:0000a9d0       ??_C@_07MAAHHAB@onerror?$AA@ 00000001800389d0     Image.obj
 0002:0000a9d8       ??_C@_08ELMFDEKI@dataMode?$AA@ 00000001800389d8     Image.obj
 0002:0000a9e8       ??_C@_0L@ICMMJJAL@MODE_IMAGE?$AA@ 00000001800389e8     Image.obj
 0002:0000a9f8       ??_C@_09IDBFNFDI@MODE_MIME?$AA@ 00000001800389f8     Image.obj
 0002:0000aa04       ??_C@_02JDPG@rb?$AA@       0000000180038a04     Image.obj
 0002:0000aa08       ??_7Image@@6B@             0000000180038a08     Image.obj
 0002:0000aa20       ??_C@_09NIGIGFDC@ImageData?$AA@ 0000000180038a20     ImageData.obj
 0002:0000aa30       ??_C@_0BK@BFELGOEH@The?5source?5width?5is?5zero?4?$AA@ 0000000180038a30     ImageData.obj
 0002:0000aa50       ??_C@_0BL@EMOEEHOI@The?5source?5height?5is?5zero?4?$AA@ 0000000180038a50     ImageData.obj
 0002:0000aa70       ??_C@_0CH@IEOMAMPI@The?5input?5data?5has?5a?5zero?5byte?5l@ 0000000180038a70     ImageData.obj
 0002:0000aa98       ??_C@_0DD@ECEPEMHG@The?5input?5data?5byte?5length?5is?5no@ 0000000180038a98     ImageData.obj
 0002:0000aad0       ??_C@_0DN@JBNNAEFP@The?5input?5data?5byte?5length?5is?5no@ 0000000180038ad0     ImageData.obj
 0002:0000ab10       ??_C@_0EB@FFMBNCCC@The?5input?5data?5byte?5length?5is?5no@ 0000000180038b10     ImageData.obj
 0002:0000ab60       ??_C@_0EB@JCAHACPK@Expected?5?$CIUint8ClampedArray?0?5wid@ 0000000180038b60     ImageData.obj
 0002:0000aba4       ??_C@_04PJOLNDGD@data?$AA@ 0000000180038ba4     ImageData.obj
 0002:0000abb0       ??_7ImageData@@6B@         0000000180038bb0     ImageData.obj
 0002:0000abc8       ??_C@_0N@OGDOEBIM@cairoVersion?$AA@ 0000000180038bc8     init.obj
 0002:0000abd8       ??_C@_0P@PAFBMNKD@?4?4?2src?2init?4cc?$AA@ 0000000180038bd8     init.obj
 0002:0000abe8       ??_C@_06DODEBHEI@canvas?$AA@ 0000000180038be8     init.obj
 0002:0000abf0       ??_C@_08HCOMDCCD@iojs?4exe?$AA@ 0000000180038bf0     win_delay_load_hook.obj
 0002:0000ac00       ??_C@_08JDDNMFDB@node?4exe?$AA@ 0000000180038c00     win_delay_load_hook.obj
 0002:0000aff8       __real@3dcccccd            0000000180038ff8     color.obj
 0002:0000affc       __real@3f000000            0000000180038ffc     color.obj
 0002:0000b000       __real@3f13cd36            0000000180039000     CanvasRenderingContext2d.obj
 0002:0000b004       __real@3f800000            0000000180039004     color.obj
 0002:0000b008       __real@3fe0000000000000    0000000180039008     CanvasRenderingContext2d.obj
 0002:0000b010       __real@3fe5555555555555    0000000180039010     CanvasRenderingContext2d.obj
 0002:0000b018       __real@3ff0000000000000    0000000180039018     color.obj
 0002:0000b020       __real@3ff6666666666666    0000000180039020     CanvasRenderingContext2d.obj
 0002:0000b028       __real@40000000            0000000180039028     color.obj
 0002:0000b030       __real@4000000000000000    0000000180039030     Image.obj
 0002:0000b038       __real@400921fb54442d18    0000000180039038     CanvasRenderingContext2d.obj
 0002:0000b040       __real@401921fb54442d18    0000000180039040     CanvasRenderingContext2d.obj
 0002:0000b048       __real@40400000            0000000180039048     color.obj
 0002:0000b050       __real@406fe00000000000    0000000180039050     color.obj
 0002:0000b058       __real@40800000            0000000180039058     color.obj
 0002:0000b05c       __real@40c00000            000000018003905c     color.obj
 0002:0000b060       __real@41200000            0000000180039060     color.obj
 0002:0000b064       __real@42c80000            0000000180039064     color.obj
 0002:0000b068       __real@437f0000            0000000180039068     color.obj
 0002:0000b06c       __real@43b40000            000000018003906c     color.obj
 0002:0000b070       __real@477fff00            0000000180039070     CanvasRenderingContext2d.obj
 0002:0000b078       __real@7ff0000000000000    0000000180039078     CanvasRenderingContext2d.obj
 0002:0000b080       __real@bff0000000000000    0000000180039080     CanvasRenderingContext2d.obj
 0002:0000b088       __real@c0c00000            0000000180039088     color.obj
 0002:0000b090       __xmm@3ff00000000000000000000000000000 0000000180039090     CanvasRenderingContext2d.obj
 0002:0000b0a0       __xmm@80000000000000008000000000000000 00000001800390a0     CanvasRenderingContext2d.obj
 0002:0000b0b0       __xmm@80000000800000008000000080000000 00000001800390b0     CanvasRenderingContext2d.obj
 0002:0000b610       __real@3c91a62633145c07    0000000180039610     libucrt:acos.obj
 0002:0000b618       __real@3f0951665d321061    0000000180039618     libucrt:acos.obj
 0002:0000b620       __real@3f51e5f887a62135    0000000180039620     libucrt:acos.obj
 0002:0000b628       __real@3fac28d390c29690    0000000180039628     libucrt:acos.obj
 0002:0000b630       __real@3fbb1a422982ce76    0000000180039630     libucrt:acos.obj
 0002:0000b638       __real@3fcd1e4180029834    0000000180039638     libucrt:acos.obj
 0002:0000b640       __real@3fd1a2bec1b7ef59    0000000180039640     libucrt:acos.obj
 0002:0000b648       __real@3fdc7b297e269eac    0000000180039648     libucrt:acos.obj
 0002:0000b650       __real@3fee324ab418f78d    0000000180039650     libucrt:acos.obj
 0002:0000b658       __real@3ff5d6b12001f228    0000000180039658     libucrt:acos.obj
 0002:0000b660       __real@3ff921fb54442d18    0000000180039660     libucrt:acos.obj
 0002:0000b668       __real@40062021571dccfc    0000000180039668     libucrt:acos.obj
 0002:0000b670       __real@400a4646f903cdea    0000000180039670     libucrt:acos.obj
 0002:0000b678       ??_C@_05FFFCHCED@acosf?$AA@ 0000000180039678     libucrt:acosf.obj
 0002:0000b680       __real@3b81ce6b            0000000180039680     libucrt:acosf.obj
 0002:0000b684       __real@3d678bdd            0000000180039684     libucrt:acosf.obj
 0002:0000b688       __real@3e3c94dc            0000000180039688     libucrt:acosf.obj
 0002:0000b68c       __real@3f561f0d            000000018003968c     libucrt:acosf.obj
 0002:0000b690       __real@3f8d6fa5            0000000180039690     libucrt:acosf.obj
 0002:0000b694       __real@3fc90fdb            0000000180039694     libucrt:acosf.obj
 0002:0000b698       __real@40490fdb            0000000180039698     libucrt:acosf.obj
 0002:0000b69c       __real@bc5b3fe1            000000018003969c     libucrt:acosf.obj
 0002:0000b6a0       __real@bf800000            00000001800396a0     libucrt:acosf.obj
 0002:0000b6a4       ??_C@_05OOAOEJGP@fmodf?$AA@ 00000001800396a4     libucrt:fmodf.obj
 0002:0000b6ac       ??_C@_05KGFAIMPG@sqrtf?$AA@ 00000001800396ac     libucrt:sqrtf.obj
 0002:0000bb70       __L_2_by_pi_bits           0000000180039b70     libucrt:l2_by_pi_bits.obj
 0002:0000bc68       ??_R4exception@std@@6B@    0000000180039c68     libcpmt:xthrow.obj
 0002:0000bc90       ??_R3exception@std@@8      0000000180039c90     libcpmt:xthrow.obj
 0002:0000bca8       ??_R2exception@std@@8      0000000180039ca8     libcpmt:xthrow.obj
 0002:0000bcb8       ??_R1A@?0A@EA@exception@std@@8 0000000180039cb8     libcpmt:xthrow.obj
 0002:0000bce0       ??_R4bad_alloc@std@@6B@    0000000180039ce0     libcpmt:xthrow.obj
 0002:0000bd08       ??_R3bad_alloc@std@@8      0000000180039d08     libcpmt:xthrow.obj
 0002:0000bd20       ??_R2bad_alloc@std@@8      0000000180039d20     libcpmt:xthrow.obj
 0002:0000bd38       ??_R1A@?0A@EA@bad_alloc@std@@8 0000000180039d38     libcpmt:xthrow.obj
 0002:0000bd60       ??_R4logic_error@std@@6B@  0000000180039d60     libcpmt:xthrow.obj
 0002:0000bd88       ??_R3logic_error@std@@8    0000000180039d88     libcpmt:xthrow.obj
 0002:0000bda0       ??_R2logic_error@std@@8    0000000180039da0     libcpmt:xthrow.obj
 0002:0000bdb8       ??_R1A@?0A@EA@logic_error@std@@8 0000000180039db8     libcpmt:xthrow.obj
 0002:0000bde0       ??_R4length_error@std@@6B@ 0000000180039de0     libcpmt:xthrow.obj
 0002:0000be08       ??_R3length_error@std@@8   0000000180039e08     libcpmt:xthrow.obj
 0002:0000be20       ??_R2length_error@std@@8   0000000180039e20     libcpmt:xthrow.obj
 0002:0000be40       ??_R1A@?0A@EA@length_error@std@@8 0000000180039e40     libcpmt:xthrow.obj
 0002:0000be68       ??_R4type_info@@6B@        0000000180039e68     LIBCMT:std_type_info_static.obj
 0002:0000be90       ??_R3type_info@@8          0000000180039e90     LIBCMT:std_type_info_static.obj
 0002:0000bea8       ??_R2type_info@@8          0000000180039ea8     LIBCMT:std_type_info_static.obj
 0002:0000beb8       ??_R1A@?0A@EA@type_info@@8 0000000180039eb8     LIBCMT:std_type_info_static.obj
 0002:0000bee0       ??_R4bad_array_new_length@std@@6B@ 0000000180039ee0     LIBCMT:throw_bad_alloc.obj
 0002:0000bf08       ??_R3bad_array_new_length@std@@8 0000000180039f08     LIBCMT:throw_bad_alloc.obj
 0002:0000bf20       ??_R2bad_array_new_length@std@@8 0000000180039f20     LIBCMT:throw_bad_alloc.obj
 0002:0000bf40       ??_R1A@?0A@EA@bad_array_new_length@std@@8 0000000180039f40     LIBCMT:throw_bad_alloc.obj
 0002:0000bf68       ??_R4bad_exception@std@@6B@ 0000000180039f68     libvcruntime:frame.obj
 0002:0000bf90       ??_R3bad_exception@std@@8  0000000180039f90     libvcruntime:frame.obj
 0002:0000bfa8       ??_R2bad_exception@std@@8  0000000180039fa8     libvcruntime:frame.obj
 0002:0000bfc0       ??_R1A@?0A@EA@bad_exception@std@@8 0000000180039fc0     libvcruntime:frame.obj
 0002:0000c418       __rtc_iaa                  000000018003a418     LIBCMT:_initsect_.obj
 0002:0000c420       __rtc_izz                  000000018003a420     LIBCMT:_initsect_.obj
 0002:0000c428       __rtc_taa                  000000018003a428     LIBCMT:_initsect_.obj
 0002:0000c430       __rtc_tzz                  000000018003a430     LIBCMT:_initsect_.obj
 0002:0000efc0       _TI2?AVbad_alloc@std@@     000000018003cfc0     libcpmt:xthrow.obj
 0002:0000efe0       _CTA2?AVbad_alloc@std@@    000000018003cfe0     libcpmt:xthrow.obj
 0002:0000eff8       _CT??_R0?AVbad_alloc@std@@@8??0bad_alloc@std@@QEAA@AEBV01@@Z24 000000018003cff8     libcpmt:xthrow.obj
 0002:0000f020       _CT??_R0?AVexception@std@@@8??0exception@std@@QEAA@AEBV01@@Z24 000000018003d020     libcpmt:xthrow.obj
 0002:0000f048       _CT??_R0?AVlogic_error@std@@@8??0logic_error@std@@QEAA@AEBV01@@Z24 000000018003d048     libcpmt:xthrow.obj
 0002:0000f070       _TI3?AVlength_error@std@@  000000018003d070     libcpmt:xthrow.obj
 0002:0000f090       _CTA3?AVlength_error@std@@ 000000018003d090     libcpmt:xthrow.obj
 0002:0000f0b0       _CT??_R0?AVlength_error@std@@@8??0length_error@std@@QEAA@AEBV01@@Z24 000000018003d0b0     libcpmt:xthrow.obj
 0002:0000f0d8       _TI3?AVbad_array_new_length@std@@ 000000018003d0d8     LIBCMT:throw_bad_alloc.obj
 0002:0000f0f8       _CTA3?AVbad_array_new_length@std@@ 000000018003d0f8     LIBCMT:throw_bad_alloc.obj
 0002:0000f118       _CT??_R0?AVbad_array_new_length@std@@@8??0bad_array_new_length@std@@QEAA@AEBV01@@Z24 000000018003d118     LIBCMT:throw_bad_alloc.obj
 0002:0000f140       _TI2?AVbad_exception@std@@ 000000018003d140     libvcruntime:frame.obj
 0002:0000f160       _CTA2?AVbad_exception@std@@ 000000018003d160     libvcruntime:frame.obj
 0002:0000f178       _CT??_R0?AVbad_exception@std@@@8??0bad_exception@std@@QEAA@AEBV01@@Z24 000000018003d178     libvcruntime:frame.obj
 0002:0000f19c       __DELAY_IMPORT_DESCRIPTOR_node_exe 000000018003d19c     node:node.exe
 0002:0000f1bc       __NULL_DELAY_IMPORT_DESCRIPTOR 000000018003d1bc     node:node.exe
 0002:0000f4c0       \177node_NULL_THUNK_DATA_DLN 000000018003d4c0     node:node.exe
 0002:00010c10       \177node_NULL_THUNK_DATA_DLB 000000018003ec10     node:node.exe
 0002:00010f40       __IMPORT_DESCRIPTOR_KERNEL32 000000018003ef40     kernel32:KERNEL32.dll
 0002:00010f54       __IMPORT_DESCRIPTOR_libcairo-2 000000018003ef54     cairo:libcairo-2.dll
 0002:00010f68       __IMPORT_DESCRIPTOR_libpng14-14 000000018003ef68     libpng:libpng14-14.dll
 0002:00010f7c       __NULL_IMPORT_DESCRIPTOR   000000018003ef7c     kernel32:KERNEL32.dll
 0003:00000000       __scrt_native_dllmain_reason 0000000180041000     LIBCMT:utility.obj
 0003:00000008       __security_cookie          0000000180041008     LIBCMT:gs_cookie.obj
 0003:00000010       __security_cookie_complement 0000000180041010     LIBCMT:gs_cookie.obj
 0003:00000018       __isa_available            0000000180041018     LIBCMT:_cpu_disp_.obj
 0003:0000001c       __isa_enabled              000000018004101c     LIBCMT:_cpu_disp_.obj
 0003:00000020       __memcpy_nt_iters          0000000180041020     LIBCMT:_cpu_disp_.obj
 0003:00000040       _iob                       0000000180041040     libucrt:_file.obj
 0003:00000148       __abort_behavior           0000000180041148     libucrt:abort.obj
 0003:00000160       __badioinfo                0000000180041160     libucrt:ioinit.obj
 0003:000001a0       __acrt_initial_locale_data 00000001800411a0     libucrt:nlsdata.obj
 0003:000002f8       __acrt_initial_locale_pointers 00000001800412f8     libucrt:nlsdata.obj
 0003:00000308       __acrt_wide_c_locale_string 0000000180041308     libucrt:nlsdata.obj
 0003:00000310       _lookuptrailbytes          0000000180041310     libucrt:read.obj
 0003:00000410       __acrt_initial_multibyte_data 0000000180041410     libucrt:mbctype.obj
 0003:00000638       __acrt_current_multibyte_data 0000000180041638     libucrt:mbctype.obj
 0003:00000740       _mbctype                   0000000180041740     libucrt:mbctype.obj
 0003:00000850       _mbcasemap                 0000000180041850     libucrt:mbctype.obj
 0003:00000950       _pwctype                   0000000180041950     libucrt:ctype.obj
 0003:0000095c       __globallocalestatus       000000018004195c     libucrt:glstatus.obj
 0003:00000960       __acrt_lconv_c             0000000180041960     libucrt:localeconv.obj
 0003:000009f8       __acrt_lconv_static_decimal 00000001800419f8     libucrt:localeconv.obj
 0003:000009fc       __acrt_lconv_static_W_decimal 00000001800419fc     libucrt:localeconv.obj
 0003:00000a00       __dcrt_lowio_console_output_handle 0000000180041a00     libucrt:initcon.obj
 0003:00000a10       _fltused                   0000000180041a10     LIBCMT:fltused.obj
 0003:00000a60       ??_R0?AVbad_alloc@std@@@8  0000000180041a60     libcpmt:xthrow.obj
 0003:00000a88       ??_R0?AVexception@std@@@8  0000000180041a88     libcpmt:xthrow.obj
 0003:00000ab0       ??_R0?AVlogic_error@std@@@8 0000000180041ab0     libcpmt:xthrow.obj
 0003:00000ad8       ??_R0?AVlength_error@std@@@8 0000000180041ad8     libcpmt:xthrow.obj
 0003:00000b00       ??_R0?AVtype_info@@@8      0000000180041b00     LIBCMT:std_type_info_static.obj
 0003:00000b20       ??_R0?AVbad_array_new_length@std@@@8 0000000180041b20     LIBCMT:throw_bad_alloc.obj
 0003:00000b50       ??_R0?AVbad_exception@std@@@8 0000000180041b50     libvcruntime:frame.obj
 0003:00000b78       __imp_uv_queue_work        0000000180041b78     node:node.exe
 0003:00000b80       __imp_?Global@Context@v8@@QEAA?AV?$Local@VObject@v8@@@2@XZ 0000000180041b80     node:node.exe
 0003:00000b88       __imp_?Value@External@v8@@QEBAPEAXXZ 0000000180041b88     node:node.exe
 0003:00000b90       __imp_?New@External@v8@@SA?AV?$Local@VExternal@v8@@@2@PEAVIsolate@2@PEAX@Z 0000000180041b90     node:node.exe
 0003:00000b98       __imp_?NewFromUnsigned@Integer@v8@@SA?AV?$Local@VInteger@v8@@@2@PEAVIsolate@2@I@Z 0000000180041b98     node:node.exe
 0003:00000ba0       __imp_?New@Signature@v8@@SA?AV?$Local@VSignature@v8@@@2@PEAVIsolate@2@V?$Local@VFunctionTemplate@v8@@@2@@Z 0000000180041ba0     node:node.exe
 0003:00000ba8       __imp_?ReportExternalAllocationLimitReached@Isolate@v8@@AEAAXXZ 0000000180041ba8     node:node.exe
 0003:00000bb0       __imp_?ThrowException@Isolate@v8@@QEAA?AV?$Local@VValue@v8@@@2@V32@@Z 0000000180041bb0     node:node.exe
 0003:00000bb8       __imp_?GetCurrentContext@Isolate@v8@@QEAA?AV?$Local@VContext@v8@@@2@XZ 0000000180041bb8     node:node.exe
 0003:00000bc0       __imp_?GetCurrent@Isolate@v8@@SAPEAV12@XZ 0000000180041bc0     node:node.exe
 0003:00000bc8       __imp_?CreateHandle@HandleScope@v8@@KAPEAPEAVObject@internal@2@PEAVIsolate@42@PEAV342@@Z 0000000180041bc8     node:node.exe
 0003:00000bd0       __imp_?CreateHandle@HandleScope@v8@@CAPEAPEAVObject@internal@2@PEAVHeapObject@42@PEAV342@@Z 0000000180041bd0     node:node.exe
 0003:00000bd8       __imp_??1HandleScope@v8@@QEAA@XZ 0000000180041bd8     node:node.exe
 0003:00000be0       __imp_??0HandleScope@v8@@QEAA@PEAVIsolate@1@@Z 0000000180041be0     node:node.exe
 0003:00000be8       __imp_?Set@Template@v8@@QEAAXV?$Local@VName@v8@@@2@V?$Local@VData@v8@@@2@W4PropertyAttribute@2@@Z 0000000180041be8     node:node.exe
 0003:00000bf0       __imp_?Error@Exception@v8@@SA?AV?$Local@VValue@v8@@@2@V?$Local@VString@v8@@@2@@Z 0000000180041bf0     node:node.exe
 0003:00000bf8       __imp_?TypeError@Exception@v8@@SA?AV?$Local@VValue@v8@@@2@V?$Local@VString@v8@@@2@@Z 0000000180041bf8     node:node.exe
 0003:00000c00       __imp_?RangeError@Exception@v8@@SA?AV?$Local@VValue@v8@@@2@V?$Local@VString@v8@@@2@@Z 0000000180041c00     node:node.exe
 0003:00000c08       __imp_?SetClassName@FunctionTemplate@v8@@QEAAXV?$Local@VString@v8@@@2@@Z 0000000180041c08     node:node.exe
 0003:00000c10       __imp_?PrototypeTemplate@FunctionTemplate@v8@@QEAA?AV?$Local@VObjectTemplate@v8@@@2@XZ 0000000180041c10     node:node.exe
 0003:00000c18       __imp_?InstanceTemplate@FunctionTemplate@v8@@QEAA?AV?$Local@VObjectTemplate@v8@@@2@XZ 0000000180041c18     node:node.exe
 0003:00000c20       __imp_?GetFunction@FunctionTemplate@v8@@QEAA?AV?$Local@VFunction@v8@@@2@XZ 0000000180041c20     node:node.exe
 0003:00000c28       __imp_?New@FunctionTemplate@v8@@SA?AV?$Local@VFunctionTemplate@v8@@@2@PEAVIsolate@2@P6AXAEBV?$FunctionCallbackInfo@VValue@v8@@@2@@ZV?$Local@VValue@v8@@@2@V?$Local@VSignature@v8@@@2@H@Z 0000000180041c28     node:node.exe
 0003:00000c30       __imp_?ToLocalEmpty@V8@v8@@CAXXZ 0000000180041c30     node:node.exe
 0003:00000c38       __imp_?ClearWeak@V8@v8@@CAPEAXPEAPEAVObject@internal@2@@Z 0000000180041c38     node:node.exe
 0003:00000c40       __imp_?MakeWeak@V8@v8@@CAXPEAPEAVObject@internal@2@PEAXP6AXAEBV?$WeakCallbackInfo@X@2@@ZW4WeakCallbackType@2@@Z 0000000180041c40     node:node.exe
 0003:00000c48       __imp_?DisposeGlobal@V8@v8@@CAXPEAPEAVObject@internal@2@@Z 0000000180041c48     node:node.exe
 0003:00000c50       __imp_?GlobalizeReference@V8@v8@@CAPEAPEAVObject@internal@2@PEAVIsolate@42@PEAPEAV342@@Z 0000000180041c50     node:node.exe
 0003:00000c58       __imp_?StrictEquals@Value@v8@@QEBA_NV?$Local@VValue@v8@@@2@@Z 0000000180041c58     node:node.exe
 0003:00000c60       __imp_?Uint32Value@Value@v8@@QEBAIXZ 0000000180041c60     node:node.exe
 0003:00000c68       __imp_?ToUint32@Value@v8@@QEBA?AV?$MaybeLocal@VUint32@v8@@@2@V?$Local@VContext@v8@@@2@@Z 0000000180041c68     node:node.exe
 0003:00000c70       __imp_?IsUint32@Value@v8@@QEBA_NXZ 0000000180041c70     node:node.exe
 0003:00000c78       __imp_?IsNumber@Value@v8@@QEBA_NXZ 0000000180041c78     node:node.exe
 0003:00000c80       __imp_?IsFunction@Value@v8@@QEBA_NXZ 0000000180041c80     node:node.exe
 0003:00000c88       __imp_?ReThrow@TryCatch@v8@@QEAA?AV?$Local@VValue@v8@@@2@XZ 0000000180041c88     node:node.exe
 0003:00000c90       __imp_?HasCaught@TryCatch@v8@@QEBA_NXZ 0000000180041c90     node:node.exe
 0003:00000c98       __imp_??1TryCatch@v8@@QEAA@XZ 0000000180041c98     node:node.exe
 0003:00000ca0       __imp_??0TryCatch@v8@@QEAA@PEAVIsolate@1@@Z 0000000180041ca0     node:node.exe
 0003:00000ca8       __imp_?Escape@EscapableHandleScope@v8@@AEAAPEAPEAVObject@internal@2@PEAPEAV342@@Z 0000000180041ca8     node:node.exe
 0003:00000cb0       __imp_??0EscapableHandleScope@v8@@QEAA@PEAVIsolate@1@@Z 0000000180041cb0     node:node.exe
 0003:00000cb8       __imp_??1Utf8Value@String@v8@@QEAA@XZ 0000000180041cb8     node:node.exe
 0003:00000cc0       __imp_??0Utf8Value@String@v8@@QEAA@V?$Local@VValue@v8@@@2@@Z 0000000180041cc0     node:node.exe
 0003:00000cc8       __imp_?NewFromUtf8@String@v8@@SA?AV?$MaybeLocal@VString@v8@@@2@PEAVIsolate@2@PEBDW4NewStringType@2@H@Z 0000000180041cc8     node:node.exe
 0003:00000cd0       __imp_?New@Number@v8@@SA?AV?$Local@VNumber@v8@@@2@PEAVIsolate@2@N@Z 0000000180041cd0     node:node.exe
 0003:00000cd8       __imp_?SlowGetAlignedPointerFromInternalField@Object@v8@@AEAAPEAXH@Z 0000000180041cd8     node:node.exe
 0003:00000ce0       __imp_?SlowGetInternalField@Object@v8@@AEAA?AV?$Local@VValue@v8@@@2@H@Z 0000000180041ce0     node:node.exe
 0003:00000ce8       __imp_?SetAlignedPointerInInternalField@Object@v8@@QEAAXHPEAX@Z 0000000180041ce8     node:node.exe
 0003:00000cf0       __imp_?SetInternalField@Object@v8@@QEAAXHV?$Local@VValue@v8@@@2@@Z 0000000180041cf0     node:node.exe
 0003:00000cf8       __imp_?InternalFieldCount@Object@v8@@QEAAHXZ 0000000180041cf8     node:node.exe
 0003:00000d00       __imp_?Get@Object@v8@@QEAA?AV?$Local@VValue@v8@@@2@V32@@Z 0000000180041d00     node:node.exe
 0003:00000d08       __imp_?Set@Object@v8@@QEAA?AV?$Maybe@_N@2@V?$Local@VContext@v8@@@2@V?$Local@VValue@v8@@@2@1@Z 0000000180041d08     node:node.exe
 0003:00000d10       __imp_?Call@Function@v8@@QEAA?AV?$MaybeLocal@VValue@v8@@@2@V?$Local@VContext@v8@@@2@V?$Local@VValue@v8@@@2@HQEAV52@@Z 0000000180041d10     node:node.exe
 0003:00000d18       __imp_?SetInternalFieldCount@ObjectTemplate@v8@@QEAAXH@Z 0000000180041d18     node:node.exe
 0003:00000d20       __imp_?SetAccessor@ObjectTemplate@v8@@QEAAXV?$Local@VName@v8@@@2@P6AX0AEBV?$PropertyCallbackInfo@VValue@v8@@@2@@ZP6AX0V?$Local@VValue@v8@@@2@AEBV?$PropertyCallbackInfo@X@2@@Z3W4AccessControl@2@W4PropertyAttribute@2@V?$Local@VAccessorSignature@v8@@@2@@Z 0000000180041d20     node:node.exe
 0003:00000d28       __imp_?NewInstance@ObjectTemplate@v8@@QEAA?AV?$MaybeLocal@VObject@v8@@@2@V?$Local@VContext@v8@@@2@@Z 0000000180041d28     node:node.exe
 0003:00000d30       __imp_?New@ObjectTemplate@v8@@SA?AV?$Local@VObjectTemplate@v8@@@2@PEAVIsolate@2@V?$Local@VFunctionTemplate@v8@@@2@@Z 0000000180041d30     node:node.exe
 0003:00000d38       __imp_?New@Buffer@node@@YA?AV?$MaybeLocal@VObject@v8@@@v8@@PEAVIsolate@4@PEAD_KP6AX1PEAX@Z3@Z 0000000180041d38     node:node.exe
 0003:00000d40       __imp_?Data@Buffer@node@@YAPEADV?$Local@VObject@v8@@@v8@@@Z 0000000180041d40     node:node.exe
 0003:00000d48       __imp_?Copy@Buffer@node@@YA?AV?$MaybeLocal@VObject@v8@@@v8@@PEAVIsolate@4@PEBD_K@Z 0000000180041d48     node:node.exe
 0003:00000d50       __imp_?MakeCallback@node@@YA?AV?$Local@VValue@v8@@@v8@@PEAVIsolate@3@V?$Local@VObject@v8@@@3@V?$Local@VFunction@v8@@@3@HPEAV23@@Z 0000000180041d50     node:node.exe
 0003:00000d58       __imp_uv_default_loop      0000000180041d58     node:node.exe
 0003:00000d60       __imp_?ToObject@Value@v8@@QEBA?AV?$Local@VObject@v8@@@2@XZ 0000000180041d60     node:node.exe
 0003:00000d68       __imp_??1EscapableHandleScope@v8@@QEAA@XZ 0000000180041d68     node:node.exe
 0003:00000d70       __imp_?NumberValue@Value@v8@@QEBANXZ 0000000180041d70     node:node.exe
 0003:00000d78       __imp_?HasInstance@FunctionTemplate@v8@@QEAA_NV?$Local@VValue@v8@@@2@@Z 0000000180041d78     node:node.exe
 0003:00000d80       __imp_?New@Uint8ClampedArray@v8@@SA?AV?$Local@VUint8ClampedArray@v8@@@2@V?$Local@VArrayBuffer@v8@@@2@_K1@Z 0000000180041d80     node:node.exe
 0003:00000d88       __imp_?New@Integer@v8@@SA?AV?$Local@VInteger@v8@@@2@PEAVIsolate@2@H@Z 0000000180041d88     node:node.exe
 0003:00000d90       __imp_?ByteLength@ArrayBufferView@v8@@QEAA_KXZ 0000000180041d90     node:node.exe
 0003:00000d98       __imp_?ByteOffset@ArrayBufferView@v8@@QEAA_KXZ 0000000180041d98     node:node.exe
 0003:00000da0       __imp_?Buffer@ArrayBufferView@v8@@QEAA?AV?$Local@VArrayBuffer@v8@@@2@XZ 0000000180041da0     node:node.exe
 0003:00000da8       __imp_?New@Array@v8@@SA?AV?$Local@VArray@v8@@@2@PEAVIsolate@2@H@Z 0000000180041da8     node:node.exe
 0003:00000db0       __imp_?Length@Array@v8@@QEBAIXZ 0000000180041db0     node:node.exe
 0003:00000db8       __imp_?GetFunction@FunctionTemplate@v8@@QEAA?AV?$MaybeLocal@VFunction@v8@@@2@V?$Local@VContext@v8@@@2@@Z 0000000180041db8     node:node.exe
 0003:00000dc0       __imp_?GetContents@ArrayBuffer@v8@@QEAA?AVContents@12@XZ 0000000180041dc0     node:node.exe
 0003:00000dc8       __imp_?New@ArrayBuffer@v8@@SA?AV?$Local@VArrayBuffer@v8@@@2@PEAVIsolate@2@_K@Z 0000000180041dc8     node:node.exe
 0003:00000dd0       __imp_?Int32Value@Value@v8@@QEBAHXZ 0000000180041dd0     node:node.exe
 0003:00000dd8       __imp_?BooleanValue@Value@v8@@QEBA_NXZ 0000000180041dd8     node:node.exe
 0003:00000de0       __imp_?ToInt32@Value@v8@@QEBA?AV?$MaybeLocal@VInt32@v8@@@2@V?$Local@VContext@v8@@@2@@Z 0000000180041de0     node:node.exe
 0003:00000de8       __imp_?IsArrayBufferView@Value@v8@@QEBA_NXZ 0000000180041de8     node:node.exe
 0003:00000df0       __imp_?IsInt32@Value@v8@@QEBA_NXZ 0000000180041df0     node:node.exe
 0003:00000df8       __imp_?IsObject@Value@v8@@QEBA_NXZ 0000000180041df8     node:node.exe
 0003:00000e00       __imp_?IsArray@Value@v8@@QEBA_NXZ 0000000180041e00     node:node.exe
 0003:00000e08       __imp_?New@Object@v8@@SA?AV?$Local@VObject@v8@@@2@PEAVIsolate@2@@Z 0000000180041e08     node:node.exe
 0003:00000e10       __imp_?Get@Object@v8@@QEAA?AV?$Local@VValue@v8@@@2@I@Z 0000000180041e10     node:node.exe
 0003:00000e18       __imp_?Set@Object@v8@@QEAA_NV?$Local@VValue@v8@@@2@0@Z 0000000180041e18     node:node.exe
 0003:00000e20       __imp_?NewInstance@Function@v8@@QEBA?AV?$MaybeLocal@VObject@v8@@@2@V?$Local@VContext@v8@@@2@HQEAV?$Local@VValue@v8@@@2@@Z 0000000180041e20     node:node.exe
 0003:00000e28       __imp_?ToString@Value@v8@@QEBA?AV?$Local@VString@v8@@@2@XZ 0000000180041e28     node:node.exe
 0003:00000e30       __imp_?HasInstance@Buffer@node@@YA_NV?$Local@VValue@v8@@@v8@@@Z 0000000180041e30     node:node.exe
 0003:00000e38       __imp_?Length@Buffer@node@@YA_KV?$Local@VObject@v8@@@v8@@@Z 0000000180041e38     node:node.exe
 0003:00000e40       __imp_?Length@TypedArray@v8@@QEAA_KXZ 0000000180041e40     node:node.exe
 0003:00000e48       __imp_?IsUint8ClampedArray@Value@v8@@QEBA_NXZ 0000000180041e48     node:node.exe
 0003:00000e50       __imp_node_module_register 0000000180041e50     node:node.exe
 0003:00000e58       \177node_NULL_THUNK_DATA_DLA 0000000180041e58     node:node.exe
 0003:00000e60       __hmod__node_exe           0000000180041e60     node:node.exe
 0003:00000e68       __scrt_current_native_startup_state 0000000180041e68     LIBCMT:utility.obj
 0003:00000e70       __scrt_native_startup_lock 0000000180041e70     LIBCMT:utility.obj
 0003:00001420       __favor                    0000000180042420     LIBCMT:_cpu_disp_.obj
 0003:00001424       __scrt_debugger_hook_flag  0000000180042424     LIBCMT:utility_desktop.obj
 0003:00001430       ?__type_info_root_node@@3U__type_info_node@@A 0000000180042430     LIBCMT:tncleanup.obj
 0003:00001440       ?_OptionsStorage@?1??__local_stdio_scanf_options@@9@4_KA 0000000180042440     LIBCMT:default_local_stdio_options.obj
 0003:00001448       ?g_OutOfMemoryExceptionCallback@@3P6APEAXXZEA 0000000180042448     libvcruntime:frame.obj
 0003:00001568       __pPurecall                0000000180042568     libvcruntime:purevirt_data.obj
 0003:00001570       ?pArgList@UnDecorator@@0PEAVReplicator@@EA 0000000180042570     libvcruntime:undname.obj
 0003:00001578       ?pZNameList@UnDecorator@@0PEAVReplicator@@EA 0000000180042578     libvcruntime:undname.obj
 0003:00001580       ?pTemplateArgList@UnDecorator@@0PEAVReplicator@@EA 0000000180042580     libvcruntime:undname.obj
 0003:00001588       ?gName@UnDecorator@@0PEBDEB 0000000180042588     libvcruntime:undname.obj
 0003:00001590       ?name@UnDecorator@@0PEBDEB 0000000180042590     libvcruntime:undname.obj
 0003:00001598       ?outputString@UnDecorator@@0PEADEA 0000000180042598     libvcruntime:undname.obj
 0003:000015a0       ?maxStringLength@UnDecorator@@0HA 00000001800425a0     libvcruntime:undname.obj
 0003:000015a4       ?disableFlags@UnDecorator@@0KA 00000001800425a4     libvcruntime:undname.obj
 0003:000015a8       ?fExplicitTemplateParams@UnDecorator@@0_NA 00000001800425a8     libvcruntime:undname.obj
 0003:000015a9       ?fGetTemplateArgumentList@UnDecorator@@0_NA 00000001800425a9     libvcruntime:undname.obj
 0003:000015b0       ?m_pGetParameter@UnDecorator@@0P6APEADJ@ZEA 00000001800425b0     libvcruntime:undname.obj
 0003:000015e8       _nstream                   00000001800425e8     libucrt:_file.obj
 0003:000015f0       __piob                     00000001800425f0     libucrt:_file.obj
 0003:000015f8       _cflush                    00000001800425f8     libucrt:_file.obj
 0003:00001728       _environ_table             0000000180042728     libucrt:environment_initialization.obj
 0003:00001730       _wenviron_table            0000000180042730     libucrt:environment_initialization.obj
 0003:00001738       __dcrt_initial_wide_environment 0000000180042738     libucrt:environment_initialization.obj
 0003:00001740       __dcrt_initial_narrow_environment 0000000180042740     libucrt:environment_initialization.obj
 0003:00001748       __acrt_atexit_table        0000000180042748     libucrt:onexit.obj
 0003:00001760       __acrt_at_quick_exit_table 0000000180042760     libucrt:onexit.obj
 0003:00001950       __pioinfo                  0000000180042950     libucrt:ioinit.obj
 0003:00001d50       _nhandle                   0000000180042d50     libucrt:ioinit.obj
 0003:00001d60       __acrt_stdout_buffer       0000000180042d60     libucrt:_sftbuf.obj
 0003:00001d68       __acrt_stderr_buffer       0000000180042d68     libucrt:_sftbuf.obj
 0003:00001d70       __acrt_locale_changed_data 0000000180042d70     libucrt:wsetlocale.obj
 0003:00001d78       __acrt_current_locale_data 0000000180042d78     libucrt:nlsdata.obj
 0003:00001f8c       __mbcodepage               0000000180042f8c     libucrt:mbctype.obj
 0003:00001f90       __ismbcodepage             0000000180042f90     libucrt:mbctype.obj
 0003:00001f98       __mbulinfo                 0000000180042f98     libucrt:mbctype.obj
 0003:00001fa8       __mblocalename             0000000180042fa8     libucrt:mbctype.obj
 0003:00001fb4       __argc                     0000000180042fb4     libucrt:argv_data.obj
 0003:00001fb8       __argv                     0000000180042fb8     libucrt:argv_data.obj
 0003:00001fc0       __wargv                    0000000180042fc0     libucrt:argv_data.obj
 0003:00001fc8       _acmdln                    0000000180042fc8     libucrt:argv_data.obj
 0003:00001fd0       _wcmdln                    0000000180042fd0     libucrt:argv_data.obj
 0003:00001fd8       _pgmptr                    0000000180042fd8     libucrt:argv_data.obj
 0003:00001fe0       __acrt_heap                0000000180042fe0     libucrt:heap_handle.obj
 0003:00001ff4       __acrt_lconv_static_null   0000000180042ff4     libucrt:localeconv.obj
 0003:00001ff8       __acrt_lconv_static_W_null 0000000180042ff8     libucrt:localeconv.obj
 0003:00001ffc       _commode                   0000000180042ffc     libucrt:ncommode.obj
 0003:00002000       _umaskval                  0000000180043000     libucrt:umask.obj
 0003:00002004       __fma3_is_available        0000000180043004     libucrt:fma3_available.obj
 0003:00002008       __use_fma3_lib             0000000180043008     libucrt:fma3_available.obj
 0003:0000200c       _fmode                     000000018004300c     libucrt:txtmode.obj
 0003:00002010       ?DloadKernel32@@3PEAUHINSTANCE__@@EA 0000000180043010     DelayImp:delayhlp.obj
 0003:00002018       ?DloadAcquireSRWLockExclusive@@3P6AXPEA_K@ZEA 0000000180043018     DelayImp:delayhlp.obj
 0003:00002020       ?DloadReleaseSRWLockExclusive@@3P6AXPEA_K@ZEA 0000000180043020     DelayImp:delayhlp.obj
 0003:00002028       ?DloadSrwLock@@3_KA        0000000180043028     DelayImp:delayhlp.obj
 0003:00002030       ?DloadSectionLockCount@@3KA 0000000180043030     DelayImp:delayhlp.obj
 0003:00002034       ?DloadSectionOldProtection@@3KA 0000000180043034     DelayImp:delayhlp.obj
 0003:00002038       ?DloadSectionCommitPermanent@@3KA 0000000180043038     DelayImp:delayhlp.obj
 0003:00002040       ?_OptionsStorage@?1??__local_stdio_printf_options@@9@4_KA 0000000180043040     color.obj
 0003:00002048       ?constructor@Canvas@@2V?$Persistent@VFunctionTemplate@v8@@V?$NonCopyablePersistentTraits@VFunctionTemplate@v8@@@2@@Nan@@A 0000000180043048     Canvas.obj
 0003:00002050       ?constructor@Gradient@@2V?$Persistent@VFunctionTemplate@v8@@V?$NonCopyablePersistentTraits@VFunctionTemplate@v8@@@2@@Nan@@A 0000000180043050     CanvasGradient.obj
 0003:00002058       ?constructor@Pattern@@2V?$Persistent@VFunctionTemplate@v8@@V?$NonCopyablePersistentTraits@VFunctionTemplate@v8@@@2@@Nan@@A 0000000180043058     CanvasPattern.obj
 0003:00002060       ?constructor@Context2d@@2V?$Persistent@VFunctionTemplate@v8@@V?$NonCopyablePersistentTraits@VFunctionTemplate@v8@@@2@@Nan@@A 0000000180043060     CanvasRenderingContext2d.obj
 0003:00002068       ?constructor@Image@@2V?$Persistent@VFunctionTemplate@v8@@V?$NonCopyablePersistentTraits@VFunctionTemplate@v8@@@2@@Nan@@A 0000000180043068     Image.obj
 0003:00002070       ?constructor@ImageData@@2V?$Persistent@VFunctionTemplate@v8@@V?$NonCopyablePersistentTraits@VFunctionTemplate@v8@@@2@@Nan@@A 0000000180043070     ImageData.obj
 0003:00002078       __dyn_tls_init_callback    0000000180043078     <common>
 0003:00002080       __scrt_ucrt_dll_is_in_use  0000000180043080     <common>

 entry point at        0001:00012788

 Static symbols

 0000:fffb6000       .debug$S                   0000000180000000     kernel32:KERNEL32.dll
 0000:fffb6000       .debug$S                   0000000180000000     kernel32:KERNEL32.dll
 0000:fffb6000       .debug$S                   0000000180000000     kernel32:KERNEL32.dll
 0000:fffb6000       .debug$S                   0000000180000000     kernel32:KERNEL32.dll
 0000:fffb6000       .debug$S                   0000000180000000     canvas.exp
 0000:fffb6000       .debug$S                   0000000180000000     kernel32:KERNEL32.dll
 0000:fffb6000       .debug$S                   0000000180000000     kernel32:KERNEL32.dll
 0000:fffb6000       .debug$S                   0000000180000000     kernel32:KERNEL32.dll
 0000:fffb6000       .debug$S                   0000000180000000     cairo:libcairo-2.dll
 0000:fffb6000       .debug$S                   0000000180000000     cairo:libcairo-2.dll
 0000:fffb6000       .debug$S                   0000000180000000     cairo:libcairo-2.dll
 0000:fffb6000       .debug$S                   0000000180000000     cairo:libcairo-2.dll
 0000:fffb6000       .debug$S                   0000000180000000     cairo:libcairo-2.dll
 0000:fffb6000       .debug$S                   0000000180000000     cairo:libcairo-2.dll
 0000:fffb6000       .debug$S                   0000000180000000     cairo:libcairo-2.dll
 0000:fffb6000       .debug$S                   0000000180000000     cairo:libcairo-2.dll
 0000:fffb6000       .debug$S                   0000000180000000     cairo:libcairo-2.dll
 0000:fffb6000       .debug$S                   0000000180000000     cairo:libcairo-2.dll
 0000:fffb6000       .debug$S                   0000000180000000     cairo:libcairo-2.dll
 0000:fffb6000       .debug$S                   0000000180000000     cairo:libcairo-2.dll
 0000:fffb6000       .debug$S                   0000000180000000     cairo:libcairo-2.dll
 0000:fffb6000       .debug$S                   0000000180000000     cairo:libcairo-2.dll
 0000:fffb6000       .debug$S                   0000000180000000     cairo:libcairo-2.dll
 0000:fffb6000       .debug$S                   0000000180000000     cairo:libcairo-2.dll
 0000:fffb6000       .debug$S                   0000000180000000     cairo:libcairo-2.dll
 0000:fffb6000       .debug$S                   0000000180000000     cairo:libcairo-2.dll
 0000:fffb6000       .debug$S                   0000000180000000     cairo:libcairo-2.dll
 0000:fffb6000       .debug$S                   0000000180000000     cairo:libcairo-2.dll
 0000:fffb6000       .debug$S                   0000000180000000     cairo:libcairo-2.dll
 0000:fffb6000       .debug$S                   0000000180000000     cairo:libcairo-2.dll
 0000:fffb6000       .debug$S                   0000000180000000     cairo:libcairo-2.dll
 0000:fffb6000       .debug$S                   0000000180000000     cairo:libcairo-2.dll
 0000:fffb6000       .debug$S                   0000000180000000     cairo:libcairo-2.dll
 0000:fffb6000       .debug$S                   0000000180000000     cairo:libcairo-2.dll
 0000:fffb6000       .debug$S                   0000000180000000     cairo:libcairo-2.dll
 0000:fffb6000       .debug$S                   0000000180000000     cairo:libcairo-2.dll
 0000:fffb6000       .debug$S                   0000000180000000     cairo:libcairo-2.dll
 0000:fffb6000       .debug$S                   0000000180000000     cairo:libcairo-2.dll
 0000:fffb6000       .debug$S                   0000000180000000     cairo:libcairo-2.dll
 0000:fffb6000       .debug$S                   0000000180000000     cairo:libcairo-2.dll
 0000:fffb6000       .debug$S                   0000000180000000     cairo:libcairo-2.dll
 0000:fffb6000       .debug$S                   0000000180000000     cairo:libcairo-2.dll
 0000:fffb6000       .debug$S                   0000000180000000     cairo:libcairo-2.dll
 0000:fffb6000       .debug$S                   0000000180000000     cairo:libcairo-2.dll
 0000:fffb6000       .debug$S                   0000000180000000     cairo:libcairo-2.dll
 0000:fffb6000       .debug$S                   0000000180000000     cairo:libcairo-2.dll
 0000:fffb6000       .debug$S                   0000000180000000     cairo:libcairo-2.dll
 0000:fffb6000       .debug$S                   0000000180000000     cairo:libcairo-2.dll
 0000:fffb6000       .debug$S                   0000000180000000     cairo:libcairo-2.dll
 0000:fffb6000       .debug$S                   0000000180000000     cairo:libcairo-2.dll
 0000:fffb6000       .debug$S                   0000000180000000     cairo:libcairo-2.dll
 0000:fffb6000       .debug$S                   0000000180000000     cairo:libcairo-2.dll
 0000:fffb6000       .debug$S                   0000000180000000     kernel32:KERNEL32.dll
 0000:fffb6000       .debug$S                   0000000180000000     cairo:libcairo-2.dll
 0000:fffb6000       .debug$S                   0000000180000000     cairo:libcairo-2.dll
 0000:fffb6000       .debug$S                   0000000180000000     cairo:libcairo-2.dll
 0000:fffb6000       .debug$S                   0000000180000000     cairo:libcairo-2.dll
 0000:fffb6000       .debug$S                   0000000180000000     cairo:libcairo-2.dll
 0000:fffb6000       .debug$S                   0000000180000000     cairo:libcairo-2.dll
 0000:fffb6000       .debug$S                   0000000180000000     cairo:libcairo-2.dll
 0000:fffb6000       .debug$S                   0000000180000000     kernel32:KERNEL32.dll
 0000:fffb6000       .debug$S                   0000000180000000     cairo:libcairo-2.dll
 0000:fffb6000       .debug$S                   0000000180000000     cairo:libcairo-2.dll
 0000:fffb6000       .debug$S                   0000000180000000     kernel32:KERNEL32.dll
 0000:fffb6000       .debug$S                   0000000180000000     cairo:libcairo-2.dll
 0000:fffb6000       .debug$S                   0000000180000000     cairo:libcairo-2.dll
 0000:fffb6000       .debug$S                   0000000180000000     cairo:libcairo-2.dll
 0000:fffb6000       .debug$S                   0000000180000000     cairo:libcairo-2.dll
 0000:fffb6000       .debug$S                   0000000180000000     cairo:libcairo-2.dll
 0000:fffb6000       .debug$S                   0000000180000000     cairo:libcairo-2.dll
 0000:fffb6000       .debug$S                   0000000180000000     cairo:libcairo-2.dll
 0000:fffb6000       .debug$S                   0000000180000000     cairo:libcairo-2.dll
 0000:fffb6000       .debug$S                   0000000180000000     cairo:libcairo-2.dll
 0000:fffb6000       .debug$S                   0000000180000000     kernel32:KERNEL32.dll
 0000:fffb6000       .debug$S                   0000000180000000     cairo:libcairo-2.dll
 0000:fffb6000       .debug$S                   0000000180000000     kernel32:KERNEL32.dll
 0000:fffb6000       .debug$S                   0000000180000000     cairo:libcairo-2.dll
 0000:fffb6000       .debug$S                   0000000180000000     cairo:libcairo-2.dll
 0000:fffb6000       .debug$S                   0000000180000000     kernel32:KERNEL32.dll
 0000:fffb6000       .debug$S                   0000000180000000     cairo:libcairo-2.dll
 0000:fffb6000       .debug$S                   0000000180000000     cairo:libcairo-2.dll
 0000:fffb6000       .debug$S                   0000000180000000     cairo:libcairo-2.dll
 0000:fffb6000       .debug$S                   0000000180000000     cairo:libcairo-2.dll
 0000:fffb6000       .debug$S                   0000000180000000     kernel32:KERNEL32.dll
 0000:fffb6000       .debug$S                   0000000180000000     cairo:libcairo-2.dll
 0000:fffb6000       .debug$S                   0000000180000000     cairo:libcairo-2.dll
 0000:fffb6000       .debug$S                   0000000180000000     kernel32:KERNEL32.dll
 0000:fffb6000       .debug$S                   0000000180000000     kernel32:KERNEL32.dll
 0000:fffb6000       .debug$S                   0000000180000000     kernel32:KERNEL32.dll
 0000:fffb6000       .debug$S                   0000000180000000     kernel32:KERNEL32.dll
 0000:fffb6000       .debug$S                   0000000180000000     kernel32:KERNEL32.dll
 0000:fffb6000       .debug$S                   0000000180000000     kernel32:KERNEL32.dll
 0000:fffb6000       .debug$S                   0000000180000000     kernel32:KERNEL32.dll
 0000:fffb6000       .debug$S                   0000000180000000     kernel32:KERNEL32.dll
 0000:fffb6000       .debug$S                   0000000180000000     kernel32:KERNEL32.dll
 0000:fffb6000       .debug$S                   0000000180000000     kernel32:KERNEL32.dll
 0000:fffb6000       .debug$S                   0000000180000000     kernel32:KERNEL32.dll
 0000:fffb6000       .debug$S                   0000000180000000     kernel32:KERNEL32.dll
 0000:fffb6000       .debug$S                   0000000180000000     cairo:libcairo-2.dll
 0000:fffb6000       .debug$S                   0000000180000000     cairo:libcairo-2.dll
 0000:fffb6000       .debug$S                   0000000180000000     cairo:libcairo-2.dll
 0000:fffb6000       .debug$S                   0000000180000000     cairo:libcairo-2.dll
 0000:fffb6000       .debug$S                   0000000180000000     cairo:libcairo-2.dll
 0000:fffb6000       .debug$S                   0000000180000000     kernel32:KERNEL32.dll
 0000:fffb6000       .debug$S                   0000000180000000     kernel32:KERNEL32.dll
 0000:fffb6000       .debug$S                   0000000180000000     kernel32:KERNEL32.dll
 0000:fffb6000       .debug$S                   0000000180000000     cairo:libcairo-2.dll
 0000:fffb6000       .debug$S                   0000000180000000     kernel32:KERNEL32.dll
 0000:fffb6000       .debug$S                   0000000180000000     kernel32:KERNEL32.dll
 0000:fffb6000       .debug$S                   0000000180000000     cairo:libcairo-2.dll
 0000:fffb6000       .debug$S                   0000000180000000     cairo:libcairo-2.dll
 0000:fffb6000       .debug$S                   0000000180000000     kernel32:KERNEL32.dll
 0000:fffb6000       .debug$S                   0000000180000000     kernel32:KERNEL32.dll
 0000:fffb6000       .debug$S                   0000000180000000     cairo:libcairo-2.dll
 0000:fffb6000       .debug$S                   0000000180000000     libpng:libpng14-14.dll
 0000:fffb6000       .debug$S                   0000000180000000     libpng:libpng14-14.dll
 0000:fffb6000       .debug$S                   0000000180000000     libpng:libpng14-14.dll
 0000:fffb6000       .debug$S                   0000000180000000     cairo:libcairo-2.dll
 0000:fffb6000       .debug$S                   0000000180000000     libpng:libpng14-14.dll
 0000:fffb6000       .debug$S                   0000000180000000     libpng:libpng14-14.dll
 0000:fffb6000       .debug$S                   0000000180000000     libpng:libpng14-14.dll
 0000:fffb6000       .debug$S                   0000000180000000     kernel32:KERNEL32.dll
 0000:fffb6000       .debug$S                   0000000180000000     libpng:libpng14-14.dll
 0000:fffb6000       .debug$S                   0000000180000000     libpng:libpng14-14.dll
 0000:fffb6000       .debug$S                   0000000180000000     kernel32:KERNEL32.dll
 0000:fffb6000       .debug$S                   0000000180000000     libpng:libpng14-14.dll
 0000:fffb6000       .debug$S                   0000000180000000     cairo:libcairo-2.dll
 0000:fffb6000       .debug$S                   0000000180000000     libpng:libpng14-14.dll
 0000:fffb6000       .debug$S                   0000000180000000     libpng:libpng14-14.dll
 0000:fffb6000       .debug$S                   0000000180000000     libpng:libpng14-14.dll
 0000:fffb6000       .debug$S                   0000000180000000     libpng:libpng14-14.dll
 0000:fffb6000       .debug$S                   0000000180000000     kernel32:KERNEL32.dll
 0000:fffb6000       .debug$S                   0000000180000000     libpng:libpng14-14.dll
 0000:fffb6000       .debug$S                   0000000180000000     libpng:libpng14-14.dll
 0000:fffb6000       .debug$S                   0000000180000000     cairo:libcairo-2.dll
 0000:fffb6000       .debug$S                   0000000180000000     libpng:libpng14-14.dll
 0000:fffb6000       .debug$S                   0000000180000000     kernel32:KERNEL32.dll
 0000:fffb6000       .debug$S                   0000000180000000     libpng:libpng14-14.dll
 0000:fffb6000       .debug$S                   0000000180000000     libpng:libpng14-14.dll
 0000:fffb6000       .debug$S                   0000000180000000     kernel32:KERNEL32.dll
 0000:fffb6000       .debug$S                   0000000180000000     cairo:libcairo-2.dll
 0000:fffb6000       .debug$S                   0000000180000000     cairo:libcairo-2.dll
 0000:fffb6000       .debug$S                   0000000180000000     cairo:libcairo-2.dll
 0000:fffb6000       .debug$S                   0000000180000000     cairo:libcairo-2.dll
 0000:fffb6000       .debug$S                   0000000180000000     kernel32:KERNEL32.dll
 0000:fffb6000       .debug$S                   0000000180000000     cairo:libcairo-2.dll
 0000:fffb6000       .debug$S                   0000000180000000     cairo:libcairo-2.dll
 0000:fffb6000       .debug$S                   0000000180000000     cairo:libcairo-2.dll
 0000:fffb6000       .debug$S                   0000000180000000     cairo:libcairo-2.dll
 0000:fffb6000       .debug$S                   0000000180000000     cairo:libcairo-2.dll
 0000:fffb6000       .debug$S                   0000000180000000     node:node.exe
 0000:fffb6000       .debug$S                   0000000180000000     node:node.exe
 0000:fffb6000       .debug$S                   0000000180000000     kernel32:KERNEL32.dll
 0000:fffb6000       .debug$S                   0000000180000000     node:node.exe
 0000:fffb6000       .debug$S                   0000000180000000     kernel32:KERNEL32.dll
 0000:fffb6000       .debug$S                   0000000180000000     kernel32:KERNEL32.dll
 0000:fffb6000       .debug$S                   0000000180000000     node:node.exe
 0000:fffb6000       .debug$S                   0000000180000000     node:node.exe
 0000:fffb6000       .debug$S                   0000000180000000     node:node.exe
 0000:fffb6000       .debug$S                   0000000180000000     node:node.exe
 0000:fffb6000       .debug$S                   0000000180000000     node:node.exe
 0000:fffb6000       .debug$S                   0000000180000000     node:node.exe
 0000:fffb6000       .debug$S                   0000000180000000     node:node.exe
 0000:fffb6000       .debug$S                   0000000180000000     node:node.exe
 0000:fffb6000       .debug$S                   0000000180000000     node:node.exe
 0000:fffb6000       .debug$S                   0000000180000000     node:node.exe
 0000:fffb6000       .debug$S                   0000000180000000     node:node.exe
 0000:fffb6000       .debug$S                   0000000180000000     node:node.exe
 0000:fffb6000       .debug$S                   0000000180000000     node:node.exe
 0000:fffb6000       .debug$S                   0000000180000000     kernel32:KERNEL32.dll
 0000:fffb6000       .debug$S                   0000000180000000     node:node.exe
 0000:fffb6000       .debug$S                   0000000180000000     node:node.exe
 0000:fffb6000       .debug$S                   0000000180000000     node:node.exe
 0000:fffb6000       .debug$S                   0000000180000000     node:node.exe
 0000:fffb6000       .debug$S                   0000000180000000     kernel32:KERNEL32.dll
 0000:fffb6000       .debug$S                   0000000180000000     kernel32:KERNEL32.dll
 0000:fffb6000       .debug$S                   0000000180000000     node:node.exe
 0000:fffb6000       .debug$S                   0000000180000000     node:node.exe
 0000:fffb6000       .debug$S                   0000000180000000     node:node.exe
 0000:fffb6000       .debug$S                   0000000180000000     kernel32:KERNEL32.dll
 0000:fffb6000       .debug$S                   0000000180000000     node:node.exe
 0000:fffb6000       .debug$S                   0000000180000000     node:node.exe
 0000:fffb6000       .debug$S                   0000000180000000     kernel32:KERNEL32.dll
 0000:fffb6000       .debug$S                   0000000180000000     node:node.exe
 0000:fffb6000       .debug$S                   0000000180000000     kernel32:KERNEL32.dll
 0000:fffb6000       .debug$S                   0000000180000000     node:node.exe
 0000:fffb6000       .debug$S                   0000000180000000     node:node.exe
 0000:fffb6000       .debug$S                   0000000180000000     node:node.exe
 0000:fffb6000       .debug$S                   0000000180000000     node:node.exe
 0000:fffb6000       .debug$S                   0000000180000000     kernel32:KERNEL32.dll
 0000:fffb6000       .debug$S                   0000000180000000     node:node.exe
 0000:fffb6000       .debug$S                   0000000180000000     node:node.exe
 0000:fffb6000       .debug$S                   0000000180000000     node:node.exe
 0000:fffb6000       .debug$S                   0000000180000000     node:node.exe
 0000:fffb6000       .debug$S                   0000000180000000     kernel32:KERNEL32.dll
 0000:fffb6000       .debug$S                   0000000180000000     kernel32:KERNEL32.dll
 0000:fffb6000       .debug$S                   0000000180000000     node:node.exe
 0000:fffb6000       .debug$S                   0000000180000000     node:node.exe
 0000:fffb6000       .debug$S                   0000000180000000     node:node.exe
 0000:fffb6000       .debug$S                   0000000180000000     kernel32:KERNEL32.dll
 0000:fffb6000       .debug$S                   0000000180000000     node:node.exe
 0000:fffb6000       .debug$S                   0000000180000000     node:node.exe
 0000:fffb6000       .debug$S                   0000000180000000     kernel32:KERNEL32.dll
 0000:fffb6000       .debug$S                   0000000180000000     kernel32:KERNEL32.dll
 0000:fffb6000       .debug$S                   0000000180000000     kernel32:KERNEL32.dll
 0000:fffb6000       .debug$S                   0000000180000000     kernel32:KERNEL32.dll
 0000:fffb6000       .debug$S                   0000000180000000     kernel32:KERNEL32.dll
 0000:fffb6000       .debug$S                   0000000180000000     kernel32:KERNEL32.dll
 0000:fffb6000       .debug$S                   0000000180000000     kernel32:KERNEL32.dll
 0000:fffb6000       .debug$S                   0000000180000000     kernel32:KERNEL32.dll
 0000:fffb6000       .debug$S                   0000000180000000     kernel32:KERNEL32.dll
 0000:fffb6000       .debug$S                   0000000180000000     kernel32:KERNEL32.dll
 0000:fffb6000       .debug$S                   0000000180000000     kernel32:KERNEL32.dll
 0000:fffb6000       .debug$S                   0000000180000000     kernel32:KERNEL32.dll
 0000:fffb6000       .debug$S                   0000000180000000     kernel32:KERNEL32.dll
 0000:fffb6000       .debug$S                   0000000180000000     kernel32:KERNEL32.dll
 0000:fffb6000       .debug$S                   0000000180000000     kernel32:KERNEL32.dll
 0000:fffb6000       .debug$S                   0000000180000000     kernel32:KERNEL32.dll
 0000:fffb6000       .debug$S                   0000000180000000     kernel32:KERNEL32.dll
 0000:fffb6000       .debug$S                   0000000180000000     kernel32:KERNEL32.dll
 0000:fffb6000       .debug$S                   0000000180000000     kernel32:KERNEL32.dll
 0000:fffb6000       .debug$S                   0000000180000000     kernel32:KERNEL32.dll
 0000:fffb6000       .debug$S                   0000000180000000     kernel32:KERNEL32.dll
 0000:fffb6000       .debug$S                   0000000180000000     kernel32:KERNEL32.dll
 0000:fffb6000       .debug$S                   0000000180000000     kernel32:KERNEL32.dll
 0000:fffb6000       .debug$S                   0000000180000000     kernel32:KERNEL32.dll
 0000:fffb6000       .debug$S                   0000000180000000     kernel32:KERNEL32.dll
 0000:fffb6000       .debug$S                   0000000180000000     kernel32:KERNEL32.dll
 0000:fffb6000       .debug$S                   0000000180000000     kernel32:KERNEL32.dll
 0000:fffb6000       .debug$S                   0000000180000000     kernel32:KERNEL32.dll
 0000:fffb6000       .debug$S                   0000000180000000     node:node.exe
 0000:fffb6000       .debug$S                   0000000180000000     kernel32:KERNEL32.dll
 0000:fffb6000       .debug$S                   0000000180000000     kernel32:KERNEL32.dll
 0000:fffb6000       .debug$S                   0000000180000000     kernel32:KERNEL32.dll
 0000:fffb6000       .debug$S                   0000000180000000     kernel32:KERNEL32.dll
 0000:fffb6000       .debug$S                   0000000180000000     node:node.exe
 0000:fffb6000       .debug$S                   0000000180000000     kernel32:KERNEL32.dll
 0000:fffb6000       .debug$S                   0000000180000000     node:node.exe
 0000:fffb6000       .debug$S                   0000000180000000     kernel32:KERNEL32.dll
 0000:fffb6000       .debug$S                   0000000180000000     node:node.exe
 0000:fffb6000       .debug$S                   0000000180000000     node:node.exe
 0000:fffb6000       .debug$S                   0000000180000000     node:node.exe
 0000:fffb6000       .debug$S                   0000000180000000     node:node.exe
 0000:fffb6000       .debug$S                   0000000180000000     node:node.exe
 0000:fffb6000       .debug$S                   0000000180000000     node:node.exe
 0000:fffb6000       .debug$S                   0000000180000000     node:node.exe
 0000:fffb6000       .debug$S                   0000000180000000     node:node.exe
 0000:fffb6000       .debug$S                   0000000180000000     node:node.exe
 0000:fffb6000       .debug$S                   0000000180000000     node:node.exe
 0000:fffb6000       .debug$S                   0000000180000000     kernel32:KERNEL32.dll
 0000:fffb6000       .debug$S                   0000000180000000     kernel32:KERNEL32.dll
 0000:fffb6000       .debug$S                   0000000180000000     node:node.exe
 0000:fffb6000       .debug$S                   0000000180000000     kernel32:KERNEL32.dll
 0000:fffb6000       .debug$S                   0000000180000000     node:node.exe
 0000:fffb6000       .debug$S                   0000000180000000     node:node.exe
 0000:fffb6000       .debug$S                   0000000180000000     node:node.exe
 0000:fffb6000       .debug$S                   0000000180000000     node:node.exe
 0000:fffb6000       .debug$S                   0000000180000000     kernel32:KERNEL32.dll
 0000:fffb6000       .debug$S                   0000000180000000     node:node.exe
 0000:fffb6000       .debug$S                   0000000180000000     kernel32:KERNEL32.dll
 0000:fffb6000       .debug$S                   0000000180000000     kernel32:KERNEL32.dll
 0000:fffb6000       .debug$S                   0000000180000000     node:node.exe
 0000:fffb6000       .debug$S                   0000000180000000     node:node.exe
 0000:fffb6000       .debug$S                   0000000180000000     node:node.exe
 0000:fffb6000       .debug$S                   0000000180000000     node:node.exe
 0000:fffb6000       .debug$S                   0000000180000000     node:node.exe
 0000:fffb6000       .debug$S                   0000000180000000     node:node.exe
 0000:fffb6000       .debug$S                   0000000180000000     node:node.exe
 0000:fffb6000       .debug$S                   0000000180000000     node:node.exe
 0000:fffb6000       .debug$S                   0000000180000000     node:node.exe
 0000:fffb6000       .debug$S                   0000000180000000     node:node.exe
 0000:fffb6000       .debug$S                   0000000180000000     node:node.exe
 0000:fffb6000       .debug$S                   0000000180000000     kernel32:KERNEL32.dll
 0000:fffb6000       .debug$S                   0000000180000000     kernel32:KERNEL32.dll
 0000:fffb6000       .debug$S                   0000000180000000     node:node.exe
 0000:fffb6000       .debug$S                   0000000180000000     node:node.exe
 0000:fffb6000       .debug$S                   0000000180000000     node:node.exe
 0000:fffb6000       .debug$S                   0000000180000000     node:node.exe
 0000:fffb6000       .debug$S                   0000000180000000     kernel32:KERNEL32.dll
 0000:fffb6000       .debug$S                   0000000180000000     node:node.exe
 0000:fffb6000       .debug$S                   0000000180000000     node:node.exe
 0000:fffb6000       .debug$S                   0000000180000000     node:node.exe
 0000:fffb6000       .debug$S                   0000000180000000     node:node.exe
 0000:fffb6000       .debug$S                   0000000180000000     node:node.exe
 0000:fffb6000       .debug$S                   0000000180000000     node:node.exe
 0000:fffb6000       .debug$S                   0000000180000000     node:node.exe
 0000:fffb6000       .debug$S                   0000000180000000     node:node.exe
 0000:fffb6000       .debug$S                   0000000180000000     node:node.exe
 0000:fffb6000       .debug$S                   0000000180000000     node:node.exe
 0000:fffb6000       .debug$S                   0000000180000000     node:node.exe
 0000:fffb6000       .debug$S                   0000000180000000     node:node.exe
 0000:fffb6000       .debug$S                   0000000180000000     node:node.exe
 0000:fffb6000       .debug$S                   0000000180000000     node:node.exe
 0000:fffb6000       .debug$S                   0000000180000000     node:node.exe
 0000:fffb6000       .debug$S                   0000000180000000     node:node.exe
 0000:fffb6000       .debug$S                   0000000180000000     node:node.exe
 0000:fffb6000       .debug$S                   0000000180000000     node:node.exe
 0000:fffb6000       .debug$S                   0000000180000000     node:node.exe
 0000:fffb6000       .debug$S                   0000000180000000     node:node.exe
 0000:fffb6000       .debug$S                   0000000180000000     node:node.exe
 0000:fffb6000       .debug$S                   0000000180000000     node:node.exe
 0000:fffb6000       .debug$S                   0000000180000000     node:node.exe
 0000:fffb6000       .debug$S                   0000000180000000     node:node.exe
 0000:fffb6000       .debug$S                   0000000180000000     node:node.exe
 0000:fffb6000       .debug$S                   0000000180000000     node:node.exe
 0000:fffb6000       .debug$S                   0000000180000000     node:node.exe
 0000:fffb6000       .debug$S                   0000000180000000     node:node.exe
 0000:fffb6000       .debug$S                   0000000180000000     node:node.exe
 0000:fffb6000       .debug$S                   0000000180000000     node:node.exe
 0000:fffb6000       .debug$S                   0000000180000000     node:node.exe
 0000:fffb6000       .debug$S                   0000000180000000     node:node.exe
 0000:fffb6000       .debug$S                   0000000180000000     node:node.exe
 0000:fffb6000       .debug$S                   0000000180000000     node:node.exe
 0000:fffb6000       .debug$S                   0000000180000000     node:node.exe
 0000:fffb6000       .debug$S                   0000000180000000     node:node.exe
 0000:fffb6000       .debug$S                   0000000180000000     node:node.exe
 0000:fffb6000       .debug$S                   0000000180000000     node:node.exe
 0000:fffb6000       .debug$S                   0000000180000000     node:node.exe
 0000:fffb6000       .debug$S                   0000000180000000     cairo:libcairo-2.dll
 0001:00000000       ??__E?constructor@Canvas@@2V?$Persistent@VFunctionTemplate@v8@@V?$NonCopyablePersistentTraits@VFunctionTemplate@v8@@@2@@Nan@@A@@YAXXZ 0000000180001000 f   Canvas.obj
 0001:00000020       ??__E?constructor@Gradient@@2V?$Persistent@VFunctionTemplate@v8@@V?$NonCopyablePersistentTraits@VFunctionTemplate@v8@@@2@@Nan@@A@@YAXXZ 0000000180001020 f   CanvasGradient.obj
 0001:00000040       ??__E?constructor@Pattern@@2V?$Persistent@VFunctionTemplate@v8@@V?$NonCopyablePersistentTraits@VFunctionTemplate@v8@@@2@@Nan@@A@@YAXXZ 0000000180001040 f   CanvasPattern.obj
 0001:00000060       ??__E?constructor@Context2d@@2V?$Persistent@VFunctionTemplate@v8@@V?$NonCopyablePersistentTraits@VFunctionTemplate@v8@@@2@@Nan@@A@@YAXXZ 0000000180001060 f   CanvasRenderingContext2d.obj
 0001:00000080       ??__E?constructor@Image@@2V?$Persistent@VFunctionTemplate@v8@@V?$NonCopyablePersistentTraits@VFunctionTemplate@v8@@@2@@Nan@@A@@YAXXZ 0000000180001080 f   Image.obj
 0001:000000a0       ??__E?constructor@ImageData@@2V?$Persistent@VFunctionTemplate@v8@@V?$NonCopyablePersistentTraits@VFunctionTemplate@v8@@@2@@Nan@@A@@YAXXZ 00000001800010a0 f   ImageData.obj
 0001:000000c0       ?FunctionCallbackWrapper@imp@Nan@@YAXAEBV?$FunctionCallbackInfo@VValue@v8@@@v8@@@Z 00000001800010c0 f   Canvas.obj
 0001:00000170       ?GetterCallbackWrapper@imp@Nan@@YAXV?$Local@VName@v8@@@v8@@AEBV?$PropertyCallbackInfo@VValue@v8@@@4@@Z 0000000180001170 f   Canvas.obj
 0001:00000220       ?SetterCallbackWrapper@imp@Nan@@YAXV?$Local@VName@v8@@@v8@@V?$Local@VValue@v8@@@4@AEBV?$PropertyCallbackInfo@X@4@@Z 0000000180001220 f   Canvas.obj
 0001:00001080       ?canvas_png_flush@@YAXPEAUpng_struct_def@@@Z 0000000180002080 f   Canvas.obj
 0001:00001090       ?canvas_convert_data_to_bytes@@YAXPEAUpng_struct_def@@PEAUpng_row_info_struct@@PEAE@Z 0000000180002090 f   Canvas.obj
 0001:000010d0       ?canvas_unpremultiply_data@@YAXPEAUpng_struct_def@@PEAUpng_row_info_struct@@PEAE@Z 00000001800020d0 f   Canvas.obj
 0001:00001180       ?canvas_write_png@@YA?AW4_cairo_status@@PEAU_cairo_surface@@P6AXPEAUpng_struct_def@@PEAE_K@ZPEAX@Z 0000000180002180 f   Canvas.obj
 0001:000014c0       ?canvas_stream_write_func@@YAXPEAUpng_struct_def@@PEAE_K@Z 00000001800024c0 f   Canvas.obj
 0001:000023d0       ?toBuffer@@YA?AW4_cairo_status@@PEAXPEBEI@Z 00000001800033d0 f   Canvas.obj
 0001:00002f00       ?streamPNG@@YA?AW4_cairo_status@@PEAXPEBEI@Z 0000000180003f00 f   Canvas.obj
 0001:000035b0       ?streamPDF@@YA?AW4_cairo_status@@PEAXPEBEI@Z 00000001800045b0 f   Canvas.obj
 0001:0000846c       $LN100                     000000018000946c     CanvasRenderingContext2d.obj
 0001:0000eb40       ?h@@YAHD@Z                 000000018000fb40 f   color.obj
 0001:0000eb7c       $LN9                       000000018000fb7c     color.obj
 0001:0000eb8c       $LN8                       000000018000fb8c     color.obj
 0001:0000ebd0       ?rgba_from_hsla@@YAHMMMM@Z 000000018000fbd0 f   color.obj
 0001:0000ee80       ?rgba_from_rgb_string@@YAHPEBDPEAF@Z 000000018000fe80 f   color.obj
 0001:0000f0a0       ?rgba_from_rgba_string@@YAHPEBDPEAF@Z 00000001800100a0 f   color.obj
 0001:0000f340       ?rgba_from_hsla_string@@YAHPEBDPEAF@Z 0000000180010340 f   color.obj
 0001:0000f570       ?rgba_from_hsl_string@@YAHPEBDPEAF@Z 0000000180010570 f   color.obj
 0001:0000f710       ?rgba_from_hex_string@@YAHPEBDPEAF@Z 0000000180010710 f   color.obj
 0001:0000f820       ?rgba_from_name_string@@YAHPEBDPEAF@Z 0000000180010820 f   color.obj
 0001:0000f980       ??$parse_integer@H@@YA_NPEAPEBDPEAH@Z 0000000180010980 f   color.obj
 0001:0000fa00       ??$parse_css_number@M@@YA_NPEAPEBDPEAM@Z 0000000180010a00 f   color.obj
 0001:000118f0       _register_canvas           00000001800128f0 f   init.obj
 0001:00011900       ?load_exe_hook@@YAP6A_JXZIPEAUDelayLoadInfo@@@Z 0000000180012900 f   win_delay_load_hook.obj
 0001:00011fe0       $$000000                   0000000180012fe0     LIBCMT:_amdsecgs_.obj
 0001:0001243c       ?dllmain_crt_dispatch@@YAHQEAUHINSTANCE__@@KQEAX@Z 000000018001343c f   LIBCMT:dll_dllmain.obj
 0001:0001248c       ?dllmain_crt_process_attach@@YAHQEAUHINSTANCE__@@QEAX@Z 000000018001348c f   LIBCMT:dll_dllmain.obj
 0001:000125b8       ?dllmain_crt_process_detach@@YAH_N@Z 00000001800135b8 f   LIBCMT:dll_dllmain.obj
 0001:0001263c       ?dllmain_dispatch@@YAHQEAUHINSTANCE__@@KQEAX@Z 000000018001363c f   LIBCMT:dll_dllmain.obj
 0001:00012734       ?dllmain_raw@@YAHQEAUHINSTANCE__@@KQEAX@Z 0000000180013734 f   LIBCMT:dll_dllmain.obj
 0001:000129ac       capture_current_context    00000001800139ac f   LIBCMT:gs_report.obj
 0001:00012a1c       capture_previous_context   0000000180013a1c f   LIBCMT:gs_report.obj
 0001:00013144       ?CatchIt@@YAXPEAUEHExceptionRecord@@PEA_KPEAU_CONTEXT@@PEAU_xDISPATCHER_CONTEXT@@PEBU_s_FuncInfo@@PEBU_s_HandlerType@@PEBU_s_CatchableType@@PEBU_s_TryBlockMapEntry@@H1EE@Z 0000000180014144 f   libvcruntime:frame.obj
 0001:00013208       ?ExFilterRethrow@@YAHPEAU_EXCEPTION_POINTERS@@PEAUEHExceptionRecord@@PEAH@Z 0000000180014208 f   libvcruntime:frame.obj
 0001:00013290       ?FindHandler@@YAXPEAUEHExceptionRecord@@PEA_KPEAU_CONTEXT@@PEAU_xDISPATCHER_CONTEXT@@PEBU_s_FuncInfo@@EH1@Z 0000000180014290 f   libvcruntime:frame.obj
 0001:00013760       ?FindHandlerForForeignException@@YAXPEAUEHExceptionRecord@@PEA_KPEAU_CONTEXT@@PEAU_xDISPATCHER_CONTEXT@@PEBU_s_FuncInfo@@HH1@Z 0000000180014760 f   libvcruntime:frame.obj
 0001:000139cc       ?IsInExceptionSpec@@YAEPEAUEHExceptionRecord@@PEBU_s_ESTypeList@@@Z 00000001800149cc f   libvcruntime:frame.obj
 0001:00014b10       $$000000                   0000000180015b10     libvcruntime:memset.obj
 0001:00014bfc       MsetTab                    0000000180015bfc     libvcruntime:memset.obj
 0001:00014d20       $$000000                   0000000180015d20     libvcruntime:memcpy.obj
 0001:00014dc7       MoveSmall                  0000000180015dc7     libvcruntime:memcpy.obj
 0001:00015420       $$000000                   0000000180016420     libvcruntime:handlers.obj
 0001:00015b20       $$000000                   0000000180016b20     libvcruntime:_jmpuwind_.obj
 0001:00015c14       ?try_get_function@@YAPEAXW4function_id@?A0x679b24ab@@QEBDQEBW4module_id@2@2@Z 0000000180016c14 f   libvcruntime:winapi_downlevel.obj
 0001:00016078       ??$common_assert_to_message_box@_W@@YAXQEB_W0IQEAX@Z 0000000180017078 f   libucrt:assert.obj
 0001:0001613c       ??$common_assert_to_message_box_build_string@_W@@YAXQEA_W_KQEB_W2IQEAX@Z 000000018001713c f   libucrt:assert.obj
 0001:00016910       ??$common_assert_to_stderr@_W@@YAXQEB_W0I@Z 0000000180017910 f   libucrt:assert.obj
 0001:00016a80       ?get_assert_format@@YAPEB_W_W@Z 0000000180017a80 f   libucrt:assert.obj
 0001:000175d0       ??R<lambda_dd75445284c072d0bd3768540cc698fa>@@QEBAHXZ 00000001800185d0 f   libucrt:output.obj
 0001:0001a1d4       ??$common_fsopen@D@@YAPEAU_iobuf@@QEBD0H@Z 000000018001b1d4 f   libucrt:fopen.obj
 0001:0001a3a0       ?common_fseek@@YAHV__crt_stdio_stream@@_JH@Z 000000018001b3a0 f   libucrt:fseek.obj
 0001:0001a40c       ?common_fseek_binary_mode_read_only_fast_track_nolock@@YA_NV__crt_stdio_stream@@_JH@Z 000000018001b40c f   libucrt:fseek.obj
 0001:0001a51c       ?common_fseek_nolock@@YAHV__crt_stdio_stream@@_JH@Z 000000018001b51c f   libucrt:fseek.obj
 0001:0001acbc       ?atexit_exception_filter@@YAHK@Z 000000018001bcbc f   libucrt:exit.obj
 0001:0001acc8       ?common_exit@@YAXHW4_crt_exit_cleanup_mode@@W4_crt_exit_return_mode@@@Z 000000018001bcc8 f   libucrt:exit.obj
 0001:0001ae34       ?exit_or_terminate_process@@YAXI@Z 000000018001be34 f   libucrt:exit.obj
 0001:0001ae80       ?try_cor_exit_process@@YAXI@Z 000000018001be80 f   libucrt:exit.obj
 0001:0001af18       ??$parse_command_line@D@@YAXPEADPEAPEAD0PEA_K2@Z 000000018001bf18 f   libucrt:argv_parsing.obj
 0001:0001b2b0       ??$common_initialize_environment_nolock@D@@YAHXZ 000000018001c2b0 f   libucrt:environment_initialization.obj
 0001:0001b31c       ??$create_environment@D@@YAQEAPEADQEAD@Z 000000018001c31c f   libucrt:environment_initialization.obj
 0001:0001b418       ??$free_environment@_W@@YAXQEAPEA_W@Z 000000018001c418 f   libucrt:environment_initialization.obj
 0001:0001b418       ??$free_environment@D@@YAXQEAPEAD@Z 000000018001c418 f   libucrt:environment_initialization.obj
 0001:0001b45c       ??$uninitialize_environment_internal@D@@YAXAEAPEAPEAD@Z 000000018001c45c f   libucrt:environment_initialization.obj
 0001:0001b478       ??$uninitialize_environment_internal@_W@@YAXAEAPEAPEA_W@Z 000000018001c478 f   libucrt:environment_initialization.obj
 0001:0001b6b0       ??R<lambda_4e60a939b0d047cfe11ddc22648dfba9>@@QEBAHXZ 000000018001c6b0 f   libucrt:onexit.obj
 0001:0001b960       initialize_global_variables 000000018001c960 f   libucrt:initialization.obj
 0001:0001b974       initialize_c               000000018001c974 f   libucrt:initialization.obj
 0001:0001b998       uninitialize_environment   000000018001c998 f   libucrt:initialization.obj
 0001:0001b9a8       uninitialize_global_state_isolation 000000018001c9a8 f   libucrt:initialization.obj
 0001:0001b9a8       initialize_global_state_isolation 000000018001c9a8 f   libucrt:initialization.obj
 0001:0001b9a8       initialize_environment     000000018001c9a8 f   libucrt:initialization.obj
 0001:0001b9a8       uninitialize_c             000000018001c9a8 f   libucrt:initialization.obj
 0001:0001b9a8       report_memory_leaks        000000018001c9a8 f   libucrt:initialization.obj
 0001:0001b9ac       initialize_pointers        000000018001c9ac f   libucrt:initialization.obj
 0001:0001ba00       uninitialize_vcruntime     000000018001ca00 f   libucrt:initialization.obj
 0001:0001ba08       uninitialize_allocated_memory 000000018001ca08 f   libucrt:initialization.obj
 0001:0001c9a0       ??$common_xtox@K_W@@YAHKQEA_W_KI_N@Z 000000018001d9a0 f   libucrt:xtoa.obj
 0001:0001ca4c       ??$common_xtox_s@K_W@@YAHKQEA_W_KI_N@Z 000000018001da4c f   libucrt:xtoa.obj
 0001:0001cd10       ??$message_box_wait_thread@_W@@YAKQEAX@Z 000000018001dd10 f   libucrt:crtmbox.obj
 0001:0001cf24       common_flush_all           000000018001df24 f   libucrt:fflush.obj
 0001:0001d08c       ??R<lambda_b721fa326cdb32351d23dfa67958c160>@@QEBAHXZ 000000018001e08c f   libucrt:setvbuf.obj
 0001:0001d550       _call_matherr              000000018001e550 f   libucrt:libm_error.obj
 0001:0001d5b8       _exception_enabled         000000018001e5b8 f   libucrt:libm_error.obj
 0001:0001da24       ?construct_ptd_array@@YAXQEAU__acrt_ptd@@@Z 000000018001ea24 f   libucrt:per_thread_data.obj
 0001:0001daf4       ?destroy_fls@@YAXPEAX@Z    000000018001eaf4 f   libucrt:per_thread_data.obj
 0001:0001db14       ?destroy_ptd_array@@YAXQEAU__acrt_ptd@@@Z 000000018001eb14 f   libucrt:per_thread_data.obj
 0001:0001dc0c       ?replace_current_thread_locale_nolock@@YAXQEAU__acrt_ptd@@QEAU__crt_locale_data@@@Z 000000018001ec0c f   libucrt:per_thread_data.obj
 0001:0001de4c       ?try_get_function@@YAPEAXW4function_id@?A0x63058377@@QEBDQEBW4module_id@2@2@Z 000000018001ee4c f   libucrt:winapi_thunks.obj
 0001:0001e7b8       ?initialize_inherited_file_handles_nolock@@YAXXZ 000000018001f7b8 f   libucrt:ioinit.obj
 0001:0001e8a4       ?initialize_stdio_handles_nolock@@YAXXZ 000000018001f8a4 f   libucrt:ioinit.obj
 0001:0001ea90       ?internal_isupper_l@@YA_NHQEAU__crt_locale_pointers@@@Z 000000018001fa90 f   libucrt:tolower_toupper.obj
 0001:0001f3c4       ?fp_format_a@@YAHQEBNPEAD_KQEAD2H_NIQEAU__crt_locale_pointers@@@Z 00000001800203c4 f   libucrt:cvt.obj
 0001:0001f724       ?fp_format_e@@YAHQEBNQEAD_K12H_NIQEAU__crt_locale_pointers@@@Z 0000000180020724 f   libucrt:cvt.obj
 0001:0001f7f4       ?fp_format_e_internal@@YAHQEAD_KH_NIQEAU_strflt@@2QEAU__crt_locale_pointers@@@Z 00000001800207f4 f   libucrt:cvt.obj
 0001:0001f9d0       ?fp_format_f_internal@@YAHQEAD_KHQEAU_strflt@@_NQEAU__crt_locale_pointers@@@Z 00000001800209d0 f   libucrt:cvt.obj
 0001:0001fb18       ?fp_format_g@@YAHQEBNQEAD_K12H_NIQEAU__crt_locale_pointers@@@Z 0000000180020b18 f   libucrt:cvt.obj
 0001:0001fc50       ?fp_format_nan_or_infinity@@YAHW4__acrt_fp_class@@_NPEAD_K1@Z 0000000180020c50 f   libucrt:cvt.obj
 0001:000203ac       ?find_or_allocate_unused_stream_nolock@@YA?AV__crt_stdio_stream@@XZ 00000001800213ac f   libucrt:stream.obj
 0001:000209a4       ??$common_ftell_nolock@_J@@YA_JV__crt_stdio_stream@@@Z 00000001800219a4 f   libucrt:ftell.obj
 0001:00020b1c       ?common_ftell_read_mode_nolock@@YA_JV__crt_stdio_stream@@_J1@Z 0000000180021b1c f   libucrt:ftell.obj
 0001:00020c94       ?common_ftell_translated_utf8_nolock@@YA_JV__crt_stdio_stream@@_J@Z 0000000180021c94 f   libucrt:ftell.obj
 0001:00020e14       ??$common_lseek@_J@@YA_JH_JH@Z 0000000180021e14 f   libucrt:lseek.obj
 0001:00020f04       ??$common_lseek_nolock@_J@@YA_JH_JH@Z 0000000180021f04 f   libucrt:lseek.obj
 0001:00020fb0       ??$translate_text_mode_nolock@_W@@YAHHQEA_W_K@Z 0000000180021fb0 f   libucrt:read.obj
 0001:000211e0       ?translate_ansi_or_utf8_nolock@@YAHHQEAD_KQEA_W1@Z 00000001800221e0 f   libucrt:read.obj
 0001:00021a60       ??$common_refill_and_read_nolock@D@@YAHV__crt_stdio_stream@@@Z 0000000180022a60 f   libucrt:_filbuf.obj
 0001:00021cc8       ?<helper_func_cdecl>@<lambda_2feae5270eb4d0d5532525f423405775>@@CAHPEBX0@Z 0000000180022cc8 f   libucrt:argv_wildcards.obj
 0001:00021cdc       ??$common_expand_argv_wildcards@D@@YAHQEAPEADQEAPEAPEAD@Z 0000000180022cdc f   libucrt:argv_wildcards.obj
 0001:00021ee8       ??$copy_and_add_argument_to_buffer@D@@YAHQEBD0_KAEAV?$argument_list@D@?A0xca0879c4@@@Z 0000000180022ee8 f   libucrt:argv_wildcards.obj
 0001:00021ff8       ??$expand_argument_wildcards@D@@YAHQEAD0AEAV?$argument_list@D@?A0xca0879c4@@@Z 0000000180022ff8 f   libucrt:argv_wildcards.obj
 0001:000222ac       ??R<lambda_ad1ced32f4ac17aa236e5ef05d6b3b7c>@@QEBAXXZ 00000001800232ac f   libucrt:mbctype.obj
 0001:000224c4       ?getSystemCP@@YAHH@Z       00000001800234c4 f   libucrt:mbctype.obj
 0001:00022544       ?setSBCS@@YAXPEAU__crt_multibyte_data@@@Z 0000000180023544 f   libucrt:mbctype.obj
 0001:000225d4       ?setSBUpLow@@YAXPEAU__crt_multibyte_data@@@Z 00000001800235d4 f   libucrt:mbctype.obj
 0001:000227b8       ?setmbcp_internal@@YAHH_N@Z 00000001800237b8 f   libucrt:mbctype.obj
 0001:00022d00       ?x_ismbbtype_l@@YAHPEAU__crt_locale_pointers@@IHH@Z 0000000180023d00 f   libucrt:ismbbyte.obj
 0001:000233ac       ?write_double_translated_ansi_nolock@@YA?AUwrite_result@?A0x9c548279@@HQEBDI@Z 00000001800243ac f   libucrt:write.obj
 0001:000235b4       ?write_text_ansi_nolock@@YA?AUwrite_result@?A0x9c548279@@HQEBDI@Z 00000001800245b4 f   libucrt:write.obj
 0001:000236bc       ?write_text_utf16le_nolock@@YA?AUwrite_result@?A0x9c548279@@HQEBDI@Z 00000001800246bc f   libucrt:write.obj
 0001:000237d8       ?write_text_utf8_nolock@@YA?AUwrite_result@?A0x9c548279@@HQEBDI@Z 00000001800247d8 f   libucrt:write.obj
 0001:00024584       ?GetTableIndexFromLocaleName@@YAHPEB_W@Z 0000000180025584 f   libucrt:lcidtoname_downlevel.obj
 0001:00024bcc       ?__acrt_LCMapStringA_stat@@YAHPEAU__crt_locale_pointers@@PEB_WKPEBDHPEADHHH@Z 0000000180025bcc f   libucrt:lcmapstringa.obj
 0001:000268bc       memcpy_s                   00000001800278bc f   libucrt:cfout.obj
 0001:00026944       ??$write_buffer_nolock@D@@YA_NDV__crt_stdio_stream@@@Z 0000000180027944 f   libucrt:_flsbuf.obj
 0001:00026a48       ??$write_buffer_nolock@_W@@YA_N_WV__crt_stdio_stream@@@Z 0000000180027a48 f   libucrt:_flsbuf.obj
 0001:00026f00       ?free_crt_array_internal@@YAXQEAPEBX_K@Z 0000000180027f00 f   libucrt:inittime.obj
 0001:00027220       $$000000                   0000000180028220     libucrt:strncmp.obj
 0001:00027424       ??$common_sopen_dispatch@D@@YAHQEBDHHHQEAHH@Z 0000000180028424 f   libucrt:open.obj
 0001:00027504       ?configure_text_mode@@YAHHUfile_options@?A0x656cf9f4@@HAEAW4__crt_lowio_text_mode@@@Z 0000000180028504 f   libucrt:open.obj
 0001:00027798       ?decode_options@@YA?AUfile_options@?A0x656cf9f4@@HHH@Z 0000000180028798 f   libucrt:open.obj
 0001:000279a4       ?truncate_ctrl_z_if_present@@YAHH@Z 00000001800289a4 f   libucrt:open.obj
 0001:00027f80       ?shortsort@@YAXPEAD0_KP6AHPEBX2@Z@Z 0000000180028f80 f   libucrt:qsort.obj
 0001:00028598       ?initialize_multibyte@@YAHXZ 0000000180029598 f   libucrt:multibyte_initializer.obj
 0001:00028650       $$000000                   0000000180029650     libucrt:fpsr.obj
 0001:00028850       $$000000                   0000000180029850     libucrt:log10.obj
 0001:0002930c       common_control87           000000018002a30c f   libucrt:ieee.obj
 0001:00029640       _log_special_common        000000018002a640 f   libucrt:log_special.obj
 0001:00029ef0       $$000000                   000000018002aef0     LIBCMT:_chkstk_.obj
 0001:0002a0a0       $$000000                   000000018002b0a0     libvcruntime:memcmp.obj
 0001:0002aad0       $$000000                   000000018002bad0     libucrt:strcmp.obj
 0001:0002ab50       $$000000                   000000018002bb50     libucrt:tan.obj
 0001:0002b110       _tan_piby4                 000000018002c110 f   libucrt:tan.obj
 0001:0002b2e8       _sincos_special            000000018002c2e8 f   libucrt:sincos_special.obj
 0001:0002b3a0       $$000000                   000000018002c3a0     libucrt:remainder_piby2_forfma3.obj
 0001:0002b610       $$000000                   000000018002c610     libucrt:remainder_piby2_forasm.obj
 0001:0002b960       $$000000                   000000018002c960     LIBCMT:_guard_dispatch_.obj
 0001:0002b980       $$000000                   000000018002c980     libvcruntime:_longjmp_.obj
 0001:0002ba80       $$000000                   000000018002ca80     libvcruntime:_setjmp_.obj
 0001:0002bb40       ?dtor$0@?0??convert@?$ToFactory@VInt32@v8@@@imp@Nan@@SA?AV?$MaybeLocal@VInt32@v8@@@v8@@V?$Local@VValue@v8@@@5@@Z@4HA 000000018002cb40 f   CanvasRenderingContext2d.obj
 0001:0002bb40       ?dtor$0@?0??convert@?$ToFactory@VUint32@v8@@@imp@Nan@@SA?AV?$MaybeLocal@VUint32@v8@@@v8@@V?$Local@VValue@v8@@@5@@Z@4HA 000000018002cb40 f   Canvas.obj
 0001:0002bb40       ?dtor$0@?0??GetFunction@Nan@@YA?AV?$MaybeLocal@VFunction@v8@@@v8@@V?$Local@VFunctionTemplate@v8@@@3@@Z@4HA 000000018002cb40 f   CanvasRenderingContext2d.obj
 0001:0002bb40       ?dtor$0@?0??NewInstance@Nan@@YA?AV?$MaybeLocal@VObject@v8@@@v8@@V?$Local@VObjectTemplate@v8@@@3@@Z@4HA 000000018002cb40 f   Canvas.obj
 0001:0002bb50       ?dtor$0@?0??Set@Nan@@YA?AV?$Maybe@_N@v8@@V?$Local@VObject@v8@@@3@V?$Local@VValue@v8@@@3@1@Z@4HA 000000018002cb50 f   Canvas.obj
 0001:0002bb60       ?dtor$0@?0??NewInstance@Nan@@YA?AV?$MaybeLocal@VObject@v8@@@v8@@V?$Local@VFunction@v8@@@3@HQEAV?$Local@VValue@v8@@@3@@Z@4HA 000000018002cb60 f   CanvasRenderingContext2d.obj
 0001:0002bb60       ?dtor$0@?0??Call@Nan@@YA?AV?$MaybeLocal@VValue@v8@@@v8@@V?$Local@VFunction@v8@@@3@V?$Local@VObject@v8@@@3@HQEAV?$Local@VValue@v8@@@3@@Z@4HA 000000018002cb60 f   Canvas.obj
 0001:0002bb70       ?dtor$0@?0??Call@Callback@Nan@@QEBA?AV?$Local@VValue@v8@@@v8@@HQEAV34@@Z@4HA 000000018002cb70 f   Canvas.obj
 0001:0002bb70       ?dtor$0@?0??New@?$Factory@VFunctionTemplate@v8@@@imp@Nan@@SA?AV?$Local@VFunctionTemplate@v8@@@v8@@P6AXAEBV?$FunctionCallbackInfo@VValue@v8@@@3@@ZV?$Local@VValue@v8@@@5@V?$Local@VSignature@v8@@@5@@Z@4HA 000000018002cb70 f   Canvas.obj
 0001:0002bb80       ?dtor$0@?0??Call_@Callback@Nan@@AEBA?AV?$Local@VValue@v8@@@v8@@PEAVIsolate@4@V?$Local@VObject@v8@@@4@HQEAV34@@Z@4HA 000000018002cb80 f   Canvas.obj
 0001:0002bb80       ?dtor$0@?0??ThrowError@Nan@@YAXPEBD@Z@4HA 000000018002cb80 f   CanvasPattern.obj
 0001:0002bb80       ?dtor$0@?0???0?$TypedArrayContents@E@Nan@@QEAA@V?$Local@VValue@v8@@@v8@@@Z@4HA 000000018002cb80 f   CanvasRenderingContext2d.obj
 0001:0002bb80       ?dtor$0@?0??ThrowRangeError@Nan@@YAXPEBD@Z@4HA 000000018002cb80 f   Canvas.obj
 0001:0002bb80       ?dtor$0@?0??ThrowTypeError@Nan@@YAXPEBD@Z@4HA 000000018002cb80 f   Canvas.obj
 0001:0002bb80       ?dtor$0@?0??resurface@Canvas@@QEAAXV?$Local@VObject@v8@@@v8@@@Z@4HA 000000018002cb80 f   Canvas.obj
 0001:0002bb90       ?dtor$0@?0??Initialize@Gradient@@SAXV?$Local@VObject@v8@@@v8@@@Z@4HA 000000018002cb90 f   CanvasGradient.obj
 0001:0002bb90       ?dtor$0@?0??SetPrototypeMethod@Nan@@YAXV?$Local@VFunctionTemplate@v8@@@v8@@PEBDP6AXAEBV?$FunctionCallbackInfo@VValue@v8@@@1@@Z@Z@4HA 000000018002cb90 f   Canvas.obj
 0001:0002bb90       ?dtor$0@?0??Initialize@Pattern@@SAXV?$Local@VObject@v8@@@v8@@@Z@4HA 000000018002cb90 f   CanvasPattern.obj
 0001:0002bba0       ?dtor$0@?0??SetAccessor@Nan@@YAXV?$Local@VObjectTemplate@v8@@@v8@@V?$Local@VString@v8@@@3@P6AX1AEBV?$PropertyCallbackInfo@VValue@v8@@@1@@ZP6AX1V?$Local@VValue@v8@@@3@AEBV?$PropertyCallbackInfo@X@1@@Z4W4AccessControl@3@W4PropertyAttribute@3@V?$Local@VAccessorSignature@v8@@@3@@Z@4HA 000000018002cba0 f   Canvas.obj
 0001:0002bbb0       ?dtor$0@?0??Initialize@Context2d@@SAXV?$Local@VObject@v8@@@v8@@@Z@4HA 000000018002cbb0 f   CanvasRenderingContext2d.obj
 0001:0002bbb0       ?dtor$0@?0??Initialize@ImageData@@SAXV?$Local@VObject@v8@@@v8@@@Z@4HA 000000018002cbb0 f   ImageData.obj
 0001:0002bbb0       ?dtor$0@?0??Initialize@Canvas@@SAXV?$Local@VObject@v8@@@v8@@@Z@4HA 000000018002cbb0 f   Canvas.obj
 0001:0002bbbc       ?dtor$2@?0??Initialize@Context2d@@SAXV?$Local@VObject@v8@@@v8@@@Z@4HA 000000018002cbbc f   CanvasRenderingContext2d.obj
 0001:0002bbbc       ?dtor$2@?0??Initialize@Canvas@@SAXV?$Local@VObject@v8@@@v8@@@Z@4HA 000000018002cbbc f   Canvas.obj
 0001:0002bbbc       ?dtor$2@?0??Initialize@ImageData@@SAXV?$Local@VObject@v8@@@v8@@@Z@4HA 000000018002cbbc f   ImageData.obj
 0001:0002bbc8       ?dtor$6@?0??Initialize@Context2d@@SAXV?$Local@VObject@v8@@@v8@@@Z@4HA 000000018002cbc8 f   CanvasRenderingContext2d.obj
 0001:0002bbc8       ?dtor$6@?0??Initialize@ImageData@@SAXV?$Local@VObject@v8@@@v8@@@Z@4HA 000000018002cbc8 f   ImageData.obj
 0001:0002bbc8       ?dtor$6@?0??Initialize@Canvas@@SAXV?$Local@VObject@v8@@@v8@@@Z@4HA 000000018002cbc8 f   Canvas.obj
 0001:0002bbe0       ?dtor$0@?0??New@Canvas@@SAXAEBV?$FunctionCallbackInfo@VValue@v8@@@Nan@@@Z@4HA 000000018002cbe0 f   Canvas.obj
 0001:0002bbee       ?dtor$2@?0??New@Canvas@@SAXAEBV?$FunctionCallbackInfo@VValue@v8@@@Nan@@@Z@4HA 000000018002cbee f   Canvas.obj
 0001:0002bc10       ?dtor$0@?0??ToBufferAsyncAfter@Canvas@@SAXPEAUuv_work_s@@@Z@4HA 000000018002cc10 f   Canvas.obj
 0001:0002bc20       ?dtor$0@?0??ToBuffer@Canvas@@SAXAEBV?$FunctionCallbackInfo@VValue@v8@@@Nan@@@Z@4HA 000000018002cc20 f   Canvas.obj
 0001:0002bc40       ?dtor$1@?0??ToBuffer@Canvas@@SAXAEBV?$FunctionCallbackInfo@VValue@v8@@@Nan@@@Z@4HA 000000018002cc40 f   Canvas.obj
 0001:0002bc50       ?dtor$1@?0??SetSource@Image@@SAXV?$Local@VString@v8@@@v8@@V?$Local@VValue@v8@@@3@AEBV?$PropertyCallbackInfo@X@Nan@@@Z@4HA 000000018002cc50 f   Image.obj
 0001:0002bc50       ?dtor$0@?0??streamPNG@@YA?AW4_cairo_status@@PEAXPEBEI@Z@4HA 000000018002cc50 f   Canvas.obj
 0001:0002bc50       ?dtor$0@?0??streamPDF@@YA?AW4_cairo_status@@PEAXPEBEI@Z@4HA 000000018002cc50 f   Canvas.obj
 0001:0002bc60       ?dtor$0@?0??StreamPNGSync@Canvas@@SAXAEBV?$FunctionCallbackInfo@VValue@v8@@@Nan@@@Z@4HA 000000018002cc60 f   Canvas.obj
 0001:0002bc70       ?dtor$0@?0??StreamPDFSync@Canvas@@SAXAEBV?$FunctionCallbackInfo@VValue@v8@@@Nan@@@Z@4HA 000000018002cc70 f   Canvas.obj
 0001:0002bc80       ?dtor$0@?0???0Canvas@@QEAA@HHW4canvas_type_t@@@Z@4HA 000000018002cc80 f   Canvas.obj
 0001:0002bc90       ?dtor$0@?0??New@Gradient@@SAXAEBV?$FunctionCallbackInfo@VValue@v8@@@Nan@@@Z@4HA 000000018002cc90 f   CanvasGradient.obj
 0001:0002bcb0       ?dtor$1@?0??New@Gradient@@SAXAEBV?$FunctionCallbackInfo@VValue@v8@@@Nan@@@Z@4HA 000000018002ccb0 f   CanvasGradient.obj
 0001:0002bcd0       ?dtor$0@?0??AddColorStop@Gradient@@SAXAEBV?$FunctionCallbackInfo@VValue@v8@@@Nan@@@Z@4HA 000000018002ccd0 f   CanvasGradient.obj
 0001:0002bce0       ?dtor$0@?0??SetShadowColor@Context2d@@SAXV?$Local@VString@v8@@@v8@@V?$Local@VValue@v8@@@3@AEBV?$PropertyCallbackInfo@X@Nan@@@Z@4HA 000000018002cce0 f   CanvasRenderingContext2d.obj
 0001:0002bce0       ?dtor$0@?0??SetFilter@Context2d@@SAXV?$Local@VString@v8@@@v8@@V?$Local@VValue@v8@@@3@AEBV?$PropertyCallbackInfo@X@Nan@@@Z@4HA 000000018002cce0 f   CanvasRenderingContext2d.obj
 0001:0002bce0       ?dtor$0@?0??SetFillColor@Context2d@@SAXAEBV?$FunctionCallbackInfo@VValue@v8@@@Nan@@@Z@4HA 000000018002cce0 f   CanvasRenderingContext2d.obj
 0001:0002bce0       ?dtor$0@?0??SetStrokeColor@Context2d@@SAXAEBV?$FunctionCallbackInfo@VValue@v8@@@Nan@@@Z@4HA 000000018002cce0 f   CanvasRenderingContext2d.obj
 0001:0002bce0       ?dtor$0@?0??FillText@Context2d@@SAXAEBV?$FunctionCallbackInfo@VValue@v8@@@Nan@@@Z@4HA 000000018002cce0 f   CanvasRenderingContext2d.obj
 0001:0002bce0       ?dtor$0@?0??StrokeText@Context2d@@SAXAEBV?$FunctionCallbackInfo@VValue@v8@@@Nan@@@Z@4HA 000000018002cce0 f   CanvasRenderingContext2d.obj
 0001:0002bce0       ?dtor$0@?0??SetAntiAlias@Context2d@@SAXV?$Local@VString@v8@@@v8@@V?$Local@VValue@v8@@@3@AEBV?$PropertyCallbackInfo@X@Nan@@@Z@4HA 000000018002cce0 f   CanvasRenderingContext2d.obj
 0001:0002bce0       ?dtor$0@?0??SetTextDrawingMode@Context2d@@SAXV?$Local@VString@v8@@@v8@@V?$Local@VValue@v8@@@3@AEBV?$PropertyCallbackInfo@X@Nan@@@Z@4HA 000000018002cce0 f   CanvasRenderingContext2d.obj
 0001:0002bcf0       ?dtor$0@?0??SetFont@Context2d@@SAXAEBV?$FunctionCallbackInfo@VValue@v8@@@Nan@@@Z@4HA 000000018002ccf0 f   CanvasRenderingContext2d.obj
 0001:0002bcfe       ?dtor$1@?0??SetFont@Context2d@@SAXAEBV?$FunctionCallbackInfo@VValue@v8@@@Nan@@@Z@4HA 000000018002ccfe f   CanvasRenderingContext2d.obj
 0001:0002bd0c       ?dtor$2@?0??SetFont@Context2d@@SAXAEBV?$FunctionCallbackInfo@VValue@v8@@@Nan@@@Z@4HA 000000018002cd0c f   CanvasRenderingContext2d.obj
 0001:0002bd1a       ?dtor$3@?0??SetFont@Context2d@@SAXAEBV?$FunctionCallbackInfo@VValue@v8@@@Nan@@@Z@4HA 000000018002cd1a f   CanvasRenderingContext2d.obj
 0001:0002bd30       ?dtor$0@?0??MeasureText@Context2d@@SAXAEBV?$FunctionCallbackInfo@VValue@v8@@@Nan@@@Z@4HA 000000018002cd30 f   CanvasRenderingContext2d.obj
 0001:0002bd40       ?dtor$0@?0??GetLineDash@Context2d@@SAXAEBV?$FunctionCallbackInfo@VValue@v8@@@Nan@@@Z@4HA 000000018002cd40 f   CanvasRenderingContext2d.obj
 0001:0002bd40       ?dtor$0@?0??SetLineDash@Context2d@@SAXAEBV?$FunctionCallbackInfo@VValue@v8@@@Nan@@@Z@4HA 000000018002cd40 f   CanvasRenderingContext2d.obj
 0001:0002bd50       ?dtor$0@?0??Initialize@Image@@SAXV?$Local@VObject@v8@@@v8@@@Z@4HA 000000018002cd50 f   Image.obj
 0001:0002bd5c       ?dtor$2@?0??Initialize@Image@@SAXV?$Local@VObject@v8@@@v8@@@Z@4HA 000000018002cd5c f   Image.obj
 0001:0002bd68       ?dtor$6@?0??Initialize@Image@@SAXV?$Local@VObject@v8@@@v8@@@Z@4HA 000000018002cd68 f   Image.obj
 0001:0002bd74       ?dtor$10@?0??Initialize@Image@@SAXV?$Local@VObject@v8@@@v8@@@Z@4HA 000000018002cd74 f   Image.obj
 0001:0002bd80       ?dtor$0@?0??SetOnload@Image@@SAXV?$Local@VString@v8@@@v8@@V?$Local@VValue@v8@@@3@AEBV?$PropertyCallbackInfo@X@Nan@@@Z@4HA 000000018002cd80 f   Image.obj
 0001:0002bd80       ?dtor$0@?0??SetOnerror@Image@@SAXV?$Local@VString@v8@@@v8@@V?$Local@VValue@v8@@@3@AEBV?$PropertyCallbackInfo@X@Nan@@@Z@4HA 000000018002cd80 f   Image.obj
 0001:0002bda0       ?dtor$0@?0??loaded@Image@@QEAAXXZ@4HA 000000018002cda0 f   Image.obj
 0001:0002bdac       __scrt_is_nonwritable_in_current_image$filt$0 000000018002cdac f   LIBCMT:utility.obj
 0001:0002bdc4       ?fin$0@?0??dllmain_crt_process_attach@@YAHQEAUHINSTANCE__@@QEAX@Z@4HA 000000018002cdc4 f   LIBCMT:dll_dllmain.obj
 0001:0002bddb       ?fin$0@?0??dllmain_crt_process_detach@@YAH_N@Z@4HA 000000018002cddb f   LIBCMT:dll_dllmain.obj
 0001:0002bdf7       ?filt$0@?0??dllmain_dispatch@@YAHQEAUHINSTANCE__@@KQEAX@Z@4HA 000000018002cdf7 f   LIBCMT:dll_dllmain.obj
 0001:0002be2d       __CxxCallCatchBlock$filt$0 000000018002ce2d f   libvcruntime:frame.obj
 0001:0002be52       __CxxCallCatchBlock$fin$1  000000018002ce52 f   libvcruntime:frame.obj
 0001:0002beca       __DestructExceptionObject$filt$0 000000018002ceca f   libvcruntime:frame.obj
 0001:0002bee2       __FrameUnwindToState$filt$0 000000018002cee2 f   libvcruntime:frame.obj
 0001:0002bef8       __FrameUnwindToState$fin$1 000000018002cef8 f   libvcruntime:frame.obj
 0001:0002bf1b       _CallSETranslator$filt$0   000000018002cf1b f   libvcruntime:trnsctrl.obj
 0001:0002bf67       ?fin$0@?0???$?RV<lambda_7b91131dde12e1c3dfc74ff76b3f2eac>@@AEAV<lambda_dd75445284c072d0bd3768540cc698fa>@@V<lambda_16bc4ecb55b4718497c16bceaea2ceaf>@@@?$__crt_seh_guarded_call@H@@QEAAH$$QEAV<lambda_7b91131dde12e1c3dfc74ff76b3f2eac>@@AEAV<lambda_dd75445284c072d0bd3768540cc698fa>@@$$QEAV<lambda_16bc4ecb55b4718497c16bceaea2ceaf>@@@Z@4HA 000000018002cf67 f   libucrt:output.obj
 0001:0002bf67       ?fin$0@?0???$?RV<lambda_7a5ef57ff966f610505f1d28a3d40618>@@AEAV<lambda_b721fa326cdb32351d23dfa67958c160>@@V<lambda_5e0fb27672408a07956fe59e48ccb2aa>@@@?$__crt_seh_guarded_call@H@@QEAAH$$QEAV<lambda_7a5ef57ff966f610505f1d28a3d40618>@@AEAV<lambda_b721fa326cdb32351d23dfa67958c160>@@$$QEAV<lambda_5e0fb27672408a07956fe59e48ccb2aa>@@@Z@4HA 000000018002cf67 f   libucrt:setvbuf.obj
 0001:0002bf82       ?fin$0@?0???$common_fsopen@D@@YAPEAU_iobuf@@QEBD0H@Z@4HA 000000018002cf82 f   libucrt:fopen.obj
 0001:0002bfad       ?fin$0@?0??common_fseek@@YAHV__crt_stdio_stream@@_JH@Z@4HA 000000018002cfad f   libucrt:fseek.obj
 0001:0002bfc7       fread_s$fin$0              000000018002cfc7 f   libucrt:fread.obj
 0001:0002bfdf       _query_new_handler$fin$0   000000018002cfdf f   libucrt:new_handler.obj
 0001:0002bff5       ?filt$0@?0??common_exit@@YAXHW4_crt_exit_cleanup_mode@@W4_crt_exit_return_mode@@@Z@4HA 000000018002cff5 f   libucrt:exit.obj
 0001:0002c010       ?fin$1@?0??common_exit@@YAXHW4_crt_exit_cleanup_mode@@W4_crt_exit_return_mode@@@Z@4HA 000000018002d010 f   libucrt:exit.obj
 0001:0002c029       ?fin$0@?0???$?RV<lambda_e24bbb7b643b32fcea6fa61b31d4c984>@@AEAV<lambda_275893d493268fdec8709772e3fcec0e>@@V<lambda_9d71df4d7cf3f480f8d633942495c3b0>@@@?$__crt_seh_guarded_call@H@@QEAAH$$QEAV<lambda_e24bbb7b643b32fcea6fa61b31d4c984>@@AEAV<lambda_275893d493268fdec8709772e3fcec0e>@@$$QEAV<lambda_9d71df4d7cf3f480f8d633942495c3b0>@@@Z@4HA 000000018002d029 f   libucrt:onexit.obj
 0001:0002c046       common_flush_all$fin$0     000000018002d046 f   libucrt:fflush.obj
 0001:0002c060       common_flush_all$fin$1     000000018002d060 f   libucrt:fflush.obj
 0001:0002c079       fclose$fin$0               000000018002d079 f   libucrt:fclose.obj
 0001:0002c079       fflush$fin$0               000000018002d079 f   libucrt:fflush.obj
 0001:0002c091       raise$fin$0                000000018002d091 f   libucrt:signal.obj
 0001:0002c0b5       ?fin$0@?0???$?RV<lambda_c36588078e9f5dfd39652860aa6b3aaf>@@AEAV<lambda_ec61778202f4f5fc7e7711acc23c3bca>@@V<lambda_dc9d2797ccde5d239b4a0efae8ebd7db>@@@?$__crt_seh_guarded_call@P6AXH@Z@@QEAAP6AXH@Z$$QEAV<lambda_c36588078e9f5dfd39652860aa6b3aaf>@@AEAV<lambda_ec61778202f4f5fc7e7711acc23c3bca>@@$$QEAV<lambda_dc9d2797ccde5d239b4a0efae8ebd7db>@@@Z@4HA 000000018002d0b5 f   libucrt:signal.obj
 0001:0002c0b5       ?fin$0@?0???$?RV<lambda_72d1df2b273a38828b1ce30cbf4cdab5>@@AEAV<lambda_876a65b173b8412d3a47c70a915b0cf4>@@V<lambda_41932305e351933ebe8f8be3ed8bb5dc>@@@?$__crt_seh_guarded_call@X@@QEAAX$$QEAV<lambda_72d1df2b273a38828b1ce30cbf4cdab5>@@AEAV<lambda_876a65b173b8412d3a47c70a915b0cf4>@@$$QEAV<lambda_41932305e351933ebe8f8be3ed8bb5dc>@@@Z@4HA 000000018002d0b5 f   libucrt:per_thread_data.obj
 0001:0002c0b5       ?fin$0@?0???$?RV<lambda_5e887d1dcbef67a5eb4283622ba103bf>@@AEAV<lambda_4466841279450cc726390878d4a41900>@@V<lambda_341c25c0346d94847f1f3c463c57e077>@@@?$__crt_seh_guarded_call@X@@QEAAX$$QEAV<lambda_5e887d1dcbef67a5eb4283622ba103bf>@@AEAV<lambda_4466841279450cc726390878d4a41900>@@$$QEAV<lambda_341c25c0346d94847f1f3c463c57e077>@@@Z@4HA 000000018002d0b5 f   libucrt:per_thread_data.obj
 0001:0002c0b5       ?fin$0@?0???$?RV<lambda_b8c45f8f788dd370798f47cfe8ac3a86>@@AEAV<lambda_4e60a939b0d047cfe11ddc22648dfba9>@@V<lambda_332c3edc96d0294ec56c57d38c1cdfd5>@@@?$__crt_seh_guarded_call@H@@QEAAH$$QEAV<lambda_b8c45f8f788dd370798f47cfe8ac3a86>@@AEAV<lambda_4e60a939b0d047cfe11ddc22648dfba9>@@$$QEAV<lambda_332c3edc96d0294ec56c57d38c1cdfd5>@@@Z@4HA 000000018002d0b5 f   libucrt:onexit.obj
 0001:0002c0b5       ?fin$0@?0???$?RV<lambda_fb3a7dec4e47f37f22dae91bb15c9095>@@AEAV<lambda_698284760c8add0bfb0756c19673e34b>@@V<lambda_dfb8eca1e75fef3034a8fb18dd509707>@@@?$__crt_seh_guarded_call@X@@QEAAX$$QEAV<lambda_fb3a7dec4e47f37f22dae91bb15c9095>@@AEAV<lambda_698284760c8add0bfb0756c19673e34b>@@$$QEAV<lambda_dfb8eca1e75fef3034a8fb18dd509707>@@@Z@4HA 000000018002d0b5 f   libucrt:per_thread_data.obj
 0001:0002c0b5       ?fin$0@?0???$?RV<lambda_46352004c1216016012b18bd6f87e700>@@AEAV<lambda_3bd07e1a1191394380780325891bf33f>@@V<lambda_334532d3f185bcaa59b5be82d7d22bff>@@@?$__crt_seh_guarded_call@X@@QEAAX$$QEAV<lambda_46352004c1216016012b18bd6f87e700>@@AEAV<lambda_3bd07e1a1191394380780325891bf33f>@@$$QEAV<lambda_334532d3f185bcaa59b5be82d7d22bff>@@@Z@4HA 000000018002d0b5 f   libucrt:per_thread_data.obj
 0001:0002c0b5       ?fin$0@?0???$?RV<lambda_99476a1ad63dd22509b5d3e65b0ffc95>@@AEAV<lambda_ad1ced32f4ac17aa236e5ef05d6b3b7c>@@V<lambda_f7424dd8d45958661754dc4f2697e9c3>@@@?$__crt_seh_guarded_call@X@@QEAAX$$QEAV<lambda_99476a1ad63dd22509b5d3e65b0ffc95>@@AEAV<lambda_ad1ced32f4ac17aa236e5ef05d6b3b7c>@@$$QEAV<lambda_f7424dd8d45958661754dc4f2697e9c3>@@@Z@4HA 000000018002d0b5 f   libucrt:mbctype.obj
 0001:0002c0cf       _alloc_osfhnd$fin$0        000000018002d0cf f   libucrt:osfinfo.obj
 0001:0002c0cf       __acrt_lowio_ensure_fh_exists$fin$0 000000018002d0cf f   libucrt:osfinfo.obj
 0001:0002c0cf       __acrt_initialize_lowio$fin$0 000000018002d0cf f   libucrt:ioinit.obj
 0001:0002c0e8       ?fin$0@?0??__acrt_stdio_allocate_stream@@YA?AV__crt_stdio_stream@@XZ@4HA 000000018002d0e8 f   libucrt:stream.obj
 0001:0002c0e8       _fcloseall$fin$0           000000018002d0e8 f   libucrt:closeall.obj
 0001:0002c101       ?fin$0@?0???$?RV<lambda_bfedae4ebbf01fab1bb6dcc6a9e276e0>@@AEAV<lambda_2fe9b910cf3cbf4a0ab98a02ba45b3ec>@@V<lambda_237c231691f317818eb88cc1d5d642d6>@@@?$__crt_seh_guarded_call@H@@QEAAH$$QEAV<lambda_bfedae4ebbf01fab1bb6dcc6a9e276e0>@@AEAV<lambda_2fe9b910cf3cbf4a0ab98a02ba45b3ec>@@$$QEAV<lambda_237c231691f317818eb88cc1d5d642d6>@@@Z@4HA 000000018002d101 f   libucrt:close.obj
 0001:0002c101       ?fin$0@?0???$?RV<lambda_b521505b218e5242e90febf6bfebc422>@@AEAV<lambda_6978c1fb23f02e42e1d9e99668cc68aa>@@V<lambda_314360699dd331753a4119843814e9a7>@@@?$__crt_seh_guarded_call@H@@QEAAH$$QEAV<lambda_b521505b218e5242e90febf6bfebc422>@@AEAV<lambda_6978c1fb23f02e42e1d9e99668cc68aa>@@$$QEAV<lambda_314360699dd331753a4119843814e9a7>@@@Z@4HA 000000018002d101 f   libucrt:commit.obj
 0001:0002c11b       __acrt_update_thread_multibyte_data$fin$0 000000018002d11b f   libucrt:mbctype.obj
 0001:0002c134       ?fin$0@?0???$common_lseek@_J@@YA_JH_JH@Z@4HA 000000018002d134 f   libucrt:lseek.obj
 0001:0002c134       _read$fin$0                000000018002d134 f   libucrt:read.obj
 0001:0002c134       _write$fin$0               000000018002d134 f   libucrt:write.obj
 0001:0002c14b       __acrt_uninitialize_locale$fin$0 000000018002d14b f   libucrt:wsetlocale.obj
 0001:0002c14b       __acrt_update_thread_locale_data$fin$0 000000018002d14b f   libucrt:locale_refcounting.obj
 0001:0002c164       ?fin$0@?0???$common_sopen_dispatch@D@@YAHQEBDHHHQEAHH@Z@4HA 000000018002d164 f   libucrt:open.obj
 0001:0002c1b7       common_control87$filt$0    000000018002d1b7 f   libucrt:ieee.obj
 0001:0002c1b7       _ctrlfp$filt$0             000000018002d1b7 f   libucrt:fpctrl.obj
 0001:0002c1f0       _IsNonwritableInCurrentImage$filt$0 000000018002d1f0 f   LIBCMT:pesect.obj
 0001:0002c210       ??__F?constructor@Canvas@@2V?$Persistent@VFunctionTemplate@v8@@V?$NonCopyablePersistentTraits@VFunctionTemplate@v8@@@2@@Nan@@A@@YAXXZ 000000018002d210 f   Canvas.obj
 0001:0002c230       ??__F?constructor@Gradient@@2V?$Persistent@VFunctionTemplate@v8@@V?$NonCopyablePersistentTraits@VFunctionTemplate@v8@@@2@@Nan@@A@@YAXXZ 000000018002d230 f   CanvasGradient.obj
 0001:0002c250       ??__F?constructor@Pattern@@2V?$Persistent@VFunctionTemplate@v8@@V?$NonCopyablePersistentTraits@VFunctionTemplate@v8@@@2@@Nan@@A@@YAXXZ 000000018002d250 f   CanvasPattern.obj
 0001:0002c270       ??__F?constructor@Context2d@@2V?$Persistent@VFunctionTemplate@v8@@V?$NonCopyablePersistentTraits@VFunctionTemplate@v8@@@2@@Nan@@A@@YAXXZ 000000018002d270 f   CanvasRenderingContext2d.obj
 0001:0002c290       ??__F?constructor@Image@@2V?$Persistent@VFunctionTemplate@v8@@V?$NonCopyablePersistentTraits@VFunctionTemplate@v8@@@2@@Nan@@A@@YAXXZ 000000018002d290 f   Image.obj
 0001:0002c2b0       ??__F?constructor@ImageData@@2V?$Persistent@VFunctionTemplate@v8@@V?$NonCopyablePersistentTraits@VFunctionTemplate@v8@@@2@@Nan@@A@@YAXXZ 000000018002d2b0 f   ImageData.obj
 0002:00000628       ??constructor$initializer$@Canvas@@2P6AXXZEA@@3P6AXXZEA 000000018002e628     Canvas.obj
 0002:00000630       ??constructor$initializer$@Gradient@@2P6AXXZEA@@3P6AXXZEA 000000018002e630     CanvasGradient.obj
 0002:00000638       ??constructor$initializer$@Pattern@@2P6AXXZEA@@3P6AXXZEA 000000018002e638     CanvasPattern.obj
 0002:00000640       ??constructor$initializer$@Context2d@@2P6AXXZEA@@3P6AXXZEA 000000018002e640     CanvasRenderingContext2d.obj
 0002:00000648       ??constructor$initializer$@Image@@2P6AXXZEA@@3P6AXXZEA 000000018002e648     Image.obj
 0002:00000650       ??constructor$initializer$@ImageData@@2P6AXXZEA@@3P6AXXZEA 000000018002e650     ImageData.obj
 0002:00000780       GS_ExceptionPointers       000000018002e780     LIBCMT:gs_report.obj
 0002:000007f0       ?ExceptionTemplate@?1??_CxxThrowException@@9@4UEHExceptionRecord@@B 000000018002e7f0     libvcruntime:throw.obj
 0002:00000830       ?ExceptionTemplate@?1??_UnwindNestedFrames@@9@4U_EXCEPTION_RECORD@@B 000000018002e830     libvcruntime:trnsctrl.obj
 0002:000008c8       ?module_names@?A0x679b24ab@@3QBQEB_WB 000000018002e8c8     libvcruntime:winapi_downlevel.obj
 0002:00000998       ?candidate_modules@?1??try_get_FlsAlloc@@YAP6AKP6AXPEAX@Z@ZXZ@4QBW4module_id@?A0x679b24ab@@B 000000018002e998     libvcruntime:winapi_downlevel.obj
 0002:000009b0       ?candidate_modules@?1??try_get_FlsFree@@YAP6AHK@ZXZ@4QBW4module_id@?A0x679b24ab@@B 000000018002e9b0     libvcruntime:winapi_downlevel.obj
 0002:000009c0       ?candidate_modules@?1??try_get_FlsGetValue@@YAP6APEAXK@ZXZ@4QBW4module_id@?A0x679b24ab@@B 000000018002e9c0     libvcruntime:winapi_downlevel.obj
 0002:000009d8       ?candidate_modules@?1??try_get_FlsSetValue@@YAP6AHKPEAX@ZXZ@4QBW4module_id@?A0x679b24ab@@B 000000018002e9d8     libvcruntime:winapi_downlevel.obj
 0002:000009f0       ?candidate_modules@?1??try_get_InitializeCriticalSectionEx@@YAP6AHPEAU_RTL_CRITICAL_SECTION@@KK@ZXZ@4QBW4module_id@?A0x679b24ab@@B 000000018002e9f0     libvcruntime:winapi_downlevel.obj
 0002:00000a20       ?tokenTable@@3QBQEBDB      000000018002ea20     libvcruntime:undname.obj
 0002:00000a90       ?nameTable@@3QBQEBDB       000000018002ea90     libvcruntime:undname.obj
 0002:00000d18       ?rttiTable@@3QBQEBDB       000000018002ed18     libvcruntime:undname.obj
 0002:00001800       __acrt_initializers        000000018002f800     libucrt:initialization.obj
 0002:000018f0       errtable                   000000018002f8f0     libucrt:errno.obj
 0002:00001a60       module_names               000000018002fa60     libucrt:winapi_thunks.obj
 0002:00001f90       ?candidate_modules@?1??try_get_AreFileApisANSI@@YAP6AHXZXZ@4QBW4module_id@?A0x63058377@@B 000000018002ff90     libucrt:winapi_thunks.obj
 0002:00001fa8       ?candidate_modules@?1??try_get_FlsAlloc@@YAP6AKP6AXPEAX@Z@ZXZ@4QBW4module_id@?A0x63058377@@B 000000018002ffa8     libucrt:winapi_thunks.obj
 0002:00001fb0       ?candidate_modules@?1??try_get_FlsFree@@YAP6AHK@ZXZ@4QBW4module_id@?A0x63058377@@B 000000018002ffb0     libucrt:winapi_thunks.obj
 0002:00001fb8       ?candidate_modules@?1??try_get_FlsGetValue@@YAP6APEAXK@ZXZ@4QBW4module_id@?A0x63058377@@B 000000018002ffb8     libucrt:winapi_thunks.obj
 0002:00001fc0       ?candidate_modules@?1??try_get_FlsSetValue@@YAP6AHKPEAX@ZXZ@4QBW4module_id@?A0x63058377@@B 000000018002ffc0     libucrt:winapi_thunks.obj
 0002:00001fc8       ?candidate_modules@?1??try_get_GetActiveWindow@@YAP6APEAUHWND__@@XZXZ@4QBW4module_id@?A0x63058377@@B 000000018002ffc8     libucrt:winapi_thunks.obj
 0002:00001fe0       ?candidate_modules@?1??try_get_GetCurrentPackageId@@YAP6AJPEAIPEAE@ZXZ@4QBW4module_id@?A0x63058377@@B 000000018002ffe0     libucrt:winapi_thunks.obj
 0002:00002000       ?candidate_modules@?1??try_get_GetLastActivePopup@@YAP6APEAUHWND__@@PEAU2@@ZXZ@4QBW4module_id@?A0x63058377@@B 0000000180030000     libucrt:winapi_thunks.obj
 0002:00002020       ?candidate_modules@?1??try_get_GetProcessWindowStation@@YAP6APEAUHWINSTA__@@XZXZ@4QBW4module_id@?A0x63058377@@B 0000000180030020     libucrt:winapi_thunks.obj
 0002:00002040       ?candidate_modules@?1??try_get_GetUserObjectInformationW@@YAP6AHPEAXH0KPEAK@ZXZ@4QBW4module_id@?A0x63058377@@B 0000000180030040     libucrt:winapi_thunks.obj
 0002:00002068       ?candidate_modules@?1??try_get_InitializeCriticalSectionEx@@YAP6AHPEAU_RTL_CRITICAL_SECTION@@KK@ZXZ@4QBW4module_id@?A0x63058377@@B 0000000180030068     libucrt:winapi_thunks.obj
 0002:00002070       ?candidate_modules@?1??try_get_LCMapStringEx@@YAP6AHPEB_WK0HPEA_WHPEAU_nlsversioninfo@@PEAX_J@ZXZ@4QBW4module_id@?A0x63058377@@B 0000000180030070     libucrt:winapi_thunks.obj
 0002:00002088       ?candidate_modules@?1??try_get_LocaleNameToLCID@@YAP6AKPEB_WK@ZXZ@4QBW4module_id@?A0x63058377@@B 0000000180030088     libucrt:winapi_thunks.obj
 0002:000020a8       ?candidate_modules@?1??try_get_MessageBoxA@@YAP6AHPEAUHWND__@@PEBD1I@ZXZ@4QBW4module_id@?A0x63058377@@B 00000001800300a8     libucrt:winapi_thunks.obj
 0002:000020c0       ?candidate_modules@?1??try_get_MessageBoxW@@YAP6AHPEAUHWND__@@PEB_W1I@ZXZ@4QBW4module_id@?A0x63058377@@B 00000001800300c0     libucrt:winapi_thunks.obj
 0002:000027c8       _mb_locale_names           00000001800307c8     libucrt:mbctype.obj
 0002:00003050       LcidToLocaleNameTable      0000000180031050     libucrt:lcidtoname_downlevel.obj
 0002:00004ab0       LocaleNameToIndexTable     0000000180032ab0     libucrt:lcidtoname_downlevel.obj
 0002:00006d40       __real@433fffffffffffff    0000000180034d40     libucrt:fpsr.obj
 0002:00006d48       __real@c33fffffffffffff    0000000180034d48     libucrt:fpsr.obj
 0002:00006d50       __real_ninf                0000000180034d50     libucrt:log10.obj
 0002:00006d60       __real_inf                 0000000180034d60     libucrt:log10.obj
 0002:00006d70       __real_neg_qnan            0000000180034d70     libucrt:log10.obj
 0002:00006d80       __real_qnanbit             0000000180034d80     libucrt:log10.obj
 0002:00006d90       __int_1023                 0000000180034d90     libucrt:log10.obj
 0002:00006da0       __mask_001                 0000000180034da0     libucrt:log10.obj
 0002:00006db0       __mask_mant                0000000180034db0     libucrt:log10.obj
 0002:00006dc0       __mask_mant_top8           0000000180034dc0     libucrt:log10.obj
 0002:00006dd0       __mask_mant9               0000000180034dd0     libucrt:log10.obj
 0002:00006de0       __real_log10_e             0000000180034de0     libucrt:log10.obj
 0002:00006df0       __real_log10_e_lead        0000000180034df0     libucrt:log10.obj
 0002:00006e00       __real_log10_e_tail        0000000180034e00     libucrt:log10.obj
 0002:00006e10       __real_log10_2_lead        0000000180034e10     libucrt:log10.obj
 0002:00006e20       __real_log10_2_tail        0000000180034e20     libucrt:log10.obj
 0002:00006e30       __real_two                 0000000180034e30     libucrt:log10.obj
 0002:00006e40       __real_one                 0000000180034e40     libucrt:log10.obj
 0002:00006e50       __real_half                0000000180034e50     libucrt:log10.obj
 0002:00006e60       __mask_100                 0000000180034e60     libucrt:log10.obj
 0002:00006e70       __real_1_over_512          0000000180034e70     libucrt:log10.obj
 0002:00006e80       __real_1_over_2            0000000180034e80     libucrt:log10.obj
 0002:00006e90       __real_1_over_3            0000000180034e90     libucrt:log10.obj
 0002:00006ea0       __real_1_over_4            0000000180034ea0     libucrt:log10.obj
 0002:00006eb0       __real_1_over_5            0000000180034eb0     libucrt:log10.obj
 0002:00006ec0       __real_1_over_6            0000000180034ec0     libucrt:log10.obj
 0002:00006ed0       __real_neg_1023            0000000180034ed0     libucrt:log10.obj
 0002:00006ee0       __mask_2045                0000000180034ee0     libucrt:log10.obj
 0002:00006ef0       __real_threshold           0000000180034ef0     libucrt:log10.obj
 0002:00006f00       __real_near_one_lt         0000000180034f00     libucrt:log10.obj
 0002:00006f10       __real_near_one_gt         0000000180034f10     libucrt:log10.obj
 0002:00006f20       __real_min_norm            0000000180034f20     libucrt:log10.obj
 0002:00006f30       __real_notsign             0000000180034f30     libucrt:log10.obj
 0002:00006f40       __real_ca1                 0000000180034f40     libucrt:log10.obj
 0002:00006f50       __real_ca2                 0000000180034f50     libucrt:log10.obj
 0002:00006f60       __real_ca3                 0000000180034f60     libucrt:log10.obj
 0002:00006f70       __real_ca4                 0000000180034f70     libucrt:log10.obj
 0002:00006f80       __mask_lower               0000000180034f80     libucrt:log10.obj
 0002:00006f90       __flag_x_zero              0000000180034f90     libucrt:log10.obj
 0002:00006f94       __flag_x_neg               0000000180034f94     libucrt:log10.obj
 0002:00006f98       __flag_x_nan               0000000180034f98     libucrt:log10.obj
 0002:0000a040       ?named_colors@@3PAUnamed_color@@A 0000000180038040     color.obj
 0002:0000ac10       $cppxdata$?resurface@Canvas@@QEAAXV?$Local@VObject@v8@@@v8@@@Z 0000000180038c10     Canvas.obj
 0002:0000ac38       $cppxdata$??1Canvas@@EEAA@XZ 0000000180038c38     Canvas.obj
 0002:0000ac60       $cppxdata$??0Canvas@@QEAA@HHW4canvas_type_t@@@Z 0000000180038c60     Canvas.obj
 0002:0000ac88       $cppxdata$?StreamPDFSync@Canvas@@SAXAEBV?$FunctionCallbackInfo@VValue@v8@@@Nan@@@Z 0000000180038c88     Canvas.obj
 0002:0000acb0       $cppxdata$?streamPDF@@YA?AW4_cairo_status@@PEAXPEBEI@Z 0000000180038cb0     Canvas.obj
 0002:0000acd8       $cppxdata$?StreamPNGSync@Canvas@@SAXAEBV?$FunctionCallbackInfo@VValue@v8@@@Nan@@@Z 0000000180038cd8     Canvas.obj
 0002:0000ad00       $cppxdata$?streamPNG@@YA?AW4_cairo_status@@PEAXPEBEI@Z 0000000180038d00     Canvas.obj
 0002:0000ad28       $cppxdata$?ToBuffer@Canvas@@SAXAEBV?$FunctionCallbackInfo@VValue@v8@@@Nan@@@Z 0000000180038d28     Canvas.obj
 0002:0000ad50       $cppxdata$?ToBufferAsyncAfter@Canvas@@SAXPEAUuv_work_s@@@Z 0000000180038d50     Canvas.obj
 0002:0000ad78       $cppxdata$?New@Canvas@@SAXAEBV?$FunctionCallbackInfo@VValue@v8@@@Nan@@@Z 0000000180038d78     Canvas.obj
 0002:0000ada0       $cppxdata$?Initialize@Canvas@@SAXV?$Local@VObject@v8@@@v8@@@Z 0000000180038da0     Canvas.obj
 0002:0000adc8       $cppxdata$??__F?constructor@Canvas@@2V?$Persistent@VFunctionTemplate@v8@@V?$NonCopyablePersistentTraits@VFunctionTemplate@v8@@@2@@Nan@@A@@YAXXZ 0000000180038dc8     Canvas.obj
 0002:0000adf0       $cppxdata$??1ObjectWrap@Nan@@UEAA@XZ 0000000180038df0     Canvas.obj
 0002:0000ae18       $cppxdata$?SetAccessor@Nan@@YAXV?$Local@VObjectTemplate@v8@@@v8@@V?$Local@VString@v8@@@3@P6AX1AEBV?$PropertyCallbackInfo@VValue@v8@@@1@@ZP6AX1V?$Local@VValue@v8@@@3@AEBV?$PropertyCallbackInfo@X@1@@Z4W4AccessControl@3@W4PropertyAttribute@3@V?$Local@VAccessorSignature@v8@@@3@@Z 0000000180038e18     Canvas.obj
 0002:0000ae40       $cppxdata$?SetPrototypeMethod@Nan@@YAXV?$Local@VFunctionTemplate@v8@@@v8@@PEBDP6AXAEBV?$FunctionCallbackInfo@VValue@v8@@@1@@Z@Z 0000000180038e40     Canvas.obj
 0002:0000ae68       $cppxdata$??_GCallback@Nan@@QEAAPEAXI@Z 0000000180038e68     Canvas.obj
 0002:0000ae90       $cppxdata$?Call_@Callback@Nan@@AEBA?AV?$Local@VValue@v8@@@v8@@PEAVIsolate@4@V?$Local@VObject@v8@@@4@HQEAV34@@Z 0000000180038e90     Canvas.obj
 0002:0000aeb8       $cppxdata$?Call@Callback@Nan@@QEBA?AV?$Local@VValue@v8@@@v8@@HQEAV34@@Z 0000000180038eb8     Canvas.obj
 0002:0000aee0       $cppxdata$?ThrowTypeError@Nan@@YAXPEBD@Z 0000000180038ee0     Canvas.obj
 0002:0000af08       $cppxdata$?ThrowRangeError@Nan@@YAXPEBD@Z 0000000180038f08     Canvas.obj
 0002:0000af30       $cppxdata$?New@?$Factory@VFunctionTemplate@v8@@@imp@Nan@@SA?AV?$Local@VFunctionTemplate@v8@@@v8@@P6AXAEBV?$FunctionCallbackInfo@VValue@v8@@@3@@ZV?$Local@VValue@v8@@@5@V?$Local@VSignature@v8@@@5@@Z 0000000180038f30     Canvas.obj
 0002:0000af58       $cppxdata$?convert@?$ToFactory@VUint32@v8@@@imp@Nan@@SA?AV?$MaybeLocal@VUint32@v8@@@v8@@V?$Local@VValue@v8@@@5@@Z 0000000180038f58     Canvas.obj
 0002:0000af80       $cppxdata$?Call@Nan@@YA?AV?$MaybeLocal@VValue@v8@@@v8@@V?$Local@VFunction@v8@@@3@V?$Local@VObject@v8@@@3@HQEAV?$Local@VValue@v8@@@3@@Z 0000000180038f80     Canvas.obj
 0002:0000afa8       $cppxdata$?Set@Nan@@YA?AV?$Maybe@_N@v8@@V?$Local@VObject@v8@@@3@V?$Local@VValue@v8@@@3@1@Z 0000000180038fa8     Canvas.obj
 0002:0000afd0       $cppxdata$?NewInstance@Nan@@YA?AV?$MaybeLocal@VObject@v8@@@v8@@V?$Local@VObjectTemplate@v8@@@3@@Z 0000000180038fd0     Canvas.obj
 0002:0000b0c0       $cppxdata$?AddColorStop@Gradient@@SAXAEBV?$FunctionCallbackInfo@VValue@v8@@@Nan@@@Z 00000001800390c0     CanvasGradient.obj
 0002:0000b0e8       $cppxdata$?New@Gradient@@SAXAEBV?$FunctionCallbackInfo@VValue@v8@@@Nan@@@Z 00000001800390e8     CanvasGradient.obj
 0002:0000b110       $cppxdata$?Initialize@Gradient@@SAXV?$Local@VObject@v8@@@v8@@@Z 0000000180039110     CanvasGradient.obj
 0002:0000b138       $cppxdata$??__F?constructor@Gradient@@2V?$Persistent@VFunctionTemplate@v8@@V?$NonCopyablePersistentTraits@VFunctionTemplate@v8@@@2@@Nan@@A@@YAXXZ 0000000180039138     CanvasGradient.obj
 0002:0000b160       $cppxdata$?Initialize@Pattern@@SAXV?$Local@VObject@v8@@@v8@@@Z 0000000180039160     CanvasPattern.obj
 0002:0000b188       $cppxdata$??__F?constructor@Pattern@@2V?$Persistent@VFunctionTemplate@v8@@V?$NonCopyablePersistentTraits@VFunctionTemplate@v8@@@2@@Nan@@A@@YAXXZ 0000000180039188     CanvasPattern.obj
 0002:0000b1b0       $cppxdata$?ThrowError@Nan@@YAXPEBD@Z 00000001800391b0     CanvasPattern.obj
 0002:0000b1d8       $cppxdata$??0?$TypedArrayContents@E@Nan@@QEAA@V?$Local@VValue@v8@@@v8@@@Z 00000001800391d8     CanvasRenderingContext2d.obj
 0002:0000b200       $cppxdata$?GetLineDash@Context2d@@SAXAEBV?$FunctionCallbackInfo@VValue@v8@@@Nan@@@Z 0000000180039200     CanvasRenderingContext2d.obj
 0002:0000b228       $cppxdata$?SetLineDash@Context2d@@SAXAEBV?$FunctionCallbackInfo@VValue@v8@@@Nan@@@Z 0000000180039228     CanvasRenderingContext2d.obj
 0002:0000b250       $cppxdata$?MeasureText@Context2d@@SAXAEBV?$FunctionCallbackInfo@VValue@v8@@@Nan@@@Z 0000000180039250     CanvasRenderingContext2d.obj
 0002:0000b278       $cppxdata$?SetFont@Context2d@@SAXAEBV?$FunctionCallbackInfo@VValue@v8@@@Nan@@@Z 0000000180039278     CanvasRenderingContext2d.obj
 0002:0000b2a0       $cppxdata$?StrokeText@Context2d@@SAXAEBV?$FunctionCallbackInfo@VValue@v8@@@Nan@@@Z 00000001800392a0     CanvasRenderingContext2d.obj
 0002:0000b2c8       $cppxdata$?FillText@Context2d@@SAXAEBV?$FunctionCallbackInfo@VValue@v8@@@Nan@@@Z 00000001800392c8     CanvasRenderingContext2d.obj
 0002:0000b2f0       $cppxdata$?SetStrokeColor@Context2d@@SAXAEBV?$FunctionCallbackInfo@VValue@v8@@@Nan@@@Z 00000001800392f0     CanvasRenderingContext2d.obj
 0002:0000b318       $cppxdata$?SetFillColor@Context2d@@SAXAEBV?$FunctionCallbackInfo@VValue@v8@@@Nan@@@Z 0000000180039318     CanvasRenderingContext2d.obj
 0002:0000b340       $cppxdata$?SetShadowColor@Context2d@@SAXV?$Local@VString@v8@@@v8@@V?$Local@VValue@v8@@@3@AEBV?$PropertyCallbackInfo@X@Nan@@@Z 0000000180039340     CanvasRenderingContext2d.obj
 0002:0000b368       $cppxdata$?SetFilter@Context2d@@SAXV?$Local@VString@v8@@@v8@@V?$Local@VValue@v8@@@3@AEBV?$PropertyCallbackInfo@X@Nan@@@Z 0000000180039368     CanvasRenderingContext2d.obj
 0002:0000b390       $cppxdata$?SetTextDrawingMode@Context2d@@SAXV?$Local@VString@v8@@@v8@@V?$Local@VValue@v8@@@3@AEBV?$PropertyCallbackInfo@X@Nan@@@Z 0000000180039390     CanvasRenderingContext2d.obj
 0002:0000b3b8       $cppxdata$?SetAntiAlias@Context2d@@SAXV?$Local@VString@v8@@@v8@@V?$Local@VValue@v8@@@3@AEBV?$PropertyCallbackInfo@X@Nan@@@Z 00000001800393b8     CanvasRenderingContext2d.obj
 0002:0000b3e0       $cppxdata$?Initialize@Context2d@@SAXV?$Local@VObject@v8@@@v8@@@Z 00000001800393e0     CanvasRenderingContext2d.obj
 0002:0000b408       $cppxdata$??__F?constructor@Context2d@@2V?$Persistent@VFunctionTemplate@v8@@V?$NonCopyablePersistentTraits@VFunctionTemplate@v8@@@2@@Nan@@A@@YAXXZ 0000000180039408     CanvasRenderingContext2d.obj
 0002:0000b430       $cppxdata$?convert@?$ToFactory@VInt32@v8@@@imp@Nan@@SA?AV?$MaybeLocal@VInt32@v8@@@v8@@V?$Local@VValue@v8@@@5@@Z 0000000180039430     CanvasRenderingContext2d.obj
 0002:0000b458       $cppxdata$?GetFunction@Nan@@YA?AV?$MaybeLocal@VFunction@v8@@@v8@@V?$Local@VFunctionTemplate@v8@@@3@@Z 0000000180039458     CanvasRenderingContext2d.obj
 0002:0000b480       $cppxdata$?NewInstance@Nan@@YA?AV?$MaybeLocal@VObject@v8@@@v8@@V?$Local@VFunction@v8@@@3@HQEAV?$Local@VValue@v8@@@3@@Z 0000000180039480     CanvasRenderingContext2d.obj
 0002:0000b4a8       $cppxdata$?loaded@Image@@QEAAXXZ 00000001800394a8     Image.obj
 0002:0000b4d0       $cppxdata$??1Image@@EEAA@XZ 00000001800394d0     Image.obj
 0002:0000b4f8       $cppxdata$?SetOnerror@Image@@SAXV?$Local@VString@v8@@@v8@@V?$Local@VValue@v8@@@3@AEBV?$PropertyCallbackInfo@X@Nan@@@Z 00000001800394f8     Image.obj
 0002:0000b520       $cppxdata$?SetOnload@Image@@SAXV?$Local@VString@v8@@@v8@@V?$Local@VValue@v8@@@3@AEBV?$PropertyCallbackInfo@X@Nan@@@Z 0000000180039520     Image.obj
 0002:0000b548       $cppxdata$?SetSource@Image@@SAXV?$Local@VString@v8@@@v8@@V?$Local@VValue@v8@@@3@AEBV?$PropertyCallbackInfo@X@Nan@@@Z 0000000180039548     Image.obj
 0002:0000b570       $cppxdata$?Initialize@Image@@SAXV?$Local@VObject@v8@@@v8@@@Z 0000000180039570     Image.obj
 0002:0000b598       $cppxdata$??__F?constructor@Image@@2V?$Persistent@VFunctionTemplate@v8@@V?$NonCopyablePersistentTraits@VFunctionTemplate@v8@@@2@@Nan@@A@@YAXXZ 0000000180039598     Image.obj
 0002:0000b5c0       $cppxdata$?Initialize@ImageData@@SAXV?$Local@VObject@v8@@@v8@@@Z 00000001800395c0     ImageData.obj
 0002:0000b5e8       $cppxdata$??__F?constructor@ImageData@@2V?$Persistent@VFunctionTemplate@v8@@V?$NonCopyablePersistentTraits@VFunctionTemplate@v8@@@2@@Nan@@A@@YAXXZ 00000001800395e8     ImageData.obj
 0002:0000b6c0       L_signbit                  00000001800396c0     libucrt:tan.obj
 0002:0000b6d0       L_sign_mask                00000001800396d0     libucrt:tan.obj
 0002:0000b6e0       L_int_one                  00000001800396e0     libucrt:tan.obj
 0002:0000b6f0       L_twobypi                  00000001800396f0     libucrt:tan.obj
 0002:0000b700       L_point_333                0000000180039700     libucrt:tan.obj
 0002:0000b710       L_tan_p0                   0000000180039710     libucrt:tan.obj
 0002:0000b720       L_tan_p2                   0000000180039720     libucrt:tan.obj
 0002:0000b730       L_tan_p4                   0000000180039730     libucrt:tan.obj
 0002:0000b740       L_tan_q0                   0000000180039740     libucrt:tan.obj
 0002:0000b750       L_tan_q2                   0000000180039750     libucrt:tan.obj
 0002:0000b760       L_tan_q4                   0000000180039760     libucrt:tan.obj
 0002:0000b770       L_tan_q6                   0000000180039770     libucrt:tan.obj
 0002:0000b780       L_half_mask                0000000180039780     libucrt:tan.obj
 0002:0000b790       L_piby4_lead               0000000180039790     libucrt:tan.obj
 0002:0000b7a0       L_piby4_tail               00000001800397a0     libucrt:tan.obj
 0002:0000b7b0       L_piby2_1                  00000001800397b0     libucrt:tan.obj
 0002:0000b7b8       L_piby2_1tail              00000001800397b8     libucrt:tan.obj
 0002:0000b7c0       L_piby2_2                  00000001800397c0     libucrt:tan.obj
 0002:0000b7c8       L_piby2_2tail              00000001800397c8     libucrt:tan.obj
 0002:0000b7d0       L_piby2_3                  00000001800397d0     libucrt:tan.obj
 0002:0000b7d8       L_piby2_3tail              00000001800397d8     libucrt:tan.obj
 0002:0000b7e0       L_two_to_neg_27            00000001800397e0     libucrt:tan.obj
 0002:0000b7e8       L_two_to_neg_13            00000001800397e8     libucrt:tan.obj
 0002:0000b7f0       L_inf_mask_64              00000001800397f0     libucrt:tan.obj
 0002:0000b7f8       L_point_five               00000001800397f8     libucrt:tan.obj
 0002:0000b800       L_point_68                 0000000180039800     libucrt:tan.obj
 0002:0000b808       L_n_point_68               0000000180039808     libucrt:tan.obj
 0002:0000b810       L_zero                     0000000180039810     libucrt:tan.obj
 0002:0000b818       L_one                      0000000180039818     libucrt:tan.obj
 0002:0000b820       L_n_one                    0000000180039820     libucrt:tan.obj
 0002:0000b828       L_two                      0000000180039828     libucrt:tan.obj
 0002:0000b830       L_near_one                 0000000180039830     libucrt:tan.obj
 0002:0000b838       L_moderate_arg_cw          0000000180039838     libucrt:tan.obj
 0002:0000b840       L_moderate_arg_bdl         0000000180039840     libucrt:tan.obj
 0002:0000b850       L_piby2_lead               0000000180039850     libucrt:remainder_piby2_forfma3.obj
 0002:0000b860       L_fff800                   0000000180039860     libucrt:remainder_piby2_forfma3.obj
 0002:0000b870       L_piby2_part1              0000000180039870     libucrt:remainder_piby2_forfma3.obj
 0002:0000b880       L_piby2_part2              0000000180039880     libucrt:remainder_piby2_forfma3.obj
 0002:0000b890       L_piby2_part3              0000000180039890     libucrt:remainder_piby2_forfma3.obj
 0002:0000b8a0       L_piby2_1                  00000001800398a0     libucrt:remainder_piby2_forfma3.obj
 0002:0000b8b0       L_piby2_2                  00000001800398b0     libucrt:remainder_piby2_forfma3.obj
 0002:0000b8c0       L_piby2_3                  00000001800398c0     libucrt:remainder_piby2_forfma3.obj
 0002:0000b8d0       L_piby2_1tail              00000001800398d0     libucrt:remainder_piby2_forfma3.obj
 0002:0000b8e0       L_piby2_2tail              00000001800398e0     libucrt:remainder_piby2_forfma3.obj
 0002:0000b8f0       L_piby2_3tail              00000001800398f0     libucrt:remainder_piby2_forfma3.obj
 0002:0000b900       L_sign_mask                0000000180039900     libucrt:remainder_piby2_forfma3.obj
 0002:0000b910       L_twobypi                  0000000180039910     libucrt:remainder_piby2_forfma3.obj
 0002:0000b920       L_point_five               0000000180039920     libucrt:remainder_piby2_forfma3.obj
 0002:0000b930       L_int_three                0000000180039930     libucrt:remainder_piby2_forfma3.obj
 0002:0000b940       L_inf_mask_64              0000000180039940     libucrt:remainder_piby2_forfma3.obj
 0002:0000b950       L_signbit                  0000000180039950     libucrt:remainder_piby2_forfma3.obj
 0002:0000b960       L_r                        0000000180039960     libucrt:remainder_piby2_forfma3.obj
 0002:0000b970       L_xc1                      0000000180039970     libucrt:remainder_piby2_forfma3.obj
 0002:0000b980       L_xc2                      0000000180039980     libucrt:remainder_piby2_forfma3.obj
 0002:0000b990       L_xc3                      0000000180039990     libucrt:remainder_piby2_forfma3.obj
 0002:0000b9a0       L_sigma                    00000001800399a0     libucrt:remainder_piby2_forfma3.obj
 0002:0000b9b0       L__piby2_part3_piby2_lead  00000001800399b0     libucrt:remainder_piby2_forasm.obj
 0002:0000b9c0       L__piby2_part1             00000001800399c0     libucrt:remainder_piby2_forasm.obj
 0002:0000b9d0       L__piby2_part2             00000001800399d0     libucrt:remainder_piby2_forasm.obj
 0002:0000b9e0       L_piby2_1                  00000001800399e0     libucrt:remainder_piby2_forasm.obj
 0002:0000b9f0       L_piby2_2                  00000001800399f0     libucrt:remainder_piby2_forasm.obj
 0002:0000ba00       L_piby2_3                  0000000180039a00     libucrt:remainder_piby2_forasm.obj
 0002:0000ba10       L_piby2_1tail              0000000180039a10     libucrt:remainder_piby2_forasm.obj
 0002:0000ba20       L_piby2_2tail              0000000180039a20     libucrt:remainder_piby2_forasm.obj
 0002:0000ba30       L_piby2_3tail              0000000180039a30     libucrt:remainder_piby2_forasm.obj
 0002:0000ba40       L_twobypi                  0000000180039a40     libucrt:remainder_piby2_forasm.obj
 0002:0000ba50       L_point_five               0000000180039a50     libucrt:remainder_piby2_forasm.obj
 0002:0000ba60       L_int_three                0000000180039a60     libucrt:remainder_piby2_forasm.obj
 0002:0000ba70       L_inf_mask_64              0000000180039a70     libucrt:remainder_piby2_forasm.obj
 0002:0000ba80       L_signbit                  0000000180039a80     libucrt:remainder_piby2_forasm.obj
 0002:0000ba90       L_int_1                    0000000180039a90     libucrt:remainder_piby2_forasm.obj
 0002:0000baa0       L_int_15                   0000000180039aa0     libucrt:remainder_piby2_forasm.obj
 0002:0000baa8       L_int_48                   0000000180039aa8     libucrt:remainder_piby2_forasm.obj
 0002:0000bab0       L_3pio4                    0000000180039ab0     libucrt:remainder_piby2_forasm.obj
 0002:0000bab8       L_5pio4                    0000000180039ab8     libucrt:remainder_piby2_forasm.obj
 0002:0000bac0       L_7pio4                    0000000180039ac0     libucrt:remainder_piby2_forasm.obj
 0002:0000bac8       L_9pio4                    0000000180039ac8     libucrt:remainder_piby2_forasm.obj
 0002:0000bad0       L__2_by_pi_bits            0000000180039ad0     libucrt:remainder_piby2_forasm.obj
 0002:0000c440       $unwind$?FunctionCallbackWrapper@imp@Nan@@YAXAEBV?$FunctionCallbackInfo@VValue@v8@@@v8@@@Z 000000018003a440     Canvas.obj
 0002:0000c450       $unwind$?GetterCallbackWrapper@imp@Nan@@YAXV?$Local@VName@v8@@@v8@@AEBV?$PropertyCallbackInfo@VValue@v8@@@4@@Z 000000018003a450     Canvas.obj
 0002:0000c45c       $unwind$?SetterCallbackWrapper@imp@Nan@@YAXV?$Local@VName@v8@@@v8@@V?$Local@VValue@v8@@@4@AEBV?$PropertyCallbackInfo@X@4@@Z 000000018003a45c     Canvas.obj
 0002:0000c468       $unwind$?NewInstance@Nan@@YA?AV?$MaybeLocal@VObject@v8@@@v8@@V?$Local@VObjectTemplate@v8@@@3@@Z 000000018003a468     Canvas.obj
 0002:0000c47c       $stateUnwindMap$?NewInstance@Nan@@YA?AV?$MaybeLocal@VObject@v8@@@v8@@V?$Local@VObjectTemplate@v8@@@3@@Z 000000018003a47c     Canvas.obj
 0002:0000c47c       $stateUnwindMap$?convert@?$ToFactory@VInt32@v8@@@imp@Nan@@SA?AV?$MaybeLocal@VInt32@v8@@@v8@@V?$Local@VValue@v8@@@5@@Z 000000018003a47c     CanvasRenderingContext2d.obj
 0002:0000c47c       $stateUnwindMap$?GetFunction@Nan@@YA?AV?$MaybeLocal@VFunction@v8@@@v8@@V?$Local@VFunctionTemplate@v8@@@3@@Z 000000018003a47c     CanvasRenderingContext2d.obj
 0002:0000c47c       $stateUnwindMap$?convert@?$ToFactory@VUint32@v8@@@imp@Nan@@SA?AV?$MaybeLocal@VUint32@v8@@@v8@@V?$Local@VValue@v8@@@5@@Z 000000018003a47c     Canvas.obj
 0002:0000c488       $ip2state$?NewInstance@Nan@@YA?AV?$MaybeLocal@VObject@v8@@@v8@@V?$Local@VObjectTemplate@v8@@@3@@Z 000000018003a488     Canvas.obj
 0002:0000c4a0       $unwind$?Set@Nan@@YA?AV?$Maybe@_N@v8@@V?$Local@VObject@v8@@@3@V?$Local@VValue@v8@@@3@1@Z 000000018003a4a0     Canvas.obj
 0002:0000c4b4       $stateUnwindMap$?Set@Nan@@YA?AV?$Maybe@_N@v8@@V?$Local@VObject@v8@@@3@V?$Local@VValue@v8@@@3@1@Z 000000018003a4b4     Canvas.obj
 0002:0000c4c0       $ip2state$?Set@Nan@@YA?AV?$Maybe@_N@v8@@V?$Local@VObject@v8@@@3@V?$Local@VValue@v8@@@3@1@Z 000000018003a4c0     Canvas.obj
 0002:0000c4d8       $unwind$?Call@Nan@@YA?AV?$MaybeLocal@VValue@v8@@@v8@@V?$Local@VFunction@v8@@@3@V?$Local@VObject@v8@@@3@HQEAV?$Local@VValue@v8@@@3@@Z 000000018003a4d8     Canvas.obj
 0002:0000c4f0       $stateUnwindMap$?NewInstance@Nan@@YA?AV?$MaybeLocal@VObject@v8@@@v8@@V?$Local@VFunction@v8@@@3@HQEAV?$Local@VValue@v8@@@3@@Z 000000018003a4f0     CanvasRenderingContext2d.obj
 0002:0000c4f0       $stateUnwindMap$?Call@Nan@@YA?AV?$MaybeLocal@VValue@v8@@@v8@@V?$Local@VFunction@v8@@@3@V?$Local@VObject@v8@@@3@HQEAV?$Local@VValue@v8@@@3@@Z 000000018003a4f0     Canvas.obj
 0002:0000c4f8       $ip2state$?Call@Nan@@YA?AV?$MaybeLocal@VValue@v8@@@v8@@V?$Local@VFunction@v8@@@3@V?$Local@VObject@v8@@@3@HQEAV?$Local@VValue@v8@@@3@@Z 000000018003a4f8     Canvas.obj
 0002:0000c510       $unwind$?convert@?$ToFactory@VUint32@v8@@@imp@Nan@@SA?AV?$MaybeLocal@VUint32@v8@@@v8@@V?$Local@VValue@v8@@@5@@Z 000000018003a510     Canvas.obj
 0002:0000c528       $ip2state$?convert@?$ToFactory@VUint32@v8@@@imp@Nan@@SA?AV?$MaybeLocal@VUint32@v8@@@v8@@V?$Local@VValue@v8@@@5@@Z 000000018003a528     Canvas.obj
 0002:0000c540       $unwind$?New@?$Factory@VFunctionTemplate@v8@@@imp@Nan@@SA?AV?$Local@VFunctionTemplate@v8@@@v8@@P6AXAEBV?$FunctionCallbackInfo@VValue@v8@@@3@@ZV?$Local@VValue@v8@@@5@V?$Local@VSignature@v8@@@5@@Z 000000018003a540     Canvas.obj
 0002:0000c558       $stateUnwindMap$?New@?$Factory@VFunctionTemplate@v8@@@imp@Nan@@SA?AV?$Local@VFunctionTemplate@v8@@@v8@@P6AXAEBV?$FunctionCallbackInfo@VValue@v8@@@3@@ZV?$Local@VValue@v8@@@5@V?$Local@VSignature@v8@@@5@@Z 000000018003a558     Canvas.obj
 0002:0000c558       $stateUnwindMap$?Call@Callback@Nan@@QEBA?AV?$Local@VValue@v8@@@v8@@HQEAV34@@Z 000000018003a558     Canvas.obj
 0002:0000c560       $ip2state$?New@?$Factory@VFunctionTemplate@v8@@@imp@Nan@@SA?AV?$Local@VFunctionTemplate@v8@@@v8@@P6AXAEBV?$FunctionCallbackInfo@VValue@v8@@@3@@ZV?$Local@VValue@v8@@@5@V?$Local@VSignature@v8@@@5@@Z 000000018003a560     Canvas.obj
 0002:0000c578       $unwind$?type_case_Z@?$output_processor@_WV?$stream_output_adapter@_W@__crt_stdio_output@@V?$standard_base@_WV?$stream_output_adapter@_W@__crt_stdio_output@@@2@@__crt_stdio_output@@AEAA_NXZ 000000018003a578     libucrt:output.obj
 0002:0000c578       $unwind$?type_case_s@?$output_processor@_WV?$stream_output_adapter@_W@__crt_stdio_output@@V?$standard_base@_WV?$stream_output_adapter@_W@__crt_stdio_output@@@2@@__crt_stdio_output@@AEAA_NXZ 000000018003a578     libucrt:output.obj
 0002:0000c578       $unwind$__acrt_LocaleNameToLCID 000000018003a578     libucrt:winapi_thunks.obj
 0002:0000c578       $unwind$__acrt_FlsSetValue 000000018003a578     libucrt:winapi_thunks.obj
 0002:0000c578       $unwind$?type_case_n@?$output_processor@_WV?$stream_output_adapter@_W@__crt_stdio_output@@V?$standard_base@_WV?$stream_output_adapter@_W@__crt_stdio_output@@@2@@__crt_stdio_output@@AEAA_NXZ 000000018003a578     libucrt:output.obj
 0002:0000c578       $unwind$?free_crt_array_internal@@YAXQEAPEBX_K@Z 000000018003a578     libucrt:inittime.obj
 0002:0000c578       $unwind$?type_case_Z@?$output_processor@DV?$string_output_adapter@D@__crt_stdio_output@@V?$standard_base@DV?$string_output_adapter@D@__crt_stdio_output@@@2@@__crt_stdio_output@@AEAA_NXZ 000000018003a578     libucrt:output.obj
 0002:0000c578       $unwind$??$common_lseek_nolock@_J@@YA_JH_JH@Z 000000018003a578     libucrt:lseek.obj
 0002:0000c578       $unwind$__acrt_stdio_flush_and_write_wide_nolock 000000018003a578     libucrt:_flsbuf.obj
 0002:0000c578       $unwind$__acrt_stdio_flush_and_write_narrow_nolock 000000018003a578     libucrt:_flsbuf.obj
 0002:0000c578       $unwind$?type_case_s@?$output_processor@DV?$string_output_adapter@D@__crt_stdio_output@@V?$standard_base@DV?$string_output_adapter@D@__crt_stdio_output@@@2@@__crt_stdio_output@@AEAA_NXZ 000000018003a578     libucrt:output.obj
 0002:0000c578       $unwind$__acrt_execute_uninitializers 000000018003a578     libucrt:shared_initialization.obj
 0002:0000c578       $unwind$?AdjustExternalMemory@Nan@@YAHH@Z 000000018003a578     Canvas.obj
 0002:0000c578       $unwind$_exception_enabled 000000018003a578     libucrt:libm_error.obj
 0002:0000c578       $unwind$?canvas_stream_write_func@@YAXPEAUpng_struct_def@@PEAE_K@Z 000000018003a578     Canvas.obj
 0002:0000c578       $unwind$__acrt_getptd_noexit 000000018003a578     libucrt:per_thread_data.obj
 0002:0000c578       $unwind$??R<lambda_ad1ced32f4ac17aa236e5ef05d6b3b7c>@@QEBAXXZ 000000018003a578     libucrt:mbctype.obj
 0002:0000c578       $unwind$__vcrt_FlsSetValue 000000018003a578     libvcruntime:winapi_downlevel.obj
 0002:0000c578       $unwind$__vcrt_getptd_noexit 000000018003a578     libvcruntime:per_thread_data.obj
 0002:0000c578       $unwind$?type_case_n@?$output_processor@DV?$string_output_adapter@D@__crt_stdio_output@@V?$standard_base@DV?$string_output_adapter@D@__crt_stdio_output@@@2@@__crt_stdio_output@@AEAA_NXZ 000000018003a578     libucrt:output.obj
 0002:0000c578       $unwind$_DllMainCRTStartup 000000018003a578     LIBCMT:dll_dllmain.obj
 0002:0000c578       $unwind$_RTC_Terminate     000000018003a578     LIBCMT:_initsect_.obj
 0002:0000c578       $unwind$memcpy_s           000000018003a578     libucrt:cfout.obj
 0002:0000c578       $unwind$_RTC_Initialize    000000018003a578     LIBCMT:_initsect_.obj
 0002:0000c578       $unwind$?type_case_Z@?$output_processor@_WV?$string_output_adapter@_W@__crt_stdio_output@@V?$standard_base@_WV?$string_output_adapter@_W@__crt_stdio_output@@@2@@__crt_stdio_output@@AEAA_NXZ 000000018003a578     libucrt:output.obj
 0002:0000c578       $unwind$?closure_init@@YA?AW4_cairo_status@@PEAUclosure_t@@PEAVCanvas@@II@Z 000000018003a578     Canvas.obj
 0002:0000c578       $unwind$?type_case_s@?$output_processor@_WV?$string_output_adapter@_W@__crt_stdio_output@@V?$standard_base@_WV?$string_output_adapter@_W@__crt_stdio_output@@@2@@__crt_stdio_output@@AEAA_NXZ 000000018003a578     libucrt:output.obj
 0002:0000c578       $unwind$?type_case_n@?$output_processor@_WV?$string_output_adapter@_W@__crt_stdio_output@@V?$standard_base@_WV?$string_output_adapter@_W@__crt_stdio_output@@@2@@__crt_stdio_output@@AEAA_NXZ 000000018003a578     libucrt:output.obj
 0002:0000c578       $unwind$_initterm_e        000000018003a578     libucrt:initterm.obj
 0002:0000c578       $unwind$__acrt_stdio_flush_nolock 000000018003a578     libucrt:fflush.obj
 0002:0000c588       $unwind$?ThrowRangeError@Nan@@YAXPEBD@Z 000000018003a588     Canvas.obj
 0002:0000c598       $stateUnwindMap$?ThrowRangeError@Nan@@YAXPEBD@Z 000000018003a598     Canvas.obj
 0002:0000c598       $stateUnwindMap$??0?$TypedArrayContents@E@Nan@@QEAA@V?$Local@VValue@v8@@@v8@@@Z 000000018003a598     CanvasRenderingContext2d.obj
 0002:0000c598       $stateUnwindMap$?Call_@Callback@Nan@@AEBA?AV?$Local@VValue@v8@@@v8@@PEAVIsolate@4@V?$Local@VObject@v8@@@4@HQEAV34@@Z 000000018003a598     Canvas.obj
 0002:0000c598       $stateUnwindMap$?ThrowError@Nan@@YAXPEBD@Z 000000018003a598     CanvasPattern.obj
 0002:0000c598       $stateUnwindMap$?ThrowTypeError@Nan@@YAXPEBD@Z 000000018003a598     Canvas.obj
 0002:0000c598       $stateUnwindMap$?resurface@Canvas@@QEAAXV?$Local@VObject@v8@@@v8@@@Z 000000018003a598     Canvas.obj
 0002:0000c5a0       $ip2state$?ThrowRangeError@Nan@@YAXPEBD@Z 000000018003a5a0     Canvas.obj
 0002:0000c5b8       $unwind$?ThrowTypeError@Nan@@YAXPEBD@Z 000000018003a5b8     Canvas.obj
 0002:0000c5c8       $ip2state$?ThrowTypeError@Nan@@YAXPEBD@Z 000000018003a5c8     Canvas.obj
 0002:0000c5e0       $unwind$?Call@Callback@Nan@@QEBA?AV?$Local@VValue@v8@@@v8@@HQEAV34@@Z 000000018003a5e0     Canvas.obj
 0002:0000c600       $ip2state$?Call@Callback@Nan@@QEBA?AV?$Local@VValue@v8@@@v8@@HQEAV34@@Z 000000018003a600     Canvas.obj
 0002:0000c618       $unwind$?Call_@Callback@Nan@@AEBA?AV?$Local@VValue@v8@@@v8@@PEAVIsolate@4@V?$Local@VObject@v8@@@4@HQEAV34@@Z 000000018003a618     Canvas.obj
 0002:0000c630       $ip2state$?Call_@Callback@Nan@@AEBA?AV?$Local@VValue@v8@@@v8@@PEAVIsolate@4@V?$Local@VObject@v8@@@4@HQEAV34@@Z 000000018003a630     Canvas.obj
 0002:0000c648       $unwind$??_GCallback@Nan@@QEAAPEAXI@Z 000000018003a648     Canvas.obj
 0002:0000c658       $stateUnwindMap$??_GCallback@Nan@@QEAAPEAXI@Z 000000018003a658     Canvas.obj
 0002:0000c668       $ip2state$??_GCallback@Nan@@QEAAPEAXI@Z 000000018003a668     Canvas.obj
 0002:0000c680       $unwind$?SetPrototypeMethod@Nan@@YAXV?$Local@VFunctionTemplate@v8@@@v8@@PEBDP6AXAEBV?$FunctionCallbackInfo@VValue@v8@@@1@@Z@Z 000000018003a680     Canvas.obj
 0002:0000c698       $stateUnwindMap$?SetPrototypeMethod@Nan@@YAXV?$Local@VFunctionTemplate@v8@@@v8@@PEBDP6AXAEBV?$FunctionCallbackInfo@VValue@v8@@@1@@Z@Z 000000018003a698     Canvas.obj
 0002:0000c698       $stateUnwindMap$?Initialize@Pattern@@SAXV?$Local@VObject@v8@@@v8@@@Z 000000018003a698     CanvasPattern.obj
 0002:0000c698       $stateUnwindMap$?Initialize@Gradient@@SAXV?$Local@VObject@v8@@@v8@@@Z 000000018003a698     CanvasGradient.obj
 0002:0000c6a0       $ip2state$?SetPrototypeMethod@Nan@@YAXV?$Local@VFunctionTemplate@v8@@@v8@@PEBDP6AXAEBV?$FunctionCallbackInfo@VValue@v8@@@1@@Z@Z 000000018003a6a0     Canvas.obj
 0002:0000c6b8       $unwind$?SetAccessor@Nan@@YAXV?$Local@VObjectTemplate@v8@@@v8@@V?$Local@VString@v8@@@3@P6AX1AEBV?$PropertyCallbackInfo@VValue@v8@@@1@@ZP6AX1V?$Local@VValue@v8@@@3@AEBV?$PropertyCallbackInfo@X@1@@Z4W4AccessControl@3@W4PropertyAttribute@3@V?$Local@VAccessorSignature@v8@@@3@@Z 000000018003a6b8     Canvas.obj
 0002:0000c6d0       $stateUnwindMap$?SetAccessor@Nan@@YAXV?$Local@VObjectTemplate@v8@@@v8@@V?$Local@VString@v8@@@3@P6AX1AEBV?$PropertyCallbackInfo@VValue@v8@@@1@@ZP6AX1V?$Local@VValue@v8@@@3@AEBV?$PropertyCallbackInfo@X@1@@Z4W4AccessControl@3@W4PropertyAttribute@3@V?$Local@VAccessorSignature@v8@@@3@@Z 000000018003a6d0     Canvas.obj
 0002:0000c6d8       $ip2state$?SetAccessor@Nan@@YAXV?$Local@VObjectTemplate@v8@@@v8@@V?$Local@VString@v8@@@3@P6AX1AEBV?$PropertyCallbackInfo@VValue@v8@@@1@@ZP6AX1V?$Local@VValue@v8@@@3@AEBV?$PropertyCallbackInfo@X@1@@Z4W4AccessControl@3@W4PropertyAttribute@3@V?$Local@VAccessorSignature@v8@@@3@@Z 000000018003a6d8     Canvas.obj
 0002:0000c6f0       $unwind$??1ObjectWrap@Nan@@UEAA@XZ 000000018003a6f0     Canvas.obj
 0002:0000c700       $stateUnwindMap$??__F?constructor@Context2d@@2V?$Persistent@VFunctionTemplate@v8@@V?$NonCopyablePersistentTraits@VFunctionTemplate@v8@@@2@@Nan@@A@@YAXXZ 000000018003a700     CanvasRenderingContext2d.obj
 0002:0000c700       $stateUnwindMap$??__F?constructor@Image@@2V?$Persistent@VFunctionTemplate@v8@@V?$NonCopyablePersistentTraits@VFunctionTemplate@v8@@@2@@Nan@@A@@YAXXZ 000000018003a700     Image.obj
 0002:0000c700       $stateUnwindMap$??1ObjectWrap@Nan@@UEAA@XZ 000000018003a700     Canvas.obj
 0002:0000c700       $stateUnwindMap$??__F?constructor@Pattern@@2V?$Persistent@VFunctionTemplate@v8@@V?$NonCopyablePersistentTraits@VFunctionTemplate@v8@@@2@@Nan@@A@@YAXXZ 000000018003a700     CanvasPattern.obj
 0002:0000c700       $stateUnwindMap$??__F?constructor@ImageData@@2V?$Persistent@VFunctionTemplate@v8@@V?$NonCopyablePersistentTraits@VFunctionTemplate@v8@@@2@@Nan@@A@@YAXXZ 000000018003a700     ImageData.obj
 0002:0000c700       $stateUnwindMap$??__F?constructor@Gradient@@2V?$Persistent@VFunctionTemplate@v8@@V?$NonCopyablePersistentTraits@VFunctionTemplate@v8@@@2@@Nan@@A@@YAXXZ 000000018003a700     CanvasGradient.obj
 0002:0000c700       $stateUnwindMap$??__F?constructor@Canvas@@2V?$Persistent@VFunctionTemplate@v8@@V?$NonCopyablePersistentTraits@VFunctionTemplate@v8@@@2@@Nan@@A@@YAXXZ 000000018003a700     Canvas.obj
 0002:0000c708       $ip2state$??1ObjectWrap@Nan@@UEAA@XZ 000000018003a708     Canvas.obj
 0002:0000c710       $unwind$??$free_environment@_W@@YAXQEAPEA_W@Z 000000018003a710     libucrt:environment_initialization.obj
 0002:0000c710       $unwind$?Wrap@ObjectWrap@Nan@@IEAAXV?$Local@VObject@v8@@@v8@@@Z 000000018003a710     Canvas.obj
 0002:0000c710       $unwind$??$free_environment@D@@YAXQEAPEAD@Z 000000018003a710     libucrt:environment_initialization.obj
 0002:0000c71c       $unwind$??0bad_array_new_length@std@@QEAA@AEBV01@@Z 000000018003a71c     LIBCMT:throw_bad_alloc.obj
 0002:0000c71c       $unwind$__acrt_uninitialize_winapi_thunks 000000018003a71c     libucrt:winapi_thunks.obj
 0002:0000c71c       $unwind$?New@Image@@SAXAEBV?$FunctionCallbackInfo@VValue@v8@@@Nan@@@Z 000000018003a71c     Image.obj
 0002:0000c71c       $unwind$?type_case_integer@?$output_processor@DV?$string_output_adapter@D@__crt_stdio_output@@V?$standard_base@DV?$string_output_adapter@D@__crt_stdio_output@@@2@@__crt_stdio_output@@AEAA_NI_N@Z 000000018003a71c     libucrt:output.obj
 0002:0000c71c       $unwind$__acrt_AreFileApisANSI 000000018003a71c     libucrt:winapi_thunks.obj
 0002:0000c71c       $unwind$??2@YAPEAX_K@Z     000000018003a71c     LIBCMT:new_scalar.obj
 0002:0000c71c       $unwind$_set_statfp        000000018003a71c     libucrt:fpctrl.obj
 0002:0000c71c       $unwind$??0?$output_processor@_WV?$string_output_adapter@_W@__crt_stdio_output@@V?$standard_base@_WV?$string_output_adapter@_W@__crt_stdio_output@@@2@@__crt_stdio_output@@QEAA@AEBV?$string_output_adapter@_W@1@_KQEB_WQEAU__crt_locale_pointers@@QEAD@Z 000000018003a71c     libucrt:output.obj
 0002:0000c71c       $unwind$_setfpstatusword   000000018003a71c     libucrt:_fenvutils.obj
 0002:0000c71c       $unwind$__acrt_can_show_message_box 000000018003a71c     libucrt:winapi_thunks.obj
 0002:0000c71c       $unwind$_clrfp             000000018003a71c     libucrt:fpctrl.obj
 0002:0000c71c       $unwind$strcpy_s           000000018003a71c     libucrt:strcpy_s.obj
 0002:0000c71c       $unwind$?exit_or_terminate_process@@YAXI@Z 000000018003a71c     libucrt:exit.obj
 0002:0000c71c       $unwind$?Save@Context2d@@SAXAEBV?$FunctionCallbackInfo@VValue@v8@@@Nan@@@Z 000000018003a71c     CanvasRenderingContext2d.obj
 0002:0000c71c       $unwind$__std_type_info_destroy_list 000000018003a71c     libvcruntime:std_type_info.obj
 0002:0000c71c       $unwind$_clearfp           000000018003a71c     libucrt:ieee.obj
 0002:0000c71c       $unwind$??_Gtype_info@@UEAAPEAXI@Z 000000018003a71c     LIBCMT:std_type_info_static.obj
 0002:0000c71c       $unwind$?type_case_integer@?$output_processor@_WV?$string_output_adapter@_W@__crt_stdio_output@@V?$standard_base@_WV?$string_output_adapter@_W@__crt_stdio_output@@@2@@__crt_stdio_output@@AEAA_NI_N@Z 000000018003a71c     libucrt:output.obj
 0002:0000c71c       $unwind$?Ref@ObjectWrap@Nan@@MEAAXXZ 000000018003a71c     Canvas.obj
 0002:0000c71c       $unwind$__std_exception_destroy 000000018003a71c     libvcruntime:std_exception.obj
 0002:0000c71c       $unwind$__vcrt_initialize_locks 000000018003a71c     libvcruntime:locks.obj
 0002:0000c71c       $unwind$?state_case_normal@?$output_processor@DV?$string_output_adapter@D@__crt_stdio_output@@V?$standard_base@DV?$string_output_adapter@D@__crt_stdio_output@@@2@@__crt_stdio_output@@AEAA_NXZ 000000018003a71c     libucrt:output.obj
 0002:0000c71c       $unwind$?AddPage@Context2d@@SAXAEBV?$FunctionCallbackInfo@VValue@v8@@@Nan@@@Z 000000018003a71c     CanvasRenderingContext2d.obj
 0002:0000c71c       $unwind$?closure_destroy@@YAXPEAUclosure_t@@@Z 000000018003a71c     Canvas.obj
 0002:0000c71c       $unwind$?BeginPath@Context2d@@SAXAEBV?$FunctionCallbackInfo@VValue@v8@@@Nan@@@Z 000000018003a71c     CanvasRenderingContext2d.obj
 0002:0000c71c       $unwind$_onexit            000000018003a71c     LIBCMT:utility.obj
 0002:0000c71c       $unwind$??$message_box_wait_thread@_W@@YAKQEAX@Z 000000018003a71c     libucrt:crtmbox.obj
 0002:0000c71c       $unwind$?restorePath@Context2d@@QEAAXXZ 000000018003a71c     CanvasRenderingContext2d.obj
 0002:0000c71c       $unwind$__acrt_freeptd     000000018003a71c     libucrt:per_thread_data.obj
 0002:0000c71c       $unwind$??0?$output_processor@DV?$string_output_adapter@D@__crt_stdio_output@@V?$standard_base@DV?$string_output_adapter@D@__crt_stdio_output@@@2@@__crt_stdio_output@@QEAA@AEBV?$string_output_adapter@D@1@_KQEBDQEAU__crt_locale_pointers@@QEAD@Z 000000018003a71c     libucrt:output.obj
 0002:0000c71c       $unwind$__acrt_update_multibyte_info 000000018003a71c     libucrt:locale_update.obj
 0002:0000c71c       $unwind$_IsExceptionObjectToBeDestroyed 000000018003a71c     libvcruntime:trnsctrl.obj
 0002:0000c71c       $unwind$??0bad_exception@std@@QEAA@AEBV01@@Z 000000018003a71c     libvcruntime:frame.obj
 0002:0000c71c       $unwind$_CreateFrameInfo   000000018003a71c     libvcruntime:trnsctrl.obj
 0002:0000c71c       $unwind$__scrt_release_startup_lock 000000018003a71c     LIBCMT:utility.obj
 0002:0000c71c       $unwind$??0bad_alloc@std@@QEAA@AEBV01@@Z 000000018003a71c     libcpmt:xthrow.obj
 0002:0000c71c       $unwind$?type_case_integer@?$output_processor@_WV?$stream_output_adapter@_W@__crt_stdio_output@@V?$standard_base@_WV?$stream_output_adapter@_W@__crt_stdio_output@@@2@@__crt_stdio_output@@AEAA_NI_N@Z 000000018003a71c     libucrt:output.obj
 0002:0000c71c       $unwind$__scrt_initialize_crt 000000018003a71c     LIBCMT:utility.obj
 0002:0000c71c       $unwind$__vcrt_uninitialize_locks 000000018003a71c     libvcruntime:locks.obj
 0002:0000c71c       $unwind$__scrt_uninitialize_crt 000000018003a71c     LIBCMT:utility.obj
 0002:0000c71c       $unwind$_SetThrowImageBase 000000018003a71c     libvcruntime:trnsctrl.obj
 0002:0000c71c       $unwind$__acrt_update_locale_info 000000018003a71c     libucrt:locale_update.obj
 0002:0000c71c       $unwind$_SetImageBase      000000018003a71c     libvcruntime:trnsctrl.obj
 0002:0000c71c       $unwind$?SetTextBaseline@Context2d@@SAXAEBV?$FunctionCallbackInfo@VValue@v8@@@Nan@@@Z 000000018003a71c     CanvasRenderingContext2d.obj
 0002:0000c71c       $unwind$?SetTextAlignment@Context2d@@SAXAEBV?$FunctionCallbackInfo@VValue@v8@@@Nan@@@Z 000000018003a71c     CanvasRenderingContext2d.obj
 0002:0000c71c       $unwind$?__StateFromIp@@YAHPEBU_s_FuncInfo@@PEAU_xDISPATCHER_CONTEXT@@_J@Z 000000018003a71c     libvcruntime:ehstate.obj
 0002:0000c71c       $unwind$__acrt_stdio_allocate_buffer_nolock 000000018003a71c     libucrt:_getbuf.obj
 0002:0000c71c       $unwind$?__GetUnwindTryBlock@@YAHPEA_KPEAU_xDISPATCHER_CONTEXT@@PEBU_s_FuncInfo@@@Z 000000018003a71c     libvcruntime:ehstate.obj
 0002:0000c71c       $unwind$?Stroke@Context2d@@SAXAEBV?$FunctionCallbackInfo@VValue@v8@@@Nan@@@Z 000000018003a71c     CanvasRenderingContext2d.obj
 0002:0000c71c       $unwind$?Unref@ObjectWrap@Nan@@MEAAXXZ 000000018003a71c     Canvas.obj
 0002:0000c71c       $unwind$?load_exe_hook@@YAP6A_JXZIPEAUDelayLoadInfo@@@Z 000000018003a71c     win_delay_load_hook.obj
 0002:0000c71c       $unwind$?WeakCallback@ObjectWrap@Nan@@CAXAEBV?$WeakCallbackInfo@VObjectWrap@Nan@@@v8@@@Z 000000018003a71c     Canvas.obj
 0002:0000c71c       $unwind$__acrt_fp_strflt_to_string 000000018003a71c     libucrt:_fptostr.obj
 0002:0000c71c       $unwind$__acrt_initialize_locks 000000018003a71c     libucrt:locks.obj
 0002:0000c71c       $unwind$__acrt_uninitialize_stdio 000000018003a71c     libucrt:_file.obj
 0002:0000c71c       $unwind$?rgba_from_hex_string@@YAHPEBDPEAF@Z 000000018003a71c     color.obj
 0002:0000c71c       $unwind$_calloc_base       000000018003a71c     libucrt:calloc_base.obj
 0002:0000c71c       $unwind$__acrt_uninitialize_locks 000000018003a71c     libucrt:locks.obj
 0002:0000c71c       $unwind$_fflush_nolock     000000018003a71c     libucrt:fflush.obj
 0002:0000c71c       $unwind$__raise_securityfailure 000000018003a71c     LIBCMT:gs_report.obj
 0002:0000c71c       $unwind$??0length_error@std@@QEAA@AEBV01@@Z 000000018003a71c     libcpmt:xthrow.obj
 0002:0000c71c       $unwind$_malloc_base       000000018003a71c     libucrt:malloc_base.obj
 0002:0000c71c       $unwind$fesetenv           000000018003a71c     libucrt:fesetenv.obj
 0002:0000c71c       $unwind$feholdexcept       000000018003a71c     libucrt:feholdexcept.obj
 0002:0000c71c       $unwind$?ClosePath@Context2d@@SAXAEBV?$FunctionCallbackInfo@VValue@v8@@@Nan@@@Z 000000018003a71c     CanvasRenderingContext2d.obj
 0002:0000c71c       $unwind$wcscat_s           000000018003a71c     libucrt:wcscat_s.obj
 0002:0000c71c       $unwind$fegetenv           000000018003a71c     libucrt:fegetenv.obj
 0002:0000c71c       $unwind$?_Tidy@?$vector@NV?$allocator@N@std@@@std@@IEAAXXZ 000000018003a71c     CanvasRenderingContext2d.obj
 0002:0000c71c       $unwind$??0logic_error@std@@QEAA@AEBV01@@Z 000000018003a71c     libcpmt:xthrow.obj
 0002:0000c71c       $unwind$??0?$output_processor@_WV?$stream_output_adapter@_W@__crt_stdio_output@@V?$standard_base@_WV?$stream_output_adapter@_W@__crt_stdio_output@@@2@@__crt_stdio_output@@QEAA@AEBV?$stream_output_adapter@_W@1@_KQEB_WQEAU__crt_locale_pointers@@QEAD@Z 000000018003a71c     libucrt:output.obj
 0002:0000c71c       $unwind$?DloadReleaseSectionWriteAccess@@YAXXZ 000000018003a71c     DelayImp:delayhlp.obj
 0002:0000c71c       $unwind$wcscpy_s           000000018003a71c     libucrt:wcscpy_s.obj
 0002:0000c71c       $unwind$?ResetTransform@Context2d@@SAXAEBV?$FunctionCallbackInfo@VValue@v8@@@Nan@@@Z 000000018003a71c     CanvasRenderingContext2d.obj
 0002:0000c71c       $unwind$initialize_pointers 000000018003a71c     libucrt:initialization.obj
 0002:0000c71c       $unwind$__acrt_stdio_free_buffer_nolock 000000018003a71c     libucrt:_freebuf.obj
 0002:0000c71c       $unwind$__vcrt_freeptd     000000018003a71c     libvcruntime:per_thread_data.obj
 0002:0000c71c       $unwind$uninitialize_allocated_memory 000000018003a71c     libucrt:initialization.obj
 0002:0000c71c       $unwind$??0exception@std@@QEAA@AEBV01@@Z 000000018003a71c     libcpmt:xthrow.obj
 0002:0000c71c       $unwind$?savePath@Context2d@@QEAAXXZ 000000018003a71c     CanvasRenderingContext2d.obj
 0002:0000c71c       $unwind$__acrt_allocate_buffer_for_argv 000000018003a71c     libucrt:argv_parsing.obj
 0002:0000c724       $unwind$??_GCanvas@@EEAAPEAXI@Z 000000018003a724     Canvas.obj
 0002:0000c724       $unwind$longjmp            000000018003a724     libvcruntime:longjmpc.obj
 0002:0000c724       $unwind$__acrt_uninitialize_lowio 000000018003a724     libucrt:ioinit.obj
 0002:0000c724       $unwind$??_Gexception@std@@UEAAPEAXI@Z 000000018003a724     libcpmt:xthrow.obj
 0002:0000c724       $unwind$_realloc_base      000000018003a724     libucrt:realloc_base.obj
 0002:0000c724       $unwind$wcsncat_s          000000018003a724     libucrt:wcsncat_s.obj
 0002:0000c724       $unwind$??_Gbad_alloc@std@@UEAAPEAXI@Z 000000018003a724     libcpmt:xthrow.obj
 0002:0000c724       $unwind$__vcrt_FlsAlloc    000000018003a724     libvcruntime:winapi_downlevel.obj
 0002:0000c724       $unwind$_callnewh          000000018003a724     libucrt:new_handler.obj
 0002:0000c724       $unwind$__vcrt_FlsFree     000000018003a724     libvcruntime:winapi_downlevel.obj
 0002:0000c724       $unwind$??_Glogic_error@std@@UEAAPEAXI@Z 000000018003a724     libcpmt:xthrow.obj
 0002:0000c724       $unwind$?Rotate@Context2d@@SAXAEBV?$FunctionCallbackInfo@VValue@v8@@@Nan@@@Z 000000018003a724     CanvasRenderingContext2d.obj
 0002:0000c724       $unwind$__vcrt_FlsGetValue 000000018003a724     libvcruntime:winapi_downlevel.obj
 0002:0000c724       $unwind$?DloadAcquireSectionWriteAccess@@YAXXZ 000000018003a724     DelayImp:delayhlp.obj
 0002:0000c724       $unwind$??_Glength_error@std@@UEAAPEAXI@Z 000000018003a724     libcpmt:xthrow.obj
 0002:0000c724       $unwind$??_GObjectWrap@Nan@@UEAAPEAXI@Z 000000018003a724     Canvas.obj
 0002:0000c724       $unwind$_close_nolock      000000018003a724     libucrt:close.obj
 0002:0000c724       $unwind$??_GPattern@@EEAAPEAXI@Z 000000018003a724     CanvasPattern.obj
 0002:0000c724       $unwind$??_GGradient@@EEAAPEAXI@Z 000000018003a724     CanvasGradient.obj
 0002:0000c724       $unwind$__acrt_invoke_user_matherr 000000018003a724     libucrt:matherr.obj
 0002:0000c724       $unwind$??_GImageData@@UEAAPEAXI@Z 000000018003a724     ImageData.obj
 0002:0000c724       $unwind$?DloadGetSRWLockFunctionPointers@@YAEXZ 000000018003a724     DelayImp:delayhlp.obj
 0002:0000c724       $unwind$__acrt_stdio_begin_temporary_buffering_nolock 000000018003a724     libucrt:_sftbuf.obj
 0002:0000c724       $unwind$??0_LocaleUpdate@@QEAA@QEAU__crt_locale_pointers@@@Z 000000018003a724     libucrt:output.obj
 0002:0000c724       $unwind$?ExFilterRethrow@@YAHPEAU_EXCEPTION_POINTERS@@PEAUEHExceptionRecord@@PEAH@Z 000000018003a724     libvcruntime:frame.obj
 0002:0000c724       $unwind$_updatetlocinfoEx_nolock 000000018003a724     libucrt:locale_refcounting.obj
 0002:0000c724       $unwind$?force_decimal_point@__crt_stdio_output@@YAXPEADQEAU__crt_locale_pointers@@@Z 000000018003a724     libucrt:output.obj
 0002:0000c724       $unwind$??$common_initialize_environment_nolock@D@@YAHXZ 000000018003a724     libucrt:environment_initialization.obj
 0002:0000c724       $unwind$?type_case_c_tchar@?$output_processor@DV?$string_output_adapter@D@__crt_stdio_output@@V?$standard_base@DV?$string_output_adapter@D@__crt_stdio_output@@@2@@__crt_stdio_output@@AEAA_ND@Z 000000018003a724     libucrt:output.obj
 0002:0000c724       $unwind$?try_cor_exit_process@@YAXI@Z 000000018003a724     libucrt:exit.obj
 0002:0000c724       $unwind$?SetShadowBlur@Context2d@@SAXV?$Local@VString@v8@@@v8@@V?$Local@VValue@v8@@@3@AEBV?$PropertyCallbackInfo@X@Nan@@@Z 000000018003a724     CanvasRenderingContext2d.obj
 0002:0000c724       $unwind$?__SetUnwindTryBlock@@YAXPEA_KPEAU_xDISPATCHER_CONTEXT@@PEBU_s_FuncInfo@@H@Z 000000018003a724     libvcruntime:ehstate.obj
 0002:0000c724       $unwind$?rgba_from_string@@YAHPEBDPEAF@Z 000000018003a724     color.obj
 0002:0000c724       $unwind$__acrt_FlsAlloc    000000018003a724     libucrt:winapi_thunks.obj
 0002:0000c724       $unwind$?Clip@Context2d@@SAXAEBV?$FunctionCallbackInfo@VValue@v8@@@Nan@@@Z 000000018003a724     CanvasRenderingContext2d.obj
 0002:0000c724       $unwind$?Fill@Context2d@@SAXAEBV?$FunctionCallbackInfo@VValue@v8@@@Nan@@@Z 000000018003a724     CanvasRenderingContext2d.obj
 0002:0000c724       $unwind$__acrt_FlsFree     000000018003a724     libucrt:winapi_thunks.obj
 0002:0000c724       $unwind$__acrt_FlsGetValue 000000018003a724     libucrt:winapi_thunks.obj
 0002:0000c724       $unwind$??_Gbad_array_new_length@std@@UEAAPEAXI@Z 000000018003a724     LIBCMT:throw_bad_alloc.obj
 0002:0000c724       $unwind$??_GImage@@EEAAPEAXI@Z 000000018003a724     Image.obj
 0002:0000c724       $unwind$?GetComplete@Image@@SAXV?$Local@VString@v8@@@v8@@AEBV?$PropertyCallbackInfo@VValue@v8@@@Nan@@@Z 000000018003a724     Image.obj
 0002:0000c724       $unwind$__acrt_get_parent_window 000000018003a724     libucrt:winapi_thunks.obj
 0002:0000c724       $unwind$??_GContext2d@@EEAAPEAXI@Z 000000018003a724     CanvasRenderingContext2d.obj
 0002:0000c724       $unwind$?Restore@Context2d@@SAXAEBV?$FunctionCallbackInfo@VValue@v8@@@Nan@@@Z 000000018003a724     CanvasRenderingContext2d.obj
 0002:0000c724       $unwind$strncpy_s          000000018003a724     libucrt:strncpy_s.obj
 0002:0000c724       $unwind$?internal_isupper_l@@YA_NHQEAU__crt_locale_pointers@@@Z 000000018003a724     libucrt:tolower_toupper.obj
 0002:0000c724       $unwind$??0Context2d@@QEAA@PEAVCanvas@@@Z 000000018003a724     CanvasRenderingContext2d.obj
 0002:0000c724       $unwind$?saveState@Context2d@@QEAAXXZ 000000018003a724     CanvasRenderingContext2d.obj
 0002:0000c724       $unwind$??_Gbad_exception@std@@UEAAPEAXI@Z 000000018003a724     libvcruntime:frame.obj
 0002:0000c724       $unwind$_FindAndUnlinkFrame 000000018003a724     libvcruntime:trnsctrl.obj
 0002:0000c724       $unwind$__acrt_errno_map_os_error 000000018003a724     libucrt:errno.obj
 0002:0000c724       $unwind$?GetOnerror@Image@@SAXV?$Local@VString@v8@@@v8@@AEBV?$PropertyCallbackInfo@VValue@v8@@@Nan@@@Z 000000018003a724     Image.obj
 0002:0000c724       $unwind$??$common_xtox@K_W@@YAHKQEA_W_KI_N@Z 000000018003a724     libucrt:xtoa.obj
 0002:0000c724       $unwind$__acrt_getptd      000000018003a724     libucrt:per_thread_data.obj
 0002:0000c724       $unwind$_fclose_nolock     000000018003a724     libucrt:fclose.obj
 0002:0000c724       $unwind$?readPNG@Image@@SA?AW4_cairo_status@@PEAXPEAEI@Z 000000018003a724     Image.obj
 0002:0000c724       $unwind$?GetOnload@Image@@SAXV?$Local@VString@v8@@@v8@@AEBV?$PropertyCallbackInfo@VValue@v8@@@Nan@@@Z 000000018003a724     Image.obj
 0002:0000c724       $unwind$?replace_current_thread_locale_nolock@@YAXQEAU__acrt_ptd@@QEAU__crt_locale_data@@@Z 000000018003a724     libucrt:per_thread_data.obj
 0002:0000c730       $chain$1$?closure_destroy@@YAXPEAUclosure_t@@@Z 000000018003a730     Canvas.obj
 0002:0000c748       $chain$2$?closure_destroy@@YAXPEAUclosure_t@@@Z 000000018003a748     Canvas.obj
 0002:0000c758       $unwind$?canvas_unpremultiply_data@@YAXPEAUpng_struct_def@@PEAUpng_row_info_struct@@PEAE@Z 000000018003a758     Canvas.obj
 0002:0000c764       $chain$0$?canvas_unpremultiply_data@@YAXPEAUpng_struct_def@@PEAUpng_row_info_struct@@PEAE@Z 000000018003a764     Canvas.obj
 0002:0000c778       $chain$1$?canvas_unpremultiply_data@@YAXPEAUpng_struct_def@@PEAUpng_row_info_struct@@PEAE@Z 000000018003a778     Canvas.obj
 0002:0000c788       $unwind$?canvas_write_png@@YA?AW4_cairo_status@@PEAU_cairo_surface@@P6AXPEAUpng_struct_def@@PEAE_K@ZPEAX@Z 000000018003a788     Canvas.obj
 0002:0000c7a8       $unwind$??__F?constructor@Canvas@@2V?$Persistent@VFunctionTemplate@v8@@V?$NonCopyablePersistentTraits@VFunctionTemplate@v8@@@2@@Nan@@A@@YAXXZ 000000018003a7a8     Canvas.obj
 0002:0000c7b8       $ip2state$??__F?constructor@Canvas@@2V?$Persistent@VFunctionTemplate@v8@@V?$NonCopyablePersistentTraits@VFunctionTemplate@v8@@@2@@Nan@@A@@YAXXZ 000000018003a7b8     Canvas.obj
 0002:0000c7c0       $unwind$?Initialize@Canvas@@SAXV?$Local@VObject@v8@@@v8@@@Z 000000018003a7c0     Canvas.obj
 0002:0000c7dc       $stateUnwindMap$?Initialize@Canvas@@SAXV?$Local@VObject@v8@@@v8@@@Z 000000018003a7dc     Canvas.obj
 0002:0000c7dc       $stateUnwindMap$?Initialize@Context2d@@SAXV?$Local@VObject@v8@@@v8@@@Z 000000018003a7dc     CanvasRenderingContext2d.obj
 0002:0000c7dc       $stateUnwindMap$?Initialize@ImageData@@SAXV?$Local@VObject@v8@@@v8@@@Z 000000018003a7dc     ImageData.obj
 0002:0000c7f8       $ip2state$?Initialize@Canvas@@SAXV?$Local@VObject@v8@@@v8@@@Z 000000018003a7f8     Canvas.obj
 0002:0000c830       $unwind$?New@Canvas@@SAXAEBV?$FunctionCallbackInfo@VValue@v8@@@Nan@@@Z 000000018003a830     Canvas.obj
 0002:0000c84c       $stateUnwindMap$?New@Canvas@@SAXAEBV?$FunctionCallbackInfo@VValue@v8@@@Nan@@@Z 000000018003a84c     Canvas.obj
 0002:0000c860       $ip2state$?New@Canvas@@SAXAEBV?$FunctionCallbackInfo@VValue@v8@@@Nan@@@Z 000000018003a860     Canvas.obj
 0002:0000c888       $unwind$__acrt_update_thread_locale_data$fin$0 000000018003a888     libucrt:locale_refcounting.obj
 0002:0000c888       $unwind$?fin$0@?0???$?RV<lambda_b8c45f8f788dd370798f47cfe8ac3a86>@@AEAV<lambda_4e60a939b0d047cfe11ddc22648dfba9>@@V<lambda_332c3edc96d0294ec56c57d38c1cdfd5>@@@?$__crt_seh_guarded_call@H@@QEAAH$$QEAV<lambda_b8c45f8f788dd370798f47cfe8ac3a86>@@AEAV<lambda_4e60a939b0d047cfe11ddc22648dfba9>@@$$QEAV<lambda_332c3edc96d0294ec56c57d38c1cdfd5>@@@Z@4HA 000000018003a888     libucrt:onexit.obj
 0002:0000c888       $unwind$raise$fin$0        000000018003a888     libucrt:signal.obj
 0002:0000c888       $unwind$?fin$0@?0??common_fseek@@YAHV__crt_stdio_stream@@_JH@Z@4HA 000000018003a888     libucrt:fseek.obj
 0002:0000c888       $unwind$?dtor$0@?0??SetOnerror@Image@@SAXV?$Local@VString@v8@@@v8@@V?$Local@VValue@v8@@@3@AEBV?$PropertyCallbackInfo@X@Nan@@@Z@4HA 000000018003a888     Image.obj
 0002:0000c888       $unwind$_IsNonwritableInCurrentImage$filt$0 000000018003a888     LIBCMT:pesect.obj
 0002:0000c888       $unwind$?fin$0@?0???$?RV<lambda_b521505b218e5242e90febf6bfebc422>@@AEAV<lambda_6978c1fb23f02e42e1d9e99668cc68aa>@@V<lambda_314360699dd331753a4119843814e9a7>@@@?$__crt_seh_guarded_call@H@@QEAAH$$QEAV<lambda_b521505b218e5242e90febf6bfebc422>@@AEAV<lambda_6978c1fb23f02e42e1d9e99668cc68aa>@@$$QEAV<lambda_314360699dd331753a4119843814e9a7>@@@Z@4HA 000000018003a888     libucrt:commit.obj
 0002:0000c888       $unwind$_read$fin$0        000000018003a888     libucrt:read.obj
 0002:0000c888       $unwind$?fin$0@?0???$?RV<lambda_7a5ef57ff966f610505f1d28a3d40618>@@AEAV<lambda_b721fa326cdb32351d23dfa67958c160>@@V<lambda_5e0fb27672408a07956fe59e48ccb2aa>@@@?$__crt_seh_guarded_call@H@@QEAAH$$QEAV<lambda_7a5ef57ff966f610505f1d28a3d40618>@@AEAV<lambda_b721fa326cdb32351d23dfa67958c160>@@$$QEAV<lambda_5e0fb27672408a07956fe59e48ccb2aa>@@@Z@4HA 000000018003a888     libucrt:setvbuf.obj
 0002:0000c888       $unwind$?fin$0@?0???$common_fsopen@D@@YAPEAU_iobuf@@QEBD0H@Z@4HA 000000018003a888     libucrt:fopen.obj
 0002:0000c888       $unwind$?fin$0@?0???$?RV<lambda_72d1df2b273a38828b1ce30cbf4cdab5>@@AEAV<lambda_876a65b173b8412d3a47c70a915b0cf4>@@V<lambda_41932305e351933ebe8f8be3ed8bb5dc>@@@?$__crt_seh_guarded_call@X@@QEAAX$$QEAV<lambda_72d1df2b273a38828b1ce30cbf4cdab5>@@AEAV<lambda_876a65b173b8412d3a47c70a915b0cf4>@@$$QEAV<lambda_41932305e351933ebe8f8be3ed8bb5dc>@@@Z@4HA 000000018003a888     libucrt:per_thread_data.obj
 0002:0000c888       $unwind$?fin$0@?0???$common_lseek@_J@@YA_JH_JH@Z@4HA 000000018003a888     libucrt:lseek.obj
 0002:0000c888       $unwind$?fin$0@?0???$?RV<lambda_5e887d1dcbef67a5eb4283622ba103bf>@@AEAV<lambda_4466841279450cc726390878d4a41900>@@V<lambda_341c25c0346d94847f1f3c463c57e077>@@@?$__crt_seh_guarded_call@X@@QEAAX$$QEAV<lambda_5e887d1dcbef67a5eb4283622ba103bf>@@AEAV<lambda_4466841279450cc726390878d4a41900>@@$$QEAV<lambda_341c25c0346d94847f1f3c463c57e077>@@@Z@4HA 000000018003a888     libucrt:per_thread_data.obj
 0002:0000c888       $unwind$?dtor$0@?0??New@Gradient@@SAXAEBV?$FunctionCallbackInfo@VValue@v8@@@Nan@@@Z@4HA 000000018003a888     CanvasGradient.obj
 0002:0000c888       $unwind$?fin$0@?0???$?RV<lambda_e24bbb7b643b32fcea6fa61b31d4c984>@@AEAV<lambda_275893d493268fdec8709772e3fcec0e>@@V<lambda_9d71df4d7cf3f480f8d633942495c3b0>@@@?$__crt_seh_guarded_call@H@@QEAAH$$QEAV<lambda_e24bbb7b643b32fcea6fa61b31d4c984>@@AEAV<lambda_275893d493268fdec8709772e3fcec0e>@@$$QEAV<lambda_9d71df4d7cf3f480f8d633942495c3b0>@@@Z@4HA 000000018003a888     libucrt:onexit.obj
 0002:0000c888       $unwind$__acrt_initialize_lowio$fin$0 000000018003a888     libucrt:ioinit.obj
 0002:0000c888       $unwind$__acrt_update_thread_multibyte_data$fin$0 000000018003a888     libucrt:mbctype.obj
 0002:0000c888       $unwind$?dtor$0@?0??SetOnload@Image@@SAXV?$Local@VString@v8@@@v8@@V?$Local@VValue@v8@@@3@AEBV?$PropertyCallbackInfo@X@Nan@@@Z@4HA 000000018003a888     Image.obj
 0002:0000c888       $unwind$?filt$0@?0??common_exit@@YAXHW4_crt_exit_cleanup_mode@@W4_crt_exit_return_mode@@@Z@4HA 000000018003a888     libucrt:exit.obj
 0002:0000c888       $unwind$fflush$fin$0       000000018003a888     libucrt:fflush.obj
 0002:0000c888       $unwind$?fin$0@?0???$?RV<lambda_fb3a7dec4e47f37f22dae91bb15c9095>@@AEAV<lambda_698284760c8add0bfb0756c19673e34b>@@V<lambda_dfb8eca1e75fef3034a8fb18dd509707>@@@?$__crt_seh_guarded_call@X@@QEAAX$$QEAV<lambda_fb3a7dec4e47f37f22dae91bb15c9095>@@AEAV<lambda_698284760c8add0bfb0756c19673e34b>@@$$QEAV<lambda_dfb8eca1e75fef3034a8fb18dd509707>@@@Z@4HA 000000018003a888     libucrt:per_thread_data.obj
 0002:0000c888       $unwind$common_flush_all$fin$0 000000018003a888     libucrt:fflush.obj
 0002:0000c888       $unwind$common_flush_all$fin$1 000000018003a888     libucrt:fflush.obj
 0002:0000c888       $unwind$?fin$0@?0???$?RV<lambda_bfedae4ebbf01fab1bb6dcc6a9e276e0>@@AEAV<lambda_2fe9b910cf3cbf4a0ab98a02ba45b3ec>@@V<lambda_237c231691f317818eb88cc1d5d642d6>@@@?$__crt_seh_guarded_call@H@@QEAAH$$QEAV<lambda_bfedae4ebbf01fab1bb6dcc6a9e276e0>@@AEAV<lambda_2fe9b910cf3cbf4a0ab98a02ba45b3ec>@@$$QEAV<lambda_237c231691f317818eb88cc1d5d642d6>@@@Z@4HA 000000018003a888     libucrt:close.obj
 0002:0000c888       $unwind$__FrameUnwindToState$filt$0 000000018003a888     libvcruntime:frame.obj
 0002:0000c888       $unwind$?dtor$0@?0??ToBuffer@Canvas@@SAXAEBV?$FunctionCallbackInfo@VValue@v8@@@Nan@@@Z@4HA 000000018003a888     Canvas.obj
 0002:0000c888       $unwind$?fin$0@?0??dllmain_crt_process_detach@@YAH_N@Z@4HA 000000018003a888     LIBCMT:dll_dllmain.obj
 0002:0000c888       $unwind$?fin$0@?0???$?RV<lambda_c36588078e9f5dfd39652860aa6b3aaf>@@AEAV<lambda_ec61778202f4f5fc7e7711acc23c3bca>@@V<lambda_dc9d2797ccde5d239b4a0efae8ebd7db>@@@?$__crt_seh_guarded_call@P6AXH@Z@@QEAAP6AXH@Z$$QEAV<lambda_c36588078e9f5dfd39652860aa6b3aaf>@@AEAV<lambda_ec61778202f4f5fc7e7711acc23c3bca>@@$$QEAV<lambda_dc9d2797ccde5d239b4a0efae8ebd7db>@@@Z@4HA 000000018003a888     libucrt:signal.obj
 0002:0000c888       $unwind$__FrameUnwindToState$fin$1 000000018003a888     libvcruntime:frame.obj
 0002:0000c888       $unwind$__DestructExceptionObject$filt$0 000000018003a888     libvcruntime:frame.obj
 0002:0000c888       $unwind$?fin$0@?0??dllmain_crt_process_attach@@YAHQEAUHINSTANCE__@@QEAX@Z@4HA 000000018003a888     LIBCMT:dll_dllmain.obj
 0002:0000c888       $unwind$?dtor$2@?0??New@Canvas@@SAXAEBV?$FunctionCallbackInfo@VValue@v8@@@Nan@@@Z@4HA 000000018003a888     Canvas.obj
 0002:0000c888       $unwind$?fin$0@?0???$?RV<lambda_99476a1ad63dd22509b5d3e65b0ffc95>@@AEAV<lambda_ad1ced32f4ac17aa236e5ef05d6b3b7c>@@V<lambda_f7424dd8d45958661754dc4f2697e9c3>@@@?$__crt_seh_guarded_call@X@@QEAAX$$QEAV<lambda_99476a1ad63dd22509b5d3e65b0ffc95>@@AEAV<lambda_ad1ced32f4ac17aa236e5ef05d6b3b7c>@@$$QEAV<lambda_f7424dd8d45958661754dc4f2697e9c3>@@@Z@4HA 000000018003a888     libucrt:mbctype.obj
 0002:0000c888       $unwind$?fin$0@?0???$?RV<lambda_46352004c1216016012b18bd6f87e700>@@AEAV<lambda_3bd07e1a1191394380780325891bf33f>@@V<lambda_334532d3f185bcaa59b5be82d7d22bff>@@@?$__crt_seh_guarded_call@X@@QEAAX$$QEAV<lambda_46352004c1216016012b18bd6f87e700>@@AEAV<lambda_3bd07e1a1191394380780325891bf33f>@@$$QEAV<lambda_334532d3f185bcaa59b5be82d7d22bff>@@@Z@4HA 000000018003a888     libucrt:per_thread_data.obj
 0002:0000c888       $unwind$__CxxCallCatchBlock$filt$0 000000018003a888     libvcruntime:frame.obj
 0002:0000c888       $unwind$__acrt_lowio_ensure_fh_exists$fin$0 000000018003a888     libucrt:osfinfo.obj
 0002:0000c888       $unwind$fclose$fin$0       000000018003a888     libucrt:fclose.obj
 0002:0000c888       $unwind$_fcloseall$fin$0   000000018003a888     libucrt:closeall.obj
 0002:0000c888       $unwind$__acrt_uninitialize_locale$fin$0 000000018003a888     libucrt:wsetlocale.obj
 0002:0000c888       $unwind$?fin$1@?0??common_exit@@YAXHW4_crt_exit_cleanup_mode@@W4_crt_exit_return_mode@@@Z@4HA 000000018003a888     libucrt:exit.obj
 0002:0000c888       $unwind$_query_new_handler$fin$0 000000018003a888     libucrt:new_handler.obj
 0002:0000c888       $unwind$?dtor$1@?0??New@Gradient@@SAXAEBV?$FunctionCallbackInfo@VValue@v8@@@Nan@@@Z@4HA 000000018003a888     CanvasGradient.obj
 0002:0000c888       $unwind$_write$fin$0       000000018003a888     libucrt:write.obj
 0002:0000c888       $unwind$_ctrlfp$filt$0     000000018003a888     libucrt:fpctrl.obj
 0002:0000c888       $unwind$common_control87$filt$0 000000018003a888     libucrt:ieee.obj
 0002:0000c888       $unwind$?fin$0@?0??__acrt_stdio_allocate_stream@@YA?AV__crt_stdio_stream@@XZ@4HA 000000018003a888     libucrt:stream.obj
 0002:0000c888       $unwind$?fin$0@?0???$?RV<lambda_7b91131dde12e1c3dfc74ff76b3f2eac>@@AEAV<lambda_dd75445284c072d0bd3768540cc698fa>@@V<lambda_16bc4ecb55b4718497c16bceaea2ceaf>@@@?$__crt_seh_guarded_call@H@@QEAAH$$QEAV<lambda_7b91131dde12e1c3dfc74ff76b3f2eac>@@AEAV<lambda_dd75445284c072d0bd3768540cc698fa>@@$$QEAV<lambda_16bc4ecb55b4718497c16bceaea2ceaf>@@@Z@4HA 000000018003a888     libucrt:output.obj
 0002:0000c888       $unwind$_alloc_osfhnd$fin$0 000000018003a888     libucrt:osfinfo.obj
 0002:0000c890       $unwind$??$__acrt_stdio_parse_mode@D@@YA?AU__acrt_stdio_stream_mode@@QEBD@Z 000000018003a890     libucrt:openfile.obj
 0002:0000c890       $unwind$?GetAntiAlias@Context2d@@SAXV?$Local@VString@v8@@@v8@@AEBV?$PropertyCallbackInfo@VValue@v8@@@Nan@@@Z 000000018003a890     CanvasRenderingContext2d.obj
 0002:0000c890       $unwind$?GetSource@Image@@SAXV?$Local@VString@v8@@@v8@@AEBV?$PropertyCallbackInfo@VValue@v8@@@Nan@@@Z 000000018003a890     Image.obj
 0002:0000c890       $unwind$?GetLineJoin@Context2d@@SAXV?$Local@VString@v8@@@v8@@AEBV?$PropertyCallbackInfo@VValue@v8@@@Nan@@@Z 000000018003a890     CanvasRenderingContext2d.obj
 0002:0000c890       $unwind$?GetGlobalCompositeOperation@Context2d@@SAXV?$Local@VString@v8@@@v8@@AEBV?$PropertyCallbackInfo@VValue@v8@@@Nan@@@Z 000000018003a890     CanvasRenderingContext2d.obj
 0002:0000c890       $unwind$?setFillRule@Context2d@@QEAAXV?$Local@VValue@v8@@@v8@@@Z 000000018003a890     CanvasRenderingContext2d.obj
 0002:0000c890       $unwind$?GetType@Canvas@@SAXV?$Local@VString@v8@@@v8@@AEBV?$PropertyCallbackInfo@VValue@v8@@@Nan@@@Z 000000018003a890     Canvas.obj
 0002:0000c890       $unwind$?fill@Context2d@@QEAAX_N@Z 000000018003a890     CanvasRenderingContext2d.obj
 0002:0000c890       $unwind$?GetPatternQuality@Context2d@@SAXV?$Local@VString@v8@@@v8@@AEBV?$PropertyCallbackInfo@VValue@v8@@@Nan@@@Z 000000018003a890     CanvasRenderingContext2d.obj
 0002:0000c890       $unwind$?GetLineCap@Context2d@@SAXV?$Local@VString@v8@@@v8@@AEBV?$PropertyCallbackInfo@VValue@v8@@@Nan@@@Z 000000018003a890     CanvasRenderingContext2d.obj
 0002:0000c890       $unwind$?GetFilter@Context2d@@SAXV?$Local@VString@v8@@@v8@@AEBV?$PropertyCallbackInfo@VValue@v8@@@Nan@@@Z 000000018003a890     CanvasRenderingContext2d.obj
 0002:0000c890       $unwind$?ToBufferAsync@Canvas@@SAXPEAUuv_work_s@@@Z 000000018003a890     Canvas.obj
 0002:0000c890       $unwind$?loadFromBuffer@Image@@QEAA?AW4_cairo_status@@PEAEI@Z 000000018003a890     Image.obj
 0002:0000c890       $unwind$?stroke@Context2d@@QEAAX_N@Z 000000018003a890     CanvasRenderingContext2d.obj
 0002:0000c890       $unwind$?GetTextDrawingMode@Context2d@@SAXV?$Local@VString@v8@@@v8@@AEBV?$PropertyCallbackInfo@VValue@v8@@@Nan@@@Z 000000018003a890     CanvasRenderingContext2d.obj
 0002:0000c89c       $unwind$?GetMiterLimit@Context2d@@SAXV?$Local@VString@v8@@@v8@@AEBV?$PropertyCallbackInfo@VValue@v8@@@Nan@@@Z 000000018003a89c     CanvasRenderingContext2d.obj
 0002:0000c89c       $unwind$?GetShadowOffsetY@Context2d@@SAXV?$Local@VString@v8@@@v8@@AEBV?$PropertyCallbackInfo@VValue@v8@@@Nan@@@Z 000000018003a89c     CanvasRenderingContext2d.obj
 0002:0000c89c       $unwind$?GetShadowOffsetX@Context2d@@SAXV?$Local@VString@v8@@@v8@@AEBV?$PropertyCallbackInfo@VValue@v8@@@Nan@@@Z 000000018003a89c     CanvasRenderingContext2d.obj
 0002:0000c89c       $unwind$?GetWidth@ImageData@@SAXV?$Local@VString@v8@@@v8@@AEBV?$PropertyCallbackInfo@VValue@v8@@@Nan@@@Z 000000018003a89c     ImageData.obj
 0002:0000c89c       $unwind$?GetDataMode@Image@@SAXV?$Local@VString@v8@@@v8@@AEBV?$PropertyCallbackInfo@VValue@v8@@@Nan@@@Z 000000018003a89c     Image.obj
 0002:0000c89c       $unwind$?GetShadowBlur@Context2d@@SAXV?$Local@VString@v8@@@v8@@AEBV?$PropertyCallbackInfo@VValue@v8@@@Nan@@@Z 000000018003a89c     CanvasRenderingContext2d.obj
 0002:0000c89c       $unwind$?GetHeight@Canvas@@SAXV?$Local@VString@v8@@@v8@@AEBV?$PropertyCallbackInfo@VValue@v8@@@Nan@@@Z 000000018003a89c     Canvas.obj
 0002:0000c89c       $unwind$?GetLineDashOffset@Context2d@@SAXV?$Local@VString@v8@@@v8@@AEBV?$PropertyCallbackInfo@VValue@v8@@@Nan@@@Z 000000018003a89c     CanvasRenderingContext2d.obj
 0002:0000c89c       $unwind$?GetLineWidth@Context2d@@SAXV?$Local@VString@v8@@@v8@@AEBV?$PropertyCallbackInfo@VValue@v8@@@Nan@@@Z 000000018003a89c     CanvasRenderingContext2d.obj
 0002:0000c89c       $unwind$?GetWidth@Image@@SAXV?$Local@VString@v8@@@v8@@AEBV?$PropertyCallbackInfo@VValue@v8@@@Nan@@@Z 000000018003a89c     Image.obj
 0002:0000c89c       $unwind$?GetHeight@Image@@SAXV?$Local@VString@v8@@@v8@@AEBV?$PropertyCallbackInfo@VValue@v8@@@Nan@@@Z 000000018003a89c     Image.obj
 0002:0000c89c       $unwind$?GetHeight@ImageData@@SAXV?$Local@VString@v8@@@v8@@AEBV?$PropertyCallbackInfo@VValue@v8@@@Nan@@@Z 000000018003a89c     ImageData.obj
 0002:0000c89c       $unwind$?GetWidth@Canvas@@SAXV?$Local@VString@v8@@@v8@@AEBV?$PropertyCallbackInfo@VValue@v8@@@Nan@@@Z 000000018003a89c     Canvas.obj
 0002:0000c89c       $unwind$?GetGlobalAlpha@Context2d@@SAXV?$Local@VString@v8@@@v8@@AEBV?$PropertyCallbackInfo@VValue@v8@@@Nan@@@Z 000000018003a89c     CanvasRenderingContext2d.obj
 0002:0000c89c       $unwind$?GetStride@Canvas@@SAXV?$Local@VString@v8@@@v8@@AEBV?$PropertyCallbackInfo@VValue@v8@@@Nan@@@Z 000000018003a89c     Canvas.obj
 0002:0000c8ac       $unwind$?SetHeight@Canvas@@SAXV?$Local@VString@v8@@@v8@@V?$Local@VValue@v8@@@3@AEBV?$PropertyCallbackInfo@X@Nan@@@Z 000000018003a8ac     Canvas.obj
 0002:0000c8ac       $unwind$?SetWidth@Canvas@@SAXV?$Local@VString@v8@@@v8@@V?$Local@VValue@v8@@@3@AEBV?$PropertyCallbackInfo@X@Nan@@@Z 000000018003a8ac     Canvas.obj
 0002:0000c8b4       $chain$0$?SetWidth@Canvas@@SAXV?$Local@VString@v8@@@v8@@V?$Local@VValue@v8@@@3@AEBV?$PropertyCallbackInfo@X@Nan@@@Z 000000018003a8b4     Canvas.obj
 0002:0000c8c8       $chain$1$?SetWidth@Canvas@@SAXV?$Local@VString@v8@@@v8@@V?$Local@VValue@v8@@@3@AEBV?$PropertyCallbackInfo@X@Nan@@@Z 000000018003a8c8     Canvas.obj
 0002:0000c8d8       $chain$0$?SetHeight@Canvas@@SAXV?$Local@VString@v8@@@v8@@V?$Local@VValue@v8@@@3@AEBV?$PropertyCallbackInfo@X@Nan@@@Z 000000018003a8d8     Canvas.obj
 0002:0000c8ec       $chain$1$?SetHeight@Canvas@@SAXV?$Local@VString@v8@@@v8@@V?$Local@VValue@v8@@@3@AEBV?$PropertyCallbackInfo@X@Nan@@@Z 000000018003a8ec     Canvas.obj
 0002:0000c8fc       $unwind$?expand_if_necessary@?$argument_list@D@?A0xca0879c4@@AEAAHXZ 000000018003a8fc     libucrt:argv_wildcards.obj
 0002:0000c8fc       $unwind$__acrt_free_locale 000000018003a8fc     libucrt:locale_refcounting.obj
 0002:0000c8fc       $unwind$?_ExecutionInCatch@@YAHPEAU_xDISPATCHER_CONTEXT@@PEBU_s_FuncInfo@@@Z 000000018003a8fc     libvcruntime:trnsctrl.obj
 0002:0000c8fc       $unwind$_wassert           000000018003a8fc     libucrt:assert.obj
 0002:0000c8fc       $unwind$__vcrt_InitializeCriticalSectionEx 000000018003a8fc     libvcruntime:winapi_downlevel.obj
 0002:0000c8fc       $unwind$?setSBCS@@YAXPEAU__crt_multibyte_data@@@Z 000000018003a8fc     libucrt:mbctype.obj
 0002:0000c8fc       $unwind$?find_or_allocate_unused_stream_nolock@@YA?AV__crt_stdio_stream@@XZ 000000018003a8fc     libucrt:stream.obj
 0002:0000c8fc       $unwind$?toBuffer@@YA?AW4_cairo_status@@PEAXPEBEI@Z 000000018003a8fc     Canvas.obj
 0002:0000c8fc       $unwind$__acrt_InitializeCriticalSectionEx 000000018003a8fc     libucrt:winapi_thunks.obj
 0002:0000c8fc       $unwind$__acrt_lowio_create_handle_array 000000018003a8fc     libucrt:osfinfo.obj
 0002:0000c8fc       $unwind$__acrt_execute_initializers 000000018003a8fc     libucrt:shared_initialization.obj
 0002:0000c8fc       $unwind$??$ensure_buffer_is_big_enough@D@formatting_buffer@__crt_stdio_output@@QEAA_N_K@Z 000000018003a8fc     libucrt:output.obj
 0002:0000c8fc       $unwind$?dllmain_raw@@YAHQEAUHINSTANCE__@@KQEAX@Z 000000018003a8fc     LIBCMT:dll_dllmain.obj
 0002:0000c8fc       $unwind$_recalloc_base     000000018003a8fc     libucrt:recalloc.obj
 0002:0000c8fc       $unwind$_seh_filter_exe    000000018003a8fc     libucrt:exception_filter.obj
 0002:0000c8fc       $unwind$__scrt_dllmain_exception_filter 000000018003a8fc     LIBCMT:utility.obj
 0002:0000c910       $unwind$?ToBufferAsyncAfter@Canvas@@SAXPEAUuv_work_s@@@Z 000000018003a910     Canvas.obj
 0002:0000c928       $stateUnwindMap$?ToBufferAsyncAfter@Canvas@@SAXPEAUuv_work_s@@@Z 000000018003a928     Canvas.obj
 0002:0000c940       $ip2state$?ToBufferAsyncAfter@Canvas@@SAXPEAUuv_work_s@@@Z 000000018003a940     Canvas.obj
 0002:0000c968       $unwind$?ToBuffer@Canvas@@SAXAEBV?$FunctionCallbackInfo@VValue@v8@@@Nan@@@Z 000000018003a968     Canvas.obj
 0002:0000c98c       $stateUnwindMap$?ToBuffer@Canvas@@SAXAEBV?$FunctionCallbackInfo@VValue@v8@@@Nan@@@Z 000000018003a98c     Canvas.obj
 0002:0000c9a0       $ip2state$?ToBuffer@Canvas@@SAXAEBV?$FunctionCallbackInfo@VValue@v8@@@Nan@@@Z 000000018003a9a0     Canvas.obj
 0002:0000c9d8       $unwind$?streamPNG@@YA?AW4_cairo_status@@PEAXPEBEI@Z 000000018003a9d8     Canvas.obj
 0002:0000c9fc       $stateUnwindMap$?streamPNG@@YA?AW4_cairo_status@@PEAXPEBEI@Z 000000018003a9fc     Canvas.obj
 0002:0000c9fc       $stateUnwindMap$?streamPDF@@YA?AW4_cairo_status@@PEAXPEBEI@Z 000000018003a9fc     Canvas.obj
 0002:0000c9fc       $stateUnwindMap$?SetSource@Image@@SAXV?$Local@VString@v8@@@v8@@V?$Local@VValue@v8@@@3@AEBV?$PropertyCallbackInfo@X@Nan@@@Z 000000018003a9fc     Image.obj
 0002:0000ca08       $ip2state$?streamPNG@@YA?AW4_cairo_status@@PEAXPEBEI@Z 000000018003aa08     Canvas.obj
 0002:0000ca20       $unwind$?StreamPNGSync@Canvas@@SAXAEBV?$FunctionCallbackInfo@VValue@v8@@@Nan@@@Z 000000018003aa20     Canvas.obj
 0002:0000ca48       $stateUnwindMap$?StreamPNGSync@Canvas@@SAXAEBV?$FunctionCallbackInfo@VValue@v8@@@Nan@@@Z 000000018003aa48     Canvas.obj
 0002:0000ca50       $ip2state$?StreamPNGSync@Canvas@@SAXAEBV?$FunctionCallbackInfo@VValue@v8@@@Nan@@@Z 000000018003aa50     Canvas.obj
 0002:0000ca68       $unwind$?streamPDF@@YA?AW4_cairo_status@@PEAXPEBEI@Z 000000018003aa68     Canvas.obj
 0002:0000ca90       $ip2state$?streamPDF@@YA?AW4_cairo_status@@PEAXPEBEI@Z 000000018003aa90     Canvas.obj
 0002:0000caa8       $unwind$?StreamPDFSync@Canvas@@SAXAEBV?$FunctionCallbackInfo@VValue@v8@@@Nan@@@Z 000000018003aaa8     Canvas.obj
 0002:0000cad0       $stateUnwindMap$?StreamPDFSync@Canvas@@SAXAEBV?$FunctionCallbackInfo@VValue@v8@@@Nan@@@Z 000000018003aad0     Canvas.obj
 0002:0000cad8       $ip2state$?StreamPDFSync@Canvas@@SAXAEBV?$FunctionCallbackInfo@VValue@v8@@@Nan@@@Z 000000018003aad8     Canvas.obj
 0002:0000caf0       $unwind$??0Canvas@@QEAA@HHW4canvas_type_t@@@Z 000000018003aaf0     Canvas.obj
 0002:0000cb0c       $stateUnwindMap$??0Canvas@@QEAA@HHW4canvas_type_t@@@Z 000000018003ab0c     Canvas.obj
 0002:0000cb18       $ip2state$??0Canvas@@QEAA@HHW4canvas_type_t@@@Z 000000018003ab18     Canvas.obj
 0002:0000cb30       $unwind$??1Canvas@@EEAA@XZ 000000018003ab30     Canvas.obj
 0002:0000cb50       $ip2state$??1Canvas@@EEAA@XZ 000000018003ab50     Canvas.obj
 0002:0000cb58       $unwind$?resurface@Canvas@@QEAAXV?$Local@VObject@v8@@@v8@@@Z 000000018003ab58     Canvas.obj
 0002:0000cb70       $ip2state$?resurface@Canvas@@QEAAXV?$Local@VObject@v8@@@v8@@@Z 000000018003ab70     Canvas.obj
 0002:0000cb88       $unwind$??$Unwrap@VImage@@@ObjectWrap@Nan@@SAPEAVImage@@V?$Local@VObject@v8@@@v8@@@Z 000000018003ab88     CanvasPattern.obj
 0002:0000cb88       $unwind$??$Unwrap@VCanvas@@@ObjectWrap@Nan@@SAPEAVCanvas@@V?$Local@VObject@v8@@@v8@@@Z 000000018003ab88     Canvas.obj
 0002:0000cb88       $unwind$??$Unwrap@VContext2d@@@ObjectWrap@Nan@@SAPEAVContext2d@@V?$Local@VObject@v8@@@v8@@@Z 000000018003ab88     Canvas.obj
 0002:0000cb88       $unwind$??$Unwrap@VPattern@@@ObjectWrap@Nan@@SAPEAVPattern@@V?$Local@VObject@v8@@@v8@@@Z 000000018003ab88     CanvasRenderingContext2d.obj
 0002:0000cb88       $unwind$??$Unwrap@VGradient@@@ObjectWrap@Nan@@SAPEAVGradient@@V?$Local@VObject@v8@@@v8@@@Z 000000018003ab88     CanvasGradient.obj
 0002:0000cb88       $unwind$??$Unwrap@VImageData@@@ObjectWrap@Nan@@SAPEAVImageData@@V?$Local@VObject@v8@@@v8@@@Z 000000018003ab88     CanvasRenderingContext2d.obj
 0002:0000cb90       $unwind$??__F?constructor@Gradient@@2V?$Persistent@VFunctionTemplate@v8@@V?$NonCopyablePersistentTraits@VFunctionTemplate@v8@@@2@@Nan@@A@@YAXXZ 000000018003ab90     CanvasGradient.obj
 0002:0000cba0       $ip2state$??__F?constructor@Gradient@@2V?$Persistent@VFunctionTemplate@v8@@V?$NonCopyablePersistentTraits@VFunctionTemplate@v8@@@2@@Nan@@A@@YAXXZ 000000018003aba0     CanvasGradient.obj
 0002:0000cba8       $unwind$?Initialize@Gradient@@SAXV?$Local@VObject@v8@@@v8@@@Z 000000018003aba8     CanvasGradient.obj
 0002:0000cbb8       $ip2state$?Initialize@Gradient@@SAXV?$Local@VObject@v8@@@v8@@@Z 000000018003abb8     CanvasGradient.obj
 0002:0000cbd0       $unwind$?New@Gradient@@SAXAEBV?$FunctionCallbackInfo@VValue@v8@@@Nan@@@Z 000000018003abd0     CanvasGradient.obj
 0002:0000cc08       $stateUnwindMap$?New@Gradient@@SAXAEBV?$FunctionCallbackInfo@VValue@v8@@@Nan@@@Z 000000018003ac08     CanvasGradient.obj
 0002:0000cc18       $ip2state$?New@Gradient@@SAXAEBV?$FunctionCallbackInfo@VValue@v8@@@Nan@@@Z 000000018003ac18     CanvasGradient.obj
 0002:0000cc40       $unwind$?AddColorStop@Gradient@@SAXAEBV?$FunctionCallbackInfo@VValue@v8@@@Nan@@@Z 000000018003ac40     CanvasGradient.obj
 0002:0000cc68       $stateUnwindMap$?AddColorStop@Gradient@@SAXAEBV?$FunctionCallbackInfo@VValue@v8@@@Nan@@@Z 000000018003ac68     CanvasGradient.obj
 0002:0000cc70       $ip2state$?AddColorStop@Gradient@@SAXAEBV?$FunctionCallbackInfo@VValue@v8@@@Nan@@@Z 000000018003ac70     CanvasGradient.obj
 0002:0000cc98       $unwind$?ThrowError@Nan@@YAXPEBD@Z 000000018003ac98     CanvasPattern.obj
 0002:0000cca8       $ip2state$?ThrowError@Nan@@YAXPEBD@Z 000000018003aca8     CanvasPattern.obj
 0002:0000ccc0       $unwind$??__F?constructor@Pattern@@2V?$Persistent@VFunctionTemplate@v8@@V?$NonCopyablePersistentTraits@VFunctionTemplate@v8@@@2@@Nan@@A@@YAXXZ 000000018003acc0     CanvasPattern.obj
 0002:0000ccd0       $ip2state$??__F?constructor@Pattern@@2V?$Persistent@VFunctionTemplate@v8@@V?$NonCopyablePersistentTraits@VFunctionTemplate@v8@@@2@@Nan@@A@@YAXXZ 000000018003acd0     CanvasPattern.obj
 0002:0000ccd8       $unwind$?Initialize@Pattern@@SAXV?$Local@VObject@v8@@@v8@@@Z 000000018003acd8     CanvasPattern.obj
 0002:0000ccf0       $ip2state$?Initialize@Pattern@@SAXV?$Local@VObject@v8@@@v8@@@Z 000000018003acf0     CanvasPattern.obj
 0002:0000cd08       $unwind$?SetFillPattern@Context2d@@SAXAEBV?$FunctionCallbackInfo@VValue@v8@@@Nan@@@Z 000000018003ad08     CanvasRenderingContext2d.obj
 0002:0000cd08       $unwind$?New@Pattern@@SAXAEBV?$FunctionCallbackInfo@VValue@v8@@@Nan@@@Z 000000018003ad08     CanvasPattern.obj
 0002:0000cd08       $unwind$?SetStrokePattern@Context2d@@SAXAEBV?$FunctionCallbackInfo@VValue@v8@@@Nan@@@Z 000000018003ad08     CanvasRenderingContext2d.obj
 0002:0000cd10       $chain$1$?New@Pattern@@SAXAEBV?$FunctionCallbackInfo@VValue@v8@@@Nan@@@Z 000000018003ad10     CanvasPattern.obj
 0002:0000cd28       $chain$5$?New@Pattern@@SAXAEBV?$FunctionCallbackInfo@VValue@v8@@@Nan@@@Z 000000018003ad28     CanvasPattern.obj
 0002:0000cd28       $chain$7$?New@Pattern@@SAXAEBV?$FunctionCallbackInfo@VValue@v8@@@Nan@@@Z 000000018003ad28     CanvasPattern.obj
 0002:0000cd28       $chain$3$?New@Pattern@@SAXAEBV?$FunctionCallbackInfo@VValue@v8@@@Nan@@@Z 000000018003ad28     CanvasPattern.obj
 0002:0000cd40       $unwind$?NewInstance@Nan@@YA?AV?$MaybeLocal@VObject@v8@@@v8@@V?$Local@VFunction@v8@@@3@HQEAV?$Local@VValue@v8@@@3@@Z 000000018003ad40     CanvasRenderingContext2d.obj
 0002:0000cd58       $ip2state$?NewInstance@Nan@@YA?AV?$MaybeLocal@VObject@v8@@@v8@@V?$Local@VFunction@v8@@@3@HQEAV?$Local@VValue@v8@@@3@@Z 000000018003ad58     CanvasRenderingContext2d.obj
 0002:0000cd70       $unwind$?GetFunction@Nan@@YA?AV?$MaybeLocal@VFunction@v8@@@v8@@V?$Local@VFunctionTemplate@v8@@@3@@Z 000000018003ad70     CanvasRenderingContext2d.obj
 0002:0000cd88       $ip2state$?GetFunction@Nan@@YA?AV?$MaybeLocal@VFunction@v8@@@v8@@V?$Local@VFunctionTemplate@v8@@@3@@Z 000000018003ad88     CanvasRenderingContext2d.obj
 0002:0000cda0       $unwind$?convert@?$ToFactory@VInt32@v8@@@imp@Nan@@SA?AV?$MaybeLocal@VInt32@v8@@@v8@@V?$Local@VValue@v8@@@5@@Z 000000018003ada0     CanvasRenderingContext2d.obj
 0002:0000cdb8       $ip2state$?convert@?$ToFactory@VInt32@v8@@@imp@Nan@@SA?AV?$MaybeLocal@VInt32@v8@@@v8@@V?$Local@VValue@v8@@@5@@Z 000000018003adb8     CanvasRenderingContext2d.obj
 0002:0000cdd0       $unwind$??__F?constructor@Context2d@@2V?$Persistent@VFunctionTemplate@v8@@V?$NonCopyablePersistentTraits@VFunctionTemplate@v8@@@2@@Nan@@A@@YAXXZ 000000018003add0     CanvasRenderingContext2d.obj
 0002:0000cde0       $ip2state$??__F?constructor@Context2d@@2V?$Persistent@VFunctionTemplate@v8@@V?$NonCopyablePersistentTraits@VFunctionTemplate@v8@@@2@@Nan@@A@@YAXXZ 000000018003ade0     CanvasRenderingContext2d.obj
 0002:0000cde8       $unwind$?Initialize@Context2d@@SAXV?$Local@VObject@v8@@@v8@@@Z 000000018003ade8     CanvasRenderingContext2d.obj
 0002:0000ce08       $ip2state$?Initialize@Context2d@@SAXV?$Local@VObject@v8@@@v8@@@Z 000000018003ae08     CanvasRenderingContext2d.obj
 0002:0000ce40       $unwind$?shadow@Context2d@@QEAAXP6AXPEAU_cairo@@@Z@Z 000000018003ae40     CanvasRenderingContext2d.obj
 0002:0000ce58       $chain$3$?shadow@Context2d@@QEAAXP6AXPEAU_cairo@@@Z@Z 000000018003ae58     CanvasRenderingContext2d.obj
 0002:0000ce78       $chain$4$?shadow@Context2d@@QEAAXP6AXPEAU_cairo@@@Z@Z 000000018003ae78     CanvasRenderingContext2d.obj
 0002:0000ce88       $unwind$?blur@Context2d@@QEAAXPEAU_cairo_surface@@H@Z 000000018003ae88     CanvasRenderingContext2d.obj
 0002:0000cea0       $unwind$?New@Context2d@@SAXAEBV?$FunctionCallbackInfo@VValue@v8@@@Nan@@@Z 000000018003aea0     CanvasRenderingContext2d.obj
 0002:0000cea8       $chain$0$?New@Context2d@@SAXAEBV?$FunctionCallbackInfo@VValue@v8@@@Nan@@@Z 000000018003aea8     CanvasRenderingContext2d.obj
 0002:0000cebc       $chain$4$?New@Context2d@@SAXAEBV?$FunctionCallbackInfo@VValue@v8@@@Nan@@@Z 000000018003aebc     CanvasRenderingContext2d.obj
 0002:0000cebc       $chain$2$?New@Context2d@@SAXAEBV?$FunctionCallbackInfo@VValue@v8@@@Nan@@@Z 000000018003aebc     CanvasRenderingContext2d.obj
 0002:0000ced0       $unwind$?PutImageData@Context2d@@SAXAEBV?$FunctionCallbackInfo@VValue@v8@@@Nan@@@Z 000000018003aed0     CanvasRenderingContext2d.obj
 0002:0000ced8       $chain$0$?PutImageData@Context2d@@SAXAEBV?$FunctionCallbackInfo@VValue@v8@@@Nan@@@Z 000000018003aed8     CanvasRenderingContext2d.obj
 0002:0000ceec       $chain$8$?PutImageData@Context2d@@SAXAEBV?$FunctionCallbackInfo@VValue@v8@@@Nan@@@Z 000000018003aeec     CanvasRenderingContext2d.obj
 0002:0000cf18       $unwind$?GetImageData@Context2d@@SAXAEBV?$FunctionCallbackInfo@VValue@v8@@@Nan@@@Z 000000018003af18     CanvasRenderingContext2d.obj
 0002:0000cf34       $chain$1$?GetImageData@Context2d@@SAXAEBV?$FunctionCallbackInfo@VValue@v8@@@Nan@@@Z 000000018003af34     CanvasRenderingContext2d.obj
 0002:0000cf4c       $chain$2$?GetImageData@Context2d@@SAXAEBV?$FunctionCallbackInfo@VValue@v8@@@Nan@@@Z 000000018003af4c     CanvasRenderingContext2d.obj
 0002:0000cf5c       $unwind$?DrawImage@Context2d@@SAXAEBV?$FunctionCallbackInfo@VValue@v8@@@Nan@@@Z 000000018003af5c     CanvasRenderingContext2d.obj
 0002:0000cf68       $chain$4$?DrawImage@Context2d@@SAXAEBV?$FunctionCallbackInfo@VValue@v8@@@Nan@@@Z 000000018003af68     CanvasRenderingContext2d.obj
 0002:0000cf8c       $chain$12$?DrawImage@Context2d@@SAXAEBV?$FunctionCallbackInfo@VValue@v8@@@Nan@@@Z 000000018003af8c     CanvasRenderingContext2d.obj
 0002:0000cfbc       $chain$13$?DrawImage@Context2d@@SAXAEBV?$FunctionCallbackInfo@VValue@v8@@@Nan@@@Z 000000018003afbc     CanvasRenderingContext2d.obj
 0002:0000cfcc       $chain$15$?DrawImage@Context2d@@SAXAEBV?$FunctionCallbackInfo@VValue@v8@@@Nan@@@Z 000000018003afcc     CanvasRenderingContext2d.obj
 0002:0000d010       $chain$17$?DrawImage@Context2d@@SAXAEBV?$FunctionCallbackInfo@VValue@v8@@@Nan@@@Z 000000018003b010     CanvasRenderingContext2d.obj
 0002:0000d028       $chain$19$?DrawImage@Context2d@@SAXAEBV?$FunctionCallbackInfo@VValue@v8@@@Nan@@@Z 000000018003b028     CanvasRenderingContext2d.obj
 0002:0000d04c       $chain$20$?DrawImage@Context2d@@SAXAEBV?$FunctionCallbackInfo@VValue@v8@@@Nan@@@Z 000000018003b04c     CanvasRenderingContext2d.obj
 0002:0000d05c       $unwind$?SetGlobalAlpha@Context2d@@SAXV?$Local@VString@v8@@@v8@@V?$Local@VValue@v8@@@3@AEBV?$PropertyCallbackInfo@X@Nan@@@Z 000000018003b05c     CanvasRenderingContext2d.obj
 0002:0000d05c       $unwind$?SetMiterLimit@Context2d@@SAXV?$Local@VString@v8@@@v8@@V?$Local@VValue@v8@@@3@AEBV?$PropertyCallbackInfo@X@Nan@@@Z 000000018003b05c     CanvasRenderingContext2d.obj
 0002:0000d05c       $unwind$?SetLineWidth@Context2d@@SAXV?$Local@VString@v8@@@v8@@V?$Local@VValue@v8@@@3@AEBV?$PropertyCallbackInfo@X@Nan@@@Z 000000018003b05c     CanvasRenderingContext2d.obj
 0002:0000d068       $unwind$?init@@YAXV?$Local@VObject@v8@@@v8@@@Z 000000018003b068     init.obj
 0002:0000d068       $unwind$?SetPatternQuality@Context2d@@SAXV?$Local@VString@v8@@@v8@@V?$Local@VValue@v8@@@3@AEBV?$PropertyCallbackInfo@X@Nan@@@Z 000000018003b068     CanvasRenderingContext2d.obj
 0002:0000d068       $unwind$?SetLineJoin@Context2d@@SAXV?$Local@VString@v8@@@v8@@V?$Local@VValue@v8@@@3@AEBV?$PropertyCallbackInfo@X@Nan@@@Z 000000018003b068     CanvasRenderingContext2d.obj
 0002:0000d068       $unwind$?SetLineCap@Context2d@@SAXV?$Local@VString@v8@@@v8@@V?$Local@VValue@v8@@@3@AEBV?$PropertyCallbackInfo@X@Nan@@@Z 000000018003b068     CanvasRenderingContext2d.obj
 0002:0000d070       $unwind$?SetGlobalCompositeOperation@Context2d@@SAXV?$Local@VString@v8@@@v8@@V?$Local@VValue@v8@@@3@AEBV?$PropertyCallbackInfo@X@Nan@@@Z 000000018003b070     CanvasRenderingContext2d.obj
 0002:0000d080       $unwind$__acrt_locale_free_lc_time_if_unreferenced 000000018003b080     libucrt:locale_refcounting.obj
 0002:0000d080       $unwind$?destroy_fls@@YAXPEAX@Z 000000018003b080     libucrt:per_thread_data.obj
 0002:0000d080       $unwind$?SetShadowOffsetX@Context2d@@SAXV?$Local@VString@v8@@@v8@@V?$Local@VValue@v8@@@3@AEBV?$PropertyCallbackInfo@X@Nan@@@Z 000000018003b080     CanvasRenderingContext2d.obj
 0002:0000d080       $unwind$?SetShadowOffsetY@Context2d@@SAXV?$Local@VString@v8@@@v8@@V?$Local@VValue@v8@@@3@AEBV?$PropertyCallbackInfo@X@Nan@@@Z 000000018003b080     CanvasRenderingContext2d.obj
 0002:0000d080       $unwind$?SetDataMode@Image@@SAXV?$Local@VString@v8@@@v8@@V?$Local@VValue@v8@@@3@AEBV?$PropertyCallbackInfo@X@Nan@@@Z 000000018003b080     Image.obj
 0002:0000d080       $unwind$_free_base         000000018003b080     libucrt:free_base.obj
 0002:0000d080       $unwind$__acrt_locale_free_numeric 000000018003b080     libucrt:initnum.obj
 0002:0000d088       $unwind$?SetAntiAlias@Context2d@@SAXV?$Local@VString@v8@@@v8@@V?$Local@VValue@v8@@@3@AEBV?$PropertyCallbackInfo@X@Nan@@@Z 000000018003b088     CanvasRenderingContext2d.obj
 0002:0000d098       $stateUnwindMap$?SetFillColor@Context2d@@SAXAEBV?$FunctionCallbackInfo@VValue@v8@@@Nan@@@Z 000000018003b098     CanvasRenderingContext2d.obj
 0002:0000d098       $stateUnwindMap$?StrokeText@Context2d@@SAXAEBV?$FunctionCallbackInfo@VValue@v8@@@Nan@@@Z 000000018003b098     CanvasRenderingContext2d.obj
 0002:0000d098       $stateUnwindMap$?SetFilter@Context2d@@SAXV?$Local@VString@v8@@@v8@@V?$Local@VValue@v8@@@3@AEBV?$PropertyCallbackInfo@X@Nan@@@Z 000000018003b098     CanvasRenderingContext2d.obj
 0002:0000d098       $stateUnwindMap$?SetTextDrawingMode@Context2d@@SAXV?$Local@VString@v8@@@v8@@V?$Local@VValue@v8@@@3@AEBV?$PropertyCallbackInfo@X@Nan@@@Z 000000018003b098     CanvasRenderingContext2d.obj
 0002:0000d098       $stateUnwindMap$?SetAntiAlias@Context2d@@SAXV?$Local@VString@v8@@@v8@@V?$Local@VValue@v8@@@3@AEBV?$PropertyCallbackInfo@X@Nan@@@Z 000000018003b098     CanvasRenderingContext2d.obj
 0002:0000d098       $stateUnwindMap$?SetShadowColor@Context2d@@SAXV?$Local@VString@v8@@@v8@@V?$Local@VValue@v8@@@3@AEBV?$PropertyCallbackInfo@X@Nan@@@Z 000000018003b098     CanvasRenderingContext2d.obj
 0002:0000d098       $stateUnwindMap$?FillText@Context2d@@SAXAEBV?$FunctionCallbackInfo@VValue@v8@@@Nan@@@Z 000000018003b098     CanvasRenderingContext2d.obj
 0002:0000d098       $stateUnwindMap$?SetStrokeColor@Context2d@@SAXAEBV?$FunctionCallbackInfo@VValue@v8@@@Nan@@@Z 000000018003b098     CanvasRenderingContext2d.obj
 0002:0000d0a0       $ip2state$?SetAntiAlias@Context2d@@SAXV?$Local@VString@v8@@@v8@@V?$Local@VValue@v8@@@3@AEBV?$PropertyCallbackInfo@X@Nan@@@Z 000000018003b0a0     CanvasRenderingContext2d.obj
 0002:0000d0b8       $unwind$?SetTextDrawingMode@Context2d@@SAXV?$Local@VString@v8@@@v8@@V?$Local@VValue@v8@@@3@AEBV?$PropertyCallbackInfo@X@Nan@@@Z 000000018003b0b8     CanvasRenderingContext2d.obj
 0002:0000d0c8       $ip2state$?SetTextDrawingMode@Context2d@@SAXV?$Local@VString@v8@@@v8@@V?$Local@VValue@v8@@@3@AEBV?$PropertyCallbackInfo@X@Nan@@@Z 000000018003b0c8     CanvasRenderingContext2d.obj
 0002:0000d0e0       $unwind$?SetFilter@Context2d@@SAXV?$Local@VString@v8@@@v8@@V?$Local@VValue@v8@@@3@AEBV?$PropertyCallbackInfo@X@Nan@@@Z 000000018003b0e0     CanvasRenderingContext2d.obj
 0002:0000d0f8       $ip2state$?SetFilter@Context2d@@SAXV?$Local@VString@v8@@@v8@@V?$Local@VValue@v8@@@3@AEBV?$PropertyCallbackInfo@X@Nan@@@Z 000000018003b0f8     CanvasRenderingContext2d.obj
 0002:0000d110       $unwind$isdigit            000000018003b110     libucrt:_ctype.obj
 0002:0000d110       $unwind$_isleadbyte_l      000000018003b110     libucrt:_wctype.obj
 0002:0000d110       $unwind$?getSystemCP@@YAHH@Z 000000018003b110     libucrt:mbctype.obj
 0002:0000d110       $unwind$?IsPointInPath@Context2d@@SAXAEBV?$FunctionCallbackInfo@VValue@v8@@@Nan@@@Z 000000018003b110     CanvasRenderingContext2d.obj
 0002:0000d118       $chain$3$?IsPointInPath@Context2d@@SAXAEBV?$FunctionCallbackInfo@VValue@v8@@@Nan@@@Z 000000018003b118     CanvasRenderingContext2d.obj
 0002:0000d138       $chain$4$?IsPointInPath@Context2d@@SAXAEBV?$FunctionCallbackInfo@VValue@v8@@@Nan@@@Z 000000018003b138     CanvasRenderingContext2d.obj
 0002:0000d148       $chain$1$?SetFillPattern@Context2d@@SAXAEBV?$FunctionCallbackInfo@VValue@v8@@@Nan@@@Z 000000018003b148     CanvasRenderingContext2d.obj
 0002:0000d160       $chain$3$?SetFillPattern@Context2d@@SAXAEBV?$FunctionCallbackInfo@VValue@v8@@@Nan@@@Z 000000018003b160     CanvasRenderingContext2d.obj
 0002:0000d160       $chain$5$?SetFillPattern@Context2d@@SAXAEBV?$FunctionCallbackInfo@VValue@v8@@@Nan@@@Z 000000018003b160     CanvasRenderingContext2d.obj
 0002:0000d178       $chain$1$?SetStrokePattern@Context2d@@SAXAEBV?$FunctionCallbackInfo@VValue@v8@@@Nan@@@Z 000000018003b178     CanvasRenderingContext2d.obj
 0002:0000d190       $chain$3$?SetStrokePattern@Context2d@@SAXAEBV?$FunctionCallbackInfo@VValue@v8@@@Nan@@@Z 000000018003b190     CanvasRenderingContext2d.obj
 0002:0000d190       $chain$5$?SetStrokePattern@Context2d@@SAXAEBV?$FunctionCallbackInfo@VValue@v8@@@Nan@@@Z 000000018003b190     CanvasRenderingContext2d.obj
 0002:0000d1a8       $unwind$?SetShadowColor@Context2d@@SAXV?$Local@VString@v8@@@v8@@V?$Local@VValue@v8@@@3@AEBV?$PropertyCallbackInfo@X@Nan@@@Z 000000018003b1a8     CanvasRenderingContext2d.obj
 0002:0000d1c0       $ip2state$?SetShadowColor@Context2d@@SAXV?$Local@VString@v8@@@v8@@V?$Local@VValue@v8@@@3@AEBV?$PropertyCallbackInfo@X@Nan@@@Z 000000018003b1c0     CanvasRenderingContext2d.obj
 0002:0000d1d8       $unwind$?GetFillColor@Context2d@@SAXV?$Local@VString@v8@@@v8@@AEBV?$PropertyCallbackInfo@VValue@v8@@@Nan@@@Z 000000018003b1d8     CanvasRenderingContext2d.obj
 0002:0000d1d8       $unwind$?GetStrokeColor@Context2d@@SAXV?$Local@VString@v8@@@v8@@AEBV?$PropertyCallbackInfo@VValue@v8@@@Nan@@@Z 000000018003b1d8     CanvasRenderingContext2d.obj
 0002:0000d1d8       $unwind$?GetShadowColor@Context2d@@SAXV?$Local@VString@v8@@@v8@@AEBV?$PropertyCallbackInfo@VValue@v8@@@Nan@@@Z 000000018003b1d8     CanvasRenderingContext2d.obj
 0002:0000d1f0       $unwind$?SetFillColor@Context2d@@SAXAEBV?$FunctionCallbackInfo@VValue@v8@@@Nan@@@Z 000000018003b1f0     CanvasRenderingContext2d.obj
 0002:0000d208       $ip2state$?SetFillColor@Context2d@@SAXAEBV?$FunctionCallbackInfo@VValue@v8@@@Nan@@@Z 000000018003b208     CanvasRenderingContext2d.obj
 0002:0000d220       $unwind$?SetStrokeColor@Context2d@@SAXAEBV?$FunctionCallbackInfo@VValue@v8@@@Nan@@@Z 000000018003b220     CanvasRenderingContext2d.obj
 0002:0000d238       $ip2state$?SetStrokeColor@Context2d@@SAXAEBV?$FunctionCallbackInfo@VValue@v8@@@Nan@@@Z 000000018003b238     CanvasRenderingContext2d.obj
 0002:0000d250       $unwind$?BezierCurveTo@Context2d@@SAXAEBV?$FunctionCallbackInfo@VValue@v8@@@Nan@@@Z 000000018003b250     CanvasRenderingContext2d.obj
 0002:0000d25c       $chain$9$?BezierCurveTo@Context2d@@SAXAEBV?$FunctionCallbackInfo@VValue@v8@@@Nan@@@Z 000000018003b25c     CanvasRenderingContext2d.obj
 0002:0000d294       $chain$10$?BezierCurveTo@Context2d@@SAXAEBV?$FunctionCallbackInfo@VValue@v8@@@Nan@@@Z 000000018003b294     CanvasRenderingContext2d.obj
 0002:0000d2a4       $unwind$?QuadraticCurveTo@Context2d@@SAXAEBV?$FunctionCallbackInfo@VValue@v8@@@Nan@@@Z 000000018003b2a4     CanvasRenderingContext2d.obj
 0002:0000d2ac       $chain$4$?QuadraticCurveTo@Context2d@@SAXAEBV?$FunctionCallbackInfo@VValue@v8@@@Nan@@@Z 000000018003b2ac     CanvasRenderingContext2d.obj
 0002:0000d2d0       $chain$5$?QuadraticCurveTo@Context2d@@SAXAEBV?$FunctionCallbackInfo@VValue@v8@@@Nan@@@Z 000000018003b2d0     CanvasRenderingContext2d.obj
 0002:0000d2e0       $unwind$?Transform@Context2d@@SAXAEBV?$FunctionCallbackInfo@VValue@v8@@@Nan@@@Z 000000018003b2e0     CanvasRenderingContext2d.obj
 0002:0000d30c       $unwind$?Translate@Context2d@@SAXAEBV?$FunctionCallbackInfo@VValue@v8@@@Nan@@@Z 000000018003b30c     CanvasRenderingContext2d.obj
 0002:0000d30c       $unwind$?Scale@Context2d@@SAXAEBV?$FunctionCallbackInfo@VValue@v8@@@Nan@@@Z 000000018003b30c     CanvasRenderingContext2d.obj
 0002:0000d320       $unwind$?FillText@Context2d@@SAXAEBV?$FunctionCallbackInfo@VValue@v8@@@Nan@@@Z 000000018003b320     CanvasRenderingContext2d.obj
 0002:0000d338       $ip2state$?FillText@Context2d@@SAXAEBV?$FunctionCallbackInfo@VValue@v8@@@Nan@@@Z 000000018003b338     CanvasRenderingContext2d.obj
 0002:0000d350       $unwind$?StrokeText@Context2d@@SAXAEBV?$FunctionCallbackInfo@VValue@v8@@@Nan@@@Z 000000018003b350     CanvasRenderingContext2d.obj
 0002:0000d368       $ip2state$?StrokeText@Context2d@@SAXAEBV?$FunctionCallbackInfo@VValue@v8@@@Nan@@@Z 000000018003b368     CanvasRenderingContext2d.obj
 0002:0000d380       $unwind$?setTextPath@Context2d@@QEAAXPEBDNN@Z 000000018003b380     CanvasRenderingContext2d.obj
 0002:0000d39c       $unwind$?LineTo@Context2d@@SAXAEBV?$FunctionCallbackInfo@VValue@v8@@@Nan@@@Z 000000018003b39c     CanvasRenderingContext2d.obj
 0002:0000d39c       $unwind$?MoveTo@Context2d@@SAXAEBV?$FunctionCallbackInfo@VValue@v8@@@Nan@@@Z 000000018003b39c     CanvasRenderingContext2d.obj
 0002:0000d3ac       $unwind$?SetFont@Context2d@@SAXAEBV?$FunctionCallbackInfo@VValue@v8@@@Nan@@@Z 000000018003b3ac     CanvasRenderingContext2d.obj
 0002:0000d3c8       $stateUnwindMap$?SetFont@Context2d@@SAXAEBV?$FunctionCallbackInfo@VValue@v8@@@Nan@@@Z 000000018003b3c8     CanvasRenderingContext2d.obj
 0002:0000d3f0       $ip2state$?SetFont@Context2d@@SAXAEBV?$FunctionCallbackInfo@VValue@v8@@@Nan@@@Z 000000018003b3f0     CanvasRenderingContext2d.obj
 0002:0000d438       $unwind$?MeasureText@Context2d@@SAXAEBV?$FunctionCallbackInfo@VValue@v8@@@Nan@@@Z 000000018003b438     CanvasRenderingContext2d.obj
 0002:0000d468       $stateUnwindMap$?MeasureText@Context2d@@SAXAEBV?$FunctionCallbackInfo@VValue@v8@@@Nan@@@Z 000000018003b468     CanvasRenderingContext2d.obj
 0002:0000d470       $ip2state$?MeasureText@Context2d@@SAXAEBV?$FunctionCallbackInfo@VValue@v8@@@Nan@@@Z 000000018003b470     CanvasRenderingContext2d.obj
 0002:0000d488       $chain$0$?SetTextBaseline@Context2d@@SAXAEBV?$FunctionCallbackInfo@VValue@v8@@@Nan@@@Z 000000018003b488     CanvasRenderingContext2d.obj
 0002:0000d49c       $chain$1$?SetTextBaseline@Context2d@@SAXAEBV?$FunctionCallbackInfo@VValue@v8@@@Nan@@@Z 000000018003b49c     CanvasRenderingContext2d.obj
 0002:0000d4ac       $chain$0$?SetTextAlignment@Context2d@@SAXAEBV?$FunctionCallbackInfo@VValue@v8@@@Nan@@@Z 000000018003b4ac     CanvasRenderingContext2d.obj
 0002:0000d4c0       $chain$1$?SetTextAlignment@Context2d@@SAXAEBV?$FunctionCallbackInfo@VValue@v8@@@Nan@@@Z 000000018003b4c0     CanvasRenderingContext2d.obj
 0002:0000d4d0       $unwind$?SetLineDash@Context2d@@SAXAEBV?$FunctionCallbackInfo@VValue@v8@@@Nan@@@Z 000000018003b4d0     CanvasRenderingContext2d.obj
 0002:0000d4f4       $stateUnwindMap$?SetLineDash@Context2d@@SAXAEBV?$FunctionCallbackInfo@VValue@v8@@@Nan@@@Z 000000018003b4f4     CanvasRenderingContext2d.obj
 0002:0000d4f4       $stateUnwindMap$?GetLineDash@Context2d@@SAXAEBV?$FunctionCallbackInfo@VValue@v8@@@Nan@@@Z 000000018003b4f4     CanvasRenderingContext2d.obj
 0002:0000d500       $ip2state$?SetLineDash@Context2d@@SAXAEBV?$FunctionCallbackInfo@VValue@v8@@@Nan@@@Z 000000018003b500     CanvasRenderingContext2d.obj
 0002:0000d518       $unwind$?GetLineDash@Context2d@@SAXAEBV?$FunctionCallbackInfo@VValue@v8@@@Nan@@@Z 000000018003b518     CanvasRenderingContext2d.obj
 0002:0000d540       $ip2state$?GetLineDash@Context2d@@SAXAEBV?$FunctionCallbackInfo@VValue@v8@@@Nan@@@Z 000000018003b540     CanvasRenderingContext2d.obj
 0002:0000d558       $unwind$?SetLineDashOffset@Context2d@@SAXV?$Local@VString@v8@@@v8@@V?$Local@VValue@v8@@@3@AEBV?$PropertyCallbackInfo@X@Nan@@@Z 000000018003b558     CanvasRenderingContext2d.obj
 0002:0000d564       $chain$4$?SetLineDashOffset@Context2d@@SAXV?$Local@VString@v8@@@v8@@V?$Local@VValue@v8@@@3@AEBV?$PropertyCallbackInfo@X@Nan@@@Z 000000018003b564     CanvasRenderingContext2d.obj
 0002:0000d588       $chain$5$?SetLineDashOffset@Context2d@@SAXV?$Local@VString@v8@@@v8@@V?$Local@VValue@v8@@@3@AEBV?$PropertyCallbackInfo@X@Nan@@@Z 000000018003b588     CanvasRenderingContext2d.obj
 0002:0000d598       $chain$6$?SetLineDashOffset@Context2d@@SAXV?$Local@VString@v8@@@v8@@V?$Local@VValue@v8@@@3@AEBV?$PropertyCallbackInfo@X@Nan@@@Z 000000018003b598     CanvasRenderingContext2d.obj
 0002:0000d5bc       $unwind$?Rect@Context2d@@SAXAEBV?$FunctionCallbackInfo@VValue@v8@@@Nan@@@Z 000000018003b5bc     CanvasRenderingContext2d.obj
 0002:0000d5bc       $unwind$?StrokeRect@Context2d@@SAXAEBV?$FunctionCallbackInfo@VValue@v8@@@Nan@@@Z 000000018003b5bc     CanvasRenderingContext2d.obj
 0002:0000d5bc       $unwind$?FillRect@Context2d@@SAXAEBV?$FunctionCallbackInfo@VValue@v8@@@Nan@@@Z 000000018003b5bc     CanvasRenderingContext2d.obj
 0002:0000d5bc       $unwind$?ClearRect@Context2d@@SAXAEBV?$FunctionCallbackInfo@VValue@v8@@@Nan@@@Z 000000018003b5bc     CanvasRenderingContext2d.obj
 0002:0000d5c4       $chain$3$?FillRect@Context2d@@SAXAEBV?$FunctionCallbackInfo@VValue@v8@@@Nan@@@Z 000000018003b5c4     CanvasRenderingContext2d.obj
 0002:0000d5e4       $chain$4$?FillRect@Context2d@@SAXAEBV?$FunctionCallbackInfo@VValue@v8@@@Nan@@@Z 000000018003b5e4     CanvasRenderingContext2d.obj
 0002:0000d5f8       $chain$5$?FillRect@Context2d@@SAXAEBV?$FunctionCallbackInfo@VValue@v8@@@Nan@@@Z 000000018003b5f8     CanvasRenderingContext2d.obj
 0002:0000d608       $chain$6$?FillRect@Context2d@@SAXAEBV?$FunctionCallbackInfo@VValue@v8@@@Nan@@@Z 000000018003b608     CanvasRenderingContext2d.obj
 0002:0000d618       $chain$3$?StrokeRect@Context2d@@SAXAEBV?$FunctionCallbackInfo@VValue@v8@@@Nan@@@Z 000000018003b618     CanvasRenderingContext2d.obj
 0002:0000d638       $chain$4$?StrokeRect@Context2d@@SAXAEBV?$FunctionCallbackInfo@VValue@v8@@@Nan@@@Z 000000018003b638     CanvasRenderingContext2d.obj
 0002:0000d64c       $chain$5$?StrokeRect@Context2d@@SAXAEBV?$FunctionCallbackInfo@VValue@v8@@@Nan@@@Z 000000018003b64c     CanvasRenderingContext2d.obj
 0002:0000d65c       $chain$6$?StrokeRect@Context2d@@SAXAEBV?$FunctionCallbackInfo@VValue@v8@@@Nan@@@Z 000000018003b65c     CanvasRenderingContext2d.obj
 0002:0000d66c       $chain$3$?ClearRect@Context2d@@SAXAEBV?$FunctionCallbackInfo@VValue@v8@@@Nan@@@Z 000000018003b66c     CanvasRenderingContext2d.obj
 0002:0000d68c       $chain$4$?ClearRect@Context2d@@SAXAEBV?$FunctionCallbackInfo@VValue@v8@@@Nan@@@Z 000000018003b68c     CanvasRenderingContext2d.obj
 0002:0000d6a0       $chain$5$?ClearRect@Context2d@@SAXAEBV?$FunctionCallbackInfo@VValue@v8@@@Nan@@@Z 000000018003b6a0     CanvasRenderingContext2d.obj
 0002:0000d6b0       $chain$6$?ClearRect@Context2d@@SAXAEBV?$FunctionCallbackInfo@VValue@v8@@@Nan@@@Z 000000018003b6b0     CanvasRenderingContext2d.obj
 0002:0000d6c0       $chain$3$?Rect@Context2d@@SAXAEBV?$FunctionCallbackInfo@VValue@v8@@@Nan@@@Z 000000018003b6c0     CanvasRenderingContext2d.obj
 0002:0000d6e0       $chain$4$?Rect@Context2d@@SAXAEBV?$FunctionCallbackInfo@VValue@v8@@@Nan@@@Z 000000018003b6e0     CanvasRenderingContext2d.obj
 0002:0000d6f0       $unwind$?Arc@Context2d@@SAXAEBV?$FunctionCallbackInfo@VValue@v8@@@Nan@@@Z 000000018003b6f0     CanvasRenderingContext2d.obj
 0002:0000d6f8       $chain$7$?Arc@Context2d@@SAXAEBV?$FunctionCallbackInfo@VValue@v8@@@Nan@@@Z 000000018003b6f8     CanvasRenderingContext2d.obj
 0002:0000d728       $chain$8$?Arc@Context2d@@SAXAEBV?$FunctionCallbackInfo@VValue@v8@@@Nan@@@Z 000000018003b728     CanvasRenderingContext2d.obj
 0002:0000d738       $unwind$?ArcTo@Context2d@@SAXAEBV?$FunctionCallbackInfo@VValue@v8@@@Nan@@@Z 000000018003b738     CanvasRenderingContext2d.obj
 0002:0000d744       $chain$8$?ArcTo@Context2d@@SAXAEBV?$FunctionCallbackInfo@VValue@v8@@@Nan@@@Z 000000018003b744     CanvasRenderingContext2d.obj
 0002:0000d778       $chain$9$?ArcTo@Context2d@@SAXAEBV?$FunctionCallbackInfo@VValue@v8@@@Nan@@@Z 000000018003b778     CanvasRenderingContext2d.obj
 0002:0000d78c       $chain$11$?ArcTo@Context2d@@SAXAEBV?$FunctionCallbackInfo@VValue@v8@@@Nan@@@Z 000000018003b78c     CanvasRenderingContext2d.obj
 0002:0000d7a4       $chain$12$?ArcTo@Context2d@@SAXAEBV?$FunctionCallbackInfo@VValue@v8@@@Nan@@@Z 000000018003b7a4     CanvasRenderingContext2d.obj
 0002:0000d7b4       $chain$13$?ArcTo@Context2d@@SAXAEBV?$FunctionCallbackInfo@VValue@v8@@@Nan@@@Z 000000018003b7b4     CanvasRenderingContext2d.obj
 0002:0000d7c4       $unwind$??0?$TypedArrayContents@E@Nan@@QEAA@V?$Local@VValue@v8@@@v8@@@Z 000000018003b7c4     CanvasRenderingContext2d.obj
 0002:0000d7e0       $ip2state$??0?$TypedArrayContents@E@Nan@@QEAA@V?$Local@VValue@v8@@@v8@@@Z 000000018003b7e0     CanvasRenderingContext2d.obj
 0002:0000d7f8       $unwind$swprintf           000000018003b7f8     libucrt:assert.obj
 0002:0000d7f8       $unwind$snprintf           000000018003b7f8     color.obj
 0002:0000d808       $unwind$?rgba_from_hsla@@YAHMMMM@Z 000000018003b808     color.obj
 0002:0000d83c       $unwind$?rgba_from_rgb_string@@YAHPEBDPEAF@Z 000000018003b83c     color.obj
 0002:0000d83c       $unwind$?rgba_from_rgba_string@@YAHPEBDPEAF@Z 000000018003b83c     color.obj
 0002:0000d848       $chain$0$?rgba_from_rgb_string@@YAHPEBDPEAF@Z 000000018003b848     color.obj
 0002:0000d85c       $chain$2$?rgba_from_rgb_string@@YAHPEBDPEAF@Z 000000018003b85c     color.obj
 0002:0000d870       $chain$3$?rgba_from_rgb_string@@YAHPEBDPEAF@Z 000000018003b870     color.obj
 0002:0000d880       $chain$0$?rgba_from_rgba_string@@YAHPEBDPEAF@Z 000000018003b880     color.obj
 0002:0000d894       $chain$2$?rgba_from_rgba_string@@YAHPEBDPEAF@Z 000000018003b894     color.obj
 0002:0000d8a8       $chain$3$?rgba_from_rgba_string@@YAHPEBDPEAF@Z 000000018003b8a8     color.obj
 0002:0000d8b8       $unwind$?type_case_a@?$output_processor@DV?$string_output_adapter@D@__crt_stdio_output@@V?$standard_base@DV?$string_output_adapter@D@__crt_stdio_output@@@2@@__crt_stdio_output@@AEAA_NXZ 000000018003b8b8     libucrt:output.obj
 0002:0000d8b8       $unwind$?rgba_from_hsla_string@@YAHPEBDPEAF@Z 000000018003b8b8     color.obj
 0002:0000d8c4       $chain$2$?rgba_from_hsla_string@@YAHPEBDPEAF@Z 000000018003b8c4     color.obj
 0002:0000d8e0       $chain$4$?rgba_from_hsla_string@@YAHPEBDPEAF@Z 000000018003b8e0     color.obj
 0002:0000d8fc       $chain$5$?rgba_from_hsla_string@@YAHPEBDPEAF@Z 000000018003b8fc     color.obj
 0002:0000d910       $chain$6$?rgba_from_hsla_string@@YAHPEBDPEAF@Z 000000018003b910     color.obj
 0002:0000d920       $unwind$?rgba_from_hsl_string@@YAHPEBDPEAF@Z 000000018003b920     color.obj
 0002:0000d92c       $chain$1$?rgba_from_hsl_string@@YAHPEBDPEAF@Z 000000018003b92c     color.obj
 0002:0000d944       $chain$3$?rgba_from_hsl_string@@YAHPEBDPEAF@Z 000000018003b944     color.obj
 0002:0000d95c       $chain$4$?rgba_from_hsl_string@@YAHPEBDPEAF@Z 000000018003b95c     color.obj
 0002:0000d96c       $unwind$?rgba_from_name_string@@YAHPEBDPEAF@Z 000000018003b96c     color.obj
 0002:0000d96c       $unwind$__acrt_initialize_fma3 000000018003b96c     libucrt:fma3_available.obj
 0002:0000d974       $unwind$??$parse_css_number@M@@YA_NPEAPEBDPEAM@Z 000000018003b974     color.obj
 0002:0000d980       $chain$1$??$parse_css_number@M@@YA_NPEAPEBDPEAM@Z 000000018003b980     color.obj
 0002:0000d998       $chain$3$??$parse_css_number@M@@YA_NPEAPEBDPEAM@Z 000000018003b998     color.obj
 0002:0000d9b0       $unwind$??__F?constructor@Image@@2V?$Persistent@VFunctionTemplate@v8@@V?$NonCopyablePersistentTraits@VFunctionTemplate@v8@@@2@@Nan@@A@@YAXXZ 000000018003b9b0     Image.obj
 0002:0000d9c0       $ip2state$??__F?constructor@Image@@2V?$Persistent@VFunctionTemplate@v8@@V?$NonCopyablePersistentTraits@VFunctionTemplate@v8@@@2@@Nan@@A@@YAXXZ 000000018003b9c0     Image.obj
 0002:0000d9c8       $unwind$?Initialize@Image@@SAXV?$Local@VObject@v8@@@v8@@@Z 000000018003b9c8     Image.obj
 0002:0000d9e4       $stateUnwindMap$?Initialize@Image@@SAXV?$Local@VObject@v8@@@v8@@@Z 000000018003b9e4     Image.obj
 0002:0000da10       $ip2state$?Initialize@Image@@SAXV?$Local@VObject@v8@@@v8@@@Z 000000018003ba10     Image.obj
 0002:0000da58       $unwind$?clearData@Image@@QEAAXXZ 000000018003ba58     Image.obj
 0002:0000da64       $chain$2$?clearData@Image@@QEAAXXZ 000000018003ba64     Image.obj
 0002:0000da80       $chain$3$?clearData@Image@@QEAAXXZ 000000018003ba80     Image.obj
 0002:0000da98       $chain$4$?clearData@Image@@QEAAXXZ 000000018003ba98     Image.obj
 0002:0000daa8       $unwind$?SetSource@Image@@SAXV?$Local@VString@v8@@@v8@@V?$Local@VValue@v8@@@3@AEBV?$PropertyCallbackInfo@X@Nan@@@Z 000000018003baa8     Image.obj
 0002:0000dac0       $ip2state$?SetSource@Image@@SAXV?$Local@VString@v8@@@v8@@V?$Local@VValue@v8@@@3@AEBV?$PropertyCallbackInfo@X@Nan@@@Z 000000018003bac0     Image.obj
 0002:0000dad8       $unwind$?SetOnload@Image@@SAXV?$Local@VString@v8@@@v8@@V?$Local@VValue@v8@@@3@AEBV?$PropertyCallbackInfo@X@Nan@@@Z 000000018003bad8     Image.obj
 0002:0000daf0       $stateUnwindMap$?SetOnerror@Image@@SAXV?$Local@VString@v8@@@v8@@V?$Local@VValue@v8@@@3@AEBV?$PropertyCallbackInfo@X@Nan@@@Z 000000018003baf0     Image.obj
 0002:0000daf0       $stateUnwindMap$?SetOnload@Image@@SAXV?$Local@VString@v8@@@v8@@V?$Local@VValue@v8@@@3@AEBV?$PropertyCallbackInfo@X@Nan@@@Z 000000018003baf0     Image.obj
 0002:0000daf8       $ip2state$?SetOnload@Image@@SAXV?$Local@VString@v8@@@v8@@V?$Local@VValue@v8@@@3@AEBV?$PropertyCallbackInfo@X@Nan@@@Z 000000018003baf8     Image.obj
 0002:0000db10       $unwind$?SetOnerror@Image@@SAXV?$Local@VString@v8@@@v8@@V?$Local@VValue@v8@@@3@AEBV?$PropertyCallbackInfo@X@Nan@@@Z 000000018003bb10     Image.obj
 0002:0000db28       $ip2state$?SetOnerror@Image@@SAXV?$Local@VString@v8@@@v8@@V?$Local@VValue@v8@@@3@AEBV?$PropertyCallbackInfo@X@Nan@@@Z 000000018003bb28     Image.obj
 0002:0000db40       $unwind$??1Image@@EEAA@XZ  000000018003bb40     Image.obj
 0002:0000db58       $stateUnwindMap$??1Image@@EEAA@XZ 000000018003bb58     Image.obj
 0002:0000db70       $ip2state$??1Image@@EEAA@XZ 000000018003bb70     Image.obj
 0002:0000db98       $unwind$?loaded@Image@@QEAAXXZ 000000018003bb98     Image.obj
 0002:0000dbb4       $stateUnwindMap$?loaded@Image@@QEAAXXZ 000000018003bbb4     Image.obj
 0002:0000dbc0       $ip2state$?loaded@Image@@QEAAXXZ 000000018003bbc0     Image.obj
 0002:0000dbd8       $unwind$?loadSurface@Image@@QEAA?AW4_cairo_status@@XZ 000000018003bbd8     Image.obj
 0002:0000dbec       $unwind$??__F?constructor@ImageData@@2V?$Persistent@VFunctionTemplate@v8@@V?$NonCopyablePersistentTraits@VFunctionTemplate@v8@@@2@@Nan@@A@@YAXXZ 000000018003bbec     ImageData.obj
 0002:0000dc00       $ip2state$??__F?constructor@ImageData@@2V?$Persistent@VFunctionTemplate@v8@@V?$NonCopyablePersistentTraits@VFunctionTemplate@v8@@@2@@Nan@@A@@YAXXZ 000000018003bc00     ImageData.obj
 0002:0000dc08       $unwind$?Initialize@ImageData@@SAXV?$Local@VObject@v8@@@v8@@@Z 000000018003bc08     ImageData.obj
 0002:0000dc28       $ip2state$?Initialize@ImageData@@SAXV?$Local@VObject@v8@@@v8@@@Z 000000018003bc28     ImageData.obj
 0002:0000dc60       $unwind$?New@ImageData@@SAXAEBV?$FunctionCallbackInfo@VValue@v8@@@Nan@@@Z 000000018003bc60     ImageData.obj
 0002:0000dc74       xdata                      000000018003bc74     node:node.exe
 0002:0000dc7c       $unwind$wcstol             000000018003bc7c     libucrt:strtox.obj
 0002:0000dc7c       $unwind$??0length_error@std@@QEAA@PEBD@Z 000000018003bc7c     libcpmt:xthrow.obj
 0002:0000dc7c       $unwind$??$common_xtox_s@K_W@@YAHKQEA_W_KI_N@Z 000000018003bc7c     libucrt:xtoa.obj
 0002:0000dc7c       $unwind$strtol             000000018003bc7c     libucrt:strtox.obj
 0002:0000dc88       $xdatasym                  000000018003bc88     LIBCMT:_amdsecgs_.obj
 0002:0000dc8c       $unwind$__scrt_is_nonwritable_in_current_image 000000018003bc8c     LIBCMT:utility.obj
 0002:0000dcac       $unwind$__scrt_is_nonwritable_in_current_image$filt$0 000000018003bcac     LIBCMT:utility.obj
 0002:0000dcb4       $unwind$__scrt_initialize_onexit_tables 000000018003bcb4     LIBCMT:utility.obj
 0002:0000dcc0       $unwind$?dllmain_crt_process_attach@@YAHQEAUHINSTANCE__@@QEAX@Z 000000018003bcc0     LIBCMT:dll_dllmain.obj
 0002:0000dcec       $unwind$?dllmain_crt_process_detach@@YAH_N@Z 000000018003bcec     LIBCMT:dll_dllmain.obj
 0002:0000dd14       $unwind$?dllmain_dispatch@@YAHQEAUHINSTANCE__@@KQEAX@Z 000000018003bd14     LIBCMT:dll_dllmain.obj
 0002:0000dd3c       $unwind$fread_s$fin$0      000000018003bd3c     libucrt:fread.obj
 0002:0000dd3c       $unwind$?filt$0@?0??dllmain_dispatch@@YAHQEAUHINSTANCE__@@KQEAX@Z@4HA 000000018003bd3c     LIBCMT:dll_dllmain.obj
 0002:0000dd44       $unwind$__report_securityfailure 000000018003bd44     LIBCMT:gs_report.obj
 0002:0000dd4c       $unwind$capture_current_context 000000018003bd4c     LIBCMT:gs_report.obj
 0002:0000dd58       $unwind$capture_previous_context 000000018003bd58     LIBCMT:gs_report.obj
 0002:0000dd64       $unwind$__isa_available_init 000000018003bd64     LIBCMT:_cpu_disp_.obj
 0002:0000dd74       $unwind$__scrt_fastfail    000000018003bd74     LIBCMT:utility_desktop.obj
 0002:0000dd84       $unwind$__security_init_cookie 000000018003bd84     LIBCMT:gs_support.obj
 0002:0000dd90       $xdatasym                  000000018003bd90     LIBCMT:_guard_dispatch_.obj
 0002:0000dd94       $unwind$__CxxCallCatchBlock 000000018003bd94     libvcruntime:frame.obj
 0002:0000ddd0       $unwind$__CxxCallCatchBlock$fin$1 000000018003bdd0     libvcruntime:frame.obj
 0002:0000dddc       $unwind$__FrameUnwindToState 000000018003bddc     libvcruntime:frame.obj
 0002:0000de18       $unwind$?FindHandler@@YAXPEAUEHExceptionRecord@@PEA_KPEAU_CONTEXT@@PEAU_xDISPATCHER_CONTEXT@@PEBU_s_FuncInfo@@EH1@Z 000000018003be18     libvcruntime:frame.obj
 0002:0000de38       $unwind$?CatchIt@@YAXPEAUEHExceptionRecord@@PEA_KPEAU_CONTEXT@@PEAU_xDISPATCHER_CONTEXT@@PEBU_s_FuncInfo@@PEBU_s_HandlerType@@PEBU_s_CatchableType@@PEBU_s_TryBlockMapEntry@@H1EE@Z 000000018003be38     libvcruntime:frame.obj
 0002:0000de50       $unwind$__BuildCatchObject 000000018003be50     libvcruntime:frame.obj
 0002:0000de7c       $unwind$?FindHandlerForForeignException@@YAXPEAUEHExceptionRecord@@PEA_KPEAU_CONTEXT@@PEAU_xDISPATCHER_CONTEXT@@PEBU_s_FuncInfo@@HH1@Z 000000018003be7c     libvcruntime:frame.obj
 0002:0000de94       $unwind$__DestructExceptionObject 000000018003be94     libvcruntime:frame.obj
 0002:0000deb8       $unwind$__BuildCatchObjectHelper 000000018003beb8     libvcruntime:frame.obj
 0002:0000def8       $unwind$strstr             000000018003bef8     libvcruntime:strstr.obj
 0002:0000df08       $unwind$_CxxThrowException 000000018003bf08     libvcruntime:throw.obj
 0002:0000df1c       $unwind$__InternalCxxFrameHandler 000000018003bf1c     libvcruntime:frame.obj
 0002:0000df1c       $unwind$__C_specific_handler 000000018003bf1c     libvcruntime:_chandler_.obj
 0002:0000df38       $xdatasym                  000000018003bf38     libvcruntime:memset.obj
 0002:0000df40       $xdatasym                  000000018003bf40     libvcruntime:_longjmp_.obj
 0002:0000df48       $xdatasym                  000000018003bf48     libvcruntime:memcpy.obj
 0002:0000df50       $xdatasym                  000000018003bf50     libvcruntime:handlers.obj
 0002:0000df58       $unwind$?_GetEstablisherFrame@@YAPEA_KPEA_KPEAU_xDISPATCHER_CONTEXT@@PEBU_s_FuncInfo@@0@Z 000000018003bf58     libvcruntime:trnsctrl.obj
 0002:0000df70       $unwind$?__FrameUnwindToEmptyState@@YAXPEA_KPEAU_xDISPATCHER_CONTEXT@@PEBU_s_FuncInfo@@@Z 000000018003bf70     libvcruntime:trnsctrl.obj
 0002:0000df84       $unwind$_CallSETranslator  000000018003bf84     libvcruntime:trnsctrl.obj
 0002:0000dfa8       $unwind$?fin$0@?0???$common_sopen_dispatch@D@@YAHQEBDHHHQEAHH@Z@4HA 000000018003bfa8     libucrt:open.obj
 0002:0000dfa8       $unwind$_CallSETranslator$filt$0 000000018003bfa8     libvcruntime:trnsctrl.obj
 0002:0000dfb0       $unwind$_UnwindNestedFrames 000000018003bfb0     libvcruntime:trnsctrl.obj
 0002:0000dfc4       $unwind$__CxxFrameHandler3 000000018003bfc4     libvcruntime:trnsctrl.obj
 0002:0000dfd8       $xdatasym                  000000018003bfd8     libvcruntime:_jmpuwind_.obj
 0002:0000dfec       $unwind$fwprintf           000000018003bfec     libucrt:assert.obj
 0002:0000dff8       $unwind$??$common_assert_to_stderr@_W@@YAXQEB_W0I@Z 000000018003bff8     libucrt:assert.obj
 0002:0000e014       $unwind$??$common_assert_to_message_box@_W@@YAXQEB_W0IQEAX@Z 000000018003c014     libucrt:assert.obj
 0002:0000e030       $unwind$??$common_assert_to_message_box_build_string@_W@@YAXQEA_W_KQEB_W2IQEAX@Z 000000018003c030     libucrt:assert.obj
 0002:0000e050       $unwind$__acrt_call_reportfault 000000018003c050     libucrt:invalid_parameter.obj
 0002:0000e070       $unwind$_invalid_parameter 000000018003c070     libucrt:invalid_parameter.obj
 0002:0000e088       $unwind$__stdio_common_vfwprintf 000000018003c088     libucrt:output.obj
 0002:0000e090       $unwind$__stdio_common_vsprintf 000000018003c090     libucrt:output.obj
 0002:0000e090       $unwind$__stdio_common_vswprintf 000000018003c090     libucrt:output.obj
 0002:0000e0b4       $unwind$?write_string@?$stream_output_adapter@_W@__crt_stdio_output@@QEBAXQEB_WHQEAH1@Z 000000018003c0b4     libucrt:output.obj
 0002:0000e0cc       $unwind$?process@?$output_processor@_WV?$stream_output_adapter@_W@__crt_stdio_output@@V?$standard_base@_WV?$stream_output_adapter@_W@__crt_stdio_output@@@2@@__crt_stdio_output@@QEAAHXZ 000000018003c0cc     libucrt:output.obj
 0002:0000e0e4       $unwind$?parse_int_from_format_string@?$output_processor@_WV?$stream_output_adapter@_W@__crt_stdio_output@@V?$standard_base@_WV?$stream_output_adapter@_W@__crt_stdio_output@@@2@@__crt_stdio_output@@AEAA_NQEAH@Z 000000018003c0e4     libucrt:output.obj
 0002:0000e0e4       $unwind$?parse_int_from_format_string@?$output_processor@_WV?$string_output_adapter@_W@__crt_stdio_output@@V?$standard_base@_WV?$string_output_adapter@_W@__crt_stdio_output@@@2@@__crt_stdio_output@@AEAA_NQEAH@Z 000000018003c0e4     libucrt:output.obj
 0002:0000e0f8       $unwind$?write_stored_string_tchar@?$output_processor@_WV?$stream_output_adapter@_W@__crt_stdio_output@@V?$standard_base@_WV?$stream_output_adapter@_W@__crt_stdio_output@@@2@@__crt_stdio_output@@AEAA_N_W@Z 000000018003c0f8     libucrt:output.obj
 0002:0000e10c       $unwind$??R<lambda_dd75445284c072d0bd3768540cc698fa>@@QEBAHXZ 000000018003c10c     libucrt:output.obj
 0002:0000e128       $unwind$?process@?$output_processor@DV?$string_output_adapter@D@__crt_stdio_output@@V?$standard_base@DV?$string_output_adapter@D@__crt_stdio_output@@@2@@__crt_stdio_output@@QEAAHXZ 000000018003c128     libucrt:output.obj
 0002:0000e138       $unwind$?parse_int_from_format_string@?$output_processor@DV?$string_output_adapter@D@__crt_stdio_output@@V?$standard_base@DV?$string_output_adapter@D@__crt_stdio_output@@@2@@__crt_stdio_output@@AEAA_NQEAH@Z 000000018003c138     libucrt:output.obj
 0002:0000e14c       $unwind$?write_stored_string_tchar@?$output_processor@DV?$string_output_adapter@D@__crt_stdio_output@@V?$standard_base@DV?$string_output_adapter@D@__crt_stdio_output@@@2@@__crt_stdio_output@@AEAA_ND@Z 000000018003c14c     libucrt:output.obj
 0002:0000e164       $unwind$?process@?$output_processor@_WV?$string_output_adapter@_W@__crt_stdio_output@@V?$standard_base@_WV?$string_output_adapter@_W@__crt_stdio_output@@@2@@__crt_stdio_output@@QEAAHXZ 000000018003c164     libucrt:output.obj
 0002:0000e164       $unwind$_initterm          000000018003c164     libucrt:initterm.obj
 0002:0000e164       $unwind$__acrt_initialize_stdio 000000018003c164     libucrt:_file.obj
 0002:0000e164       $unwind$__acrt_MessageBoxW 000000018003c164     libucrt:winapi_thunks.obj
 0002:0000e164       $unwind$__TypeMatch        000000018003c164     libvcruntime:frame.obj
 0002:0000e164       $unwind$__GSHandlerCheck_EH 000000018003c164     LIBCMT:gshandlereh.obj
 0002:0000e164       $unwind$__acrt_lowio_set_os_handle 000000018003c164     libucrt:osfinfo.obj
 0002:0000e17c       $unwind$?state_case_type@?$output_processor@_WV?$stream_output_adapter@_W@__crt_stdio_output@@V?$standard_base@_WV?$stream_output_adapter@_W@__crt_stdio_output@@@2@@__crt_stdio_output@@AEAA_NXZ 000000018003c17c     libucrt:output.obj
 0002:0000e17c       $unwind$?state_case_type@?$output_processor@_WV?$string_output_adapter@_W@__crt_stdio_output@@V?$standard_base@_WV?$string_output_adapter@_W@__crt_stdio_output@@@2@@__crt_stdio_output@@AEAA_NXZ 000000018003c17c     libucrt:output.obj
 0002:0000e1a0       $unwind$?type_case_a@?$output_processor@_WV?$stream_output_adapter@_W@__crt_stdio_output@@V?$standard_base@_WV?$stream_output_adapter@_W@__crt_stdio_output@@@2@@__crt_stdio_output@@AEAA_NXZ 000000018003c1a0     libucrt:output.obj
 0002:0000e1a0       $unwind$?type_case_a@?$output_processor@_WV?$string_output_adapter@_W@__crt_stdio_output@@V?$standard_base@_WV?$string_output_adapter@_W@__crt_stdio_output@@@2@@__crt_stdio_output@@AEAA_NXZ 000000018003c1a0     libucrt:output.obj
 0002:0000e1b0       $unwind$?write_stored_string_tchar@?$output_processor@_WV?$string_output_adapter@_W@__crt_stdio_output@@V?$standard_base@_WV?$string_output_adapter@_W@__crt_stdio_output@@@2@@__crt_stdio_output@@AEAA_N_W@Z 000000018003c1b0     libucrt:output.obj
 0002:0000e1c4       $unwind$??$write_multiple_characters@V?$stream_output_adapter@_W@__crt_stdio_output@@D@__crt_stdio_output@@YAXAEBV?$stream_output_adapter@_W@0@DHQEAH@Z 000000018003c1c4     libucrt:output.obj
 0002:0000e1dc       $unwind$??$write_multiple_characters@V?$string_output_adapter@_W@__crt_stdio_output@@D@__crt_stdio_output@@YAXAEBV?$string_output_adapter@_W@0@DHQEAH@Z 000000018003c1dc     libucrt:output.obj
 0002:0000e1e8       $unwind$??$type_case_integer_parse_into_buffer@I@?$output_processor@_WV?$stream_output_adapter@_W@__crt_stdio_output@@V?$standard_base@_WV?$stream_output_adapter@_W@__crt_stdio_output@@@2@@__crt_stdio_output@@AEAAXII_N@Z 000000018003c1e8     libucrt:output.obj
 0002:0000e1e8       $unwind$??$type_case_integer_parse_into_buffer@I@?$output_processor@DV?$string_output_adapter@D@__crt_stdio_output@@V?$standard_base@DV?$string_output_adapter@D@__crt_stdio_output@@@2@@__crt_stdio_output@@AEAAXII_N@Z 000000018003c1e8     libucrt:output.obj
 0002:0000e1e8       $unwind$??$type_case_integer_parse_into_buffer@I@?$output_processor@_WV?$string_output_adapter@_W@__crt_stdio_output@@V?$standard_base@_WV?$string_output_adapter@_W@__crt_stdio_output@@@2@@__crt_stdio_output@@AEAAXII_N@Z 000000018003c1e8     libucrt:output.obj
 0002:0000e1e8       $unwind$??$type_case_integer_parse_into_buffer@_K@?$output_processor@DV?$string_output_adapter@D@__crt_stdio_output@@V?$standard_base@DV?$string_output_adapter@D@__crt_stdio_output@@@2@@__crt_stdio_output@@AEAAX_KI_N@Z 000000018003c1e8     libucrt:output.obj
 0002:0000e1e8       $unwind$??$type_case_integer_parse_into_buffer@_K@?$output_processor@_WV?$stream_output_adapter@_W@__crt_stdio_output@@V?$standard_base@_WV?$stream_output_adapter@_W@__crt_stdio_output@@@2@@__crt_stdio_output@@AEAAX_KI_N@Z 000000018003c1e8     libucrt:output.obj
 0002:0000e1e8       $unwind$??$type_case_integer_parse_into_buffer@_K@?$output_processor@_WV?$string_output_adapter@_W@__crt_stdio_output@@V?$standard_base@_WV?$string_output_adapter@_W@__crt_stdio_output@@@2@@__crt_stdio_output@@AEAAX_KI_N@Z 000000018003c1e8     libucrt:output.obj
 0002:0000e1e8       $unwind$??$write_multiple_characters@V?$string_output_adapter@D@__crt_stdio_output@@D@__crt_stdio_output@@YAXAEBV?$string_output_adapter@D@0@DHQEAH@Z 000000018003c1e8     libucrt:output.obj
 0002:0000e1f0       $unwind$??$?RV<lambda_7b91131dde12e1c3dfc74ff76b3f2eac>@@AEAV<lambda_dd75445284c072d0bd3768540cc698fa>@@V<lambda_16bc4ecb55b4718497c16bceaea2ceaf>@@@?$__crt_seh_guarded_call@H@@QEAAH$$QEAV<lambda_7b91131dde12e1c3dfc74ff76b3f2eac>@@AEAV<lambda_dd75445284c072d0bd3768540cc698fa>@@$$QEAV<lambda_16bc4ecb55b4718497c16bceaea2ceaf>@@@Z 000000018003c1f0     libucrt:output.obj
 0002:0000e214       $unwind$??$common_fsopen@D@@YAPEAU_iobuf@@QEBD0H@Z 000000018003c214     libucrt:fopen.obj
 0002:0000e23c       $unwind$fclose             000000018003c23c     libucrt:fclose.obj
 0002:0000e260       $unwind$?common_fseek_binary_mode_read_only_fast_track_nolock@@YA_NV__crt_stdio_stream@@_JH@Z 000000018003c260     libucrt:fseek.obj
 0002:0000e26c       $unwind$?common_fseek_nolock@@YAHV__crt_stdio_stream@@_JH@Z 000000018003c26c     libucrt:fseek.obj
 0002:0000e26c       $unwind$??$common_refill_and_read_nolock@D@@YAHV__crt_stdio_stream@@@Z 000000018003c26c     libucrt:_filbuf.obj
 0002:0000e26c       $unwind$_raise_exc_ex      000000018003c26c     libucrt:fpexcept.obj
 0002:0000e280       $unwind$?common_fseek@@YAHV__crt_stdio_stream@@_JH@Z 000000018003c280     libucrt:fseek.obj
 0002:0000e2a4       $unwind$fread_s            000000018003c2a4     libucrt:fread.obj
 0002:0000e2d4       $unwind$_fread_nolock_s    000000018003c2d4     libucrt:fread.obj
 0002:0000e2ec       $unwind$?x_ismbbtype_l@@YAHPEAU__crt_locale_pointers@@IHH@Z 000000018003c2ec     libucrt:ismbbyte.obj
 0002:0000e2ec       $unwind$_stricmp_l         000000018003c2ec     libucrt:stricmp.obj
 0002:0000e2fc       $unwind$_query_new_handler 000000018003c2fc     libucrt:new_handler.obj
 0002:0000e31c       $unwind$?common_exit@@YAXHW4_crt_exit_cleanup_mode@@W4_crt_exit_return_mode@@@Z 000000018003c31c     libucrt:exit.obj
 0002:0000e35c       $unwind$_configure_narrow_argv 000000018003c35c     libucrt:argv_parsing.obj
 0002:0000e370       $unwind$??$parse_command_line@D@@YAXPEADPEAPEAD0PEA_K2@Z 000000018003c370     libucrt:argv_parsing.obj
 0002:0000e370       $unwind$??R<lambda_4e60a939b0d047cfe11ddc22648dfba9>@@QEBAHXZ 000000018003c370     libucrt:onexit.obj
 0002:0000e370       $unwind$?write_string@?$string_output_adapter@D@__crt_stdio_output@@QEBAXQEBDHQEAH1@Z 000000018003c370     libucrt:output.obj
 0002:0000e370       $unwind$?_GetRangeOfTrysToCheck@@YAPEBU_s_TryBlockMapEntry@@PEA_KPEBU_s_FuncInfo@@HHPEAI2PEAU_xDISPATCHER_CONTEXT@@@Z 000000018003c370     libvcruntime:trnsctrl.obj
 0002:0000e38c       $unwind$__acrt_copy_path_to_wide_string 000000018003c38c     libucrt:string_utilities.obj
 0002:0000e38c       $unwind$??$create_environment@D@@YAQEAPEADQEAD@Z 000000018003c38c     libucrt:environment_initialization.obj
 0002:0000e3a4       $unwind$_register_onexit_function 000000018003c3a4     libucrt:onexit.obj
 0002:0000e3ac       $unwind$_execute_onexit_table 000000018003c3ac     libucrt:onexit.obj
 0002:0000e3b4       $unwind$??$?RV<lambda_b8c45f8f788dd370798f47cfe8ac3a86>@@AEAV<lambda_4e60a939b0d047cfe11ddc22648dfba9>@@V<lambda_332c3edc96d0294ec56c57d38c1cdfd5>@@@?$__crt_seh_guarded_call@H@@QEAAH$$QEAV<lambda_b8c45f8f788dd370798f47cfe8ac3a86>@@AEAV<lambda_4e60a939b0d047cfe11ddc22648dfba9>@@$$QEAV<lambda_332c3edc96d0294ec56c57d38c1cdfd5>@@@Z 000000018003c3b4     libucrt:onexit.obj
 0002:0000e3d8       $unwind$??$?RV<lambda_e24bbb7b643b32fcea6fa61b31d4c984>@@AEAV<lambda_275893d493268fdec8709772e3fcec0e>@@V<lambda_9d71df4d7cf3f480f8d633942495c3b0>@@@?$__crt_seh_guarded_call@H@@QEAAH$$QEAV<lambda_e24bbb7b643b32fcea6fa61b31d4c984>@@AEAV<lambda_275893d493268fdec8709772e3fcec0e>@@$$QEAV<lambda_9d71df4d7cf3f480f8d633942495c3b0>@@@Z 000000018003c3d8     libucrt:onexit.obj
 0002:0000e408       $unwind$terminate          000000018003c408     libucrt:terminate.obj
 0002:0000e428       $unwind$_strdup            000000018003c428     libucrt:strdup.obj
 0002:0000e438       $unwind$??$parse_integer@KV?$c_string_character_source@D@__crt_strtox@@@__crt_strtox@@YAKQEAU__crt_locale_pointers@@V?$c_string_character_source@D@0@H_N@Z 000000018003c438     libucrt:atox.obj
 0002:0000e454       $unwind$??$parse_integer@KV?$c_string_character_source@_W@__crt_strtox@@@__crt_strtox@@YAKQEAU__crt_locale_pointers@@V?$c_string_character_source@_W@0@H_N@Z 000000018003c454     libucrt:atox.obj
 0002:0000e470       $unwind$_GetImageBase      000000018003c470     libvcruntime:trnsctrl.obj
 0002:0000e470       $unwind$__GSHandlerCheck   000000018003c470     LIBCMT:_gshandler_.obj
 0002:0000e470       $unwind$_set_errno_from_matherr 000000018003c470     libucrt:fpexcept.obj
 0002:0000e470       $unwind$__pctype_func      000000018003c470     libucrt:ctype.obj
 0002:0000e470       $unwind$__scrt_acquire_startup_lock 000000018003c470     LIBCMT:utility.obj
 0002:0000e470       $unwind$__scrt_dllmain_uninitialize_c 000000018003c470     LIBCMT:utility.obj
 0002:0000e470       $unwind$__vcrt_thread_detach 000000018003c470     libvcruntime:initialization.obj
 0002:0000e470       $unwind$__scrt_dllmain_uninitialize_critical 000000018003c470     LIBCMT:utility.obj
 0002:0000e470       $unwind$atexit             000000018003c470     LIBCMT:utility.obj
 0002:0000e470       $unwind$_getfpcontrolword  000000018003c470     libucrt:_fenvutils.obj
 0002:0000e470       $unwind$_set_error_mode    000000018003c470     libucrt:set_error_mode.obj
 0002:0000e470       $unwind$__scrt_dllmain_crt_thread_attach 000000018003c470     LIBCMT:utility.obj
 0002:0000e470       $unwind$__FrameUnwindFilter 000000018003c470     libvcruntime:frame.obj
 0002:0000e470       $unwind$__scrt_dllmain_crt_thread_detach 000000018003c470     LIBCMT:utility.obj
 0002:0000e470       $unwind$?__GetCurrentState@@YAHPEA_KPEAU_xDISPATCHER_CONTEXT@@PEBU_s_FuncInfo@@@Z 000000018003c470     libvcruntime:ehstate.obj
 0002:0000e470       $unwind$_isatty            000000018003c470     libucrt:isatty.obj
 0002:0000e470       $unwind$__std_terminate    000000018003c470     libvcruntime:frame.obj
 0002:0000e470       $unwind$_GetThrowImageBase 000000018003c470     libvcruntime:trnsctrl.obj
 0002:0000e470       $unwind$__acrt_initialize_multibyte 000000018003c470     libucrt:mbctype.obj
 0002:0000e470       $unwind$tolower            000000018003c470     libucrt:tolower_toupper.obj
 0002:0000e470       $unwind$__scrt_dllmain_after_initialize_c 000000018003c470     LIBCMT:utility.obj
 0002:0000e470       $unwind$__acrt_DownlevelLocaleNameToLCID 000000018003c470     libucrt:lcidtoname_downlevel.obj
 0002:0000e470       $unwind$?dllmain_crt_dispatch@@YAHQEAUHINSTANCE__@@KQEAX@Z 000000018003c470     LIBCMT:dll_dllmain.obj
 0002:0000e470       $unwind$??$uninitialize_environment_internal@_W@@YAXAEAPEAPEA_W@Z 000000018003c470     libucrt:environment_initialization.obj
 0002:0000e470       $unwind$_invoke_watson     000000018003c470     libucrt:invalid_parameter.obj
 0002:0000e470       $unwind$_msize             000000018003c470     libucrt:msize.obj
 0002:0000e470       $unwind$__acrt_release_locale_ref 000000018003c470     libucrt:locale_refcounting.obj
 0002:0000e470       $unwind$?initialize_multibyte@@YAHXZ 000000018003c470     libucrt:multibyte_initializer.obj
 0002:0000e470       $unwind$uninitialize_environment 000000018003c470     libucrt:initialization.obj
 0002:0000e470       $unwind$__vcrt_initialize_ptd 000000018003c470     libvcruntime:per_thread_data.obj
 0002:0000e470       $unwind$initialize_c       000000018003c470     libucrt:initialization.obj
 0002:0000e470       $unwind$__scrt_dllmain_before_initialize_c 000000018003c470     LIBCMT:utility.obj
 0002:0000e470       $unwind$?state_case_size@?$output_processor@_WV?$string_output_adapter@_W@__crt_stdio_output@@V?$standard_base@_WV?$string_output_adapter@_W@__crt_stdio_output@@@2@@__crt_stdio_output@@AEAA_NXZ 000000018003c470     libucrt:output.obj
 0002:0000e470       $unwind$abort              000000018003c470     libucrt:abort.obj
 0002:0000e470       $unwind$__acrt_thread_detach 000000018003c470     libucrt:initialization.obj
 0002:0000e470       $unwind$_fileno            000000018003c470     libucrt:fileno.obj
 0002:0000e470       $unwind$__acrt_thread_attach 000000018003c470     libucrt:initialization.obj
 0002:0000e470       $unwind$__acrt_uninitialize_critical 000000018003c470     libucrt:initialization.obj
 0002:0000e470       $unwind$__doserrno         000000018003c470     libucrt:errno.obj
 0002:0000e470       $unwind$??$uninitialize_environment_internal@D@@YAXAEAPEAPEAD@Z 000000018003c470     libucrt:environment_initialization.obj
 0002:0000e470       $unwind$_statfp            000000018003c470     libucrt:fpctrl.obj
 0002:0000e470       $unwind$__acrt_initialize_command_line 000000018003c470     libucrt:argv_data.obj
 0002:0000e470       $unwind$__vcrt_uninitialize_ptd 000000018003c470     libvcruntime:per_thread_data.obj
 0002:0000e470       $unwind$_errno             000000018003c470     libucrt:errno.obj
 0002:0000e470       $unwind$__dcrt_terminate_console_output 000000018003c470     libucrt:initcon.obj
 0002:0000e470       $unwind$__vcrt_initialize  000000018003c470     libvcruntime:initialization.obj
 0002:0000e470       $unwind$_get_fmode         000000018003c470     libucrt:setmode.obj
 0002:0000e470       $unwind$_strnicmp          000000018003c470     libucrt:strnicmp.obj
 0002:0000e470       $unwind$__dcrt_uninitialize_environments_nolock 000000018003c470     libucrt:environment_initialization.obj
 0002:0000e470       $unwind$_stricmp           000000018003c470     libucrt:stricmp.obj
 0002:0000e470       $unwind$__vcrt_uninitialize 000000018003c470     libvcruntime:initialization.obj
 0002:0000e470       $unwind$_get_osfhandle     000000018003c470     libucrt:osfinfo.obj
 0002:0000e470       $unwind$__scrt_initialize_default_local_stdio_options 000000018003c470     LIBCMT:default_local_stdio_options.obj
 0002:0000e470       $unwind$?state_case_size@?$output_processor@DV?$string_output_adapter@D@__crt_stdio_output@@V?$standard_base@DV?$string_output_adapter@D@__crt_stdio_output@@@2@@__crt_stdio_output@@AEAA_NXZ 000000018003c470     libucrt:output.obj
 0002:0000e470       $unwind$?state_case_size@?$output_processor@_WV?$stream_output_adapter@_W@__crt_stdio_output@@V?$standard_base@_WV?$stream_output_adapter@_W@__crt_stdio_output@@@2@@__crt_stdio_output@@AEAA_NXZ 000000018003c470     libucrt:output.obj
 0002:0000e470       $unwind$__vcrt_freefls     000000018003c470     libvcruntime:per_thread_data.obj
 0002:0000e470       $unwind$__acrt_initialize_heap 000000018003c470     libucrt:heap_handle.obj
 0002:0000e470       $unwind$?state_case_normal_tchar@?$output_processor@DV?$string_output_adapter@D@__crt_stdio_output@@V?$standard_base@DV?$string_output_adapter@D@__crt_stdio_output@@@2@@__crt_stdio_output@@AEAA_ND@Z 000000018003c470     libucrt:output.obj
 0002:0000e470       $unwind$__vcrt_uninitialize_critical 000000018003c470     libvcruntime:initialization.obj
 0002:0000e470       $unwind$_getfpstatusword   000000018003c470     libucrt:_fenvutils.obj
 0002:0000e470       $unwind$__vcrt_thread_attach 000000018003c470     libvcruntime:initialization.obj
 0002:0000e470       $unwind$__vcrt_getptd      000000018003c470     libvcruntime:per_thread_data.obj
 0002:0000e470       $unwind$__acrt_uninitialize_ptd 000000018003c470     libucrt:per_thread_data.obj
 0002:0000e470       $unwind$__report_rangecheckfailure 000000018003c470     LIBCMT:gs_report.obj
 0002:0000e470       $unwind$__acrt_initialize_ptd 000000018003c470     libucrt:per_thread_data.obj
 0002:0000e478       $unwind$fflush             000000018003c478     libucrt:fflush.obj
 0002:0000e49c       $unwind$common_flush_all   000000018003c49c     libucrt:fflush.obj
 0002:0000e4d8       $unwind$setvbuf            000000018003c4d8     libucrt:setvbuf.obj
 0002:0000e4e0       $unwind$?type_case_c_tchar@?$output_processor@_WV?$string_output_adapter@_W@__crt_stdio_output@@V?$standard_base@_WV?$string_output_adapter@_W@__crt_stdio_output@@@2@@__crt_stdio_output@@AEAA_N_W@Z 000000018003c4e0     libucrt:output.obj
 0002:0000e4e0       $unwind$??R<lambda_b721fa326cdb32351d23dfa67958c160>@@QEBAHXZ 000000018003c4e0     libucrt:setvbuf.obj
 0002:0000e4e0       $unwind$?type_case_c_tchar@?$output_processor@_WV?$stream_output_adapter@_W@__crt_stdio_output@@V?$standard_base@_WV?$stream_output_adapter@_W@__crt_stdio_output@@@2@@__crt_stdio_output@@AEAA_N_W@Z 000000018003c4e0     libucrt:output.obj
 0002:0000e4e0       $unwind$?truncate_ctrl_z_if_present@@YAHH@Z 000000018003c4e0     libucrt:open.obj
 0002:0000e4f0       $unwind$??$?RV<lambda_7a5ef57ff966f610505f1d28a3d40618>@@AEAV<lambda_b721fa326cdb32351d23dfa67958c160>@@V<lambda_5e0fb27672408a07956fe59e48ccb2aa>@@@?$__crt_seh_guarded_call@H@@QEAAH$$QEAV<lambda_7a5ef57ff966f610505f1d28a3d40618>@@AEAV<lambda_b721fa326cdb32351d23dfa67958c160>@@$$QEAV<lambda_5e0fb27672408a07956fe59e48ccb2aa>@@@Z 000000018003c4f0     libucrt:setvbuf.obj
 0002:0000e514       $unwind$__acrt_get_sigabrt_handler 000000018003c514     libucrt:signal.obj
 0002:0000e51c       $unwind$raise              000000018003c51c     libucrt:signal.obj
 0002:0000e548       $unwind$??$?RV<lambda_c36588078e9f5dfd39652860aa6b3aaf>@@AEAV<lambda_ec61778202f4f5fc7e7711acc23c3bca>@@V<lambda_dc9d2797ccde5d239b4a0efae8ebd7db>@@@?$__crt_seh_guarded_call@P6AXH@Z@@QEAAP6AXH@Z$$QEAV<lambda_c36588078e9f5dfd39652860aa6b3aaf>@@AEAV<lambda_ec61778202f4f5fc7e7711acc23c3bca>@@$$QEAV<lambda_dc9d2797ccde5d239b4a0efae8ebd7db>@@@Z 000000018003c548     libucrt:signal.obj
 0002:0000e56c       $unwind$_call_matherr      000000018003c56c     libucrt:libm_error.obj
 0002:0000e574       $unwind$_handle_error      000000018003c574     libucrt:libm_error.obj
 0002:0000e574       $unwind$_handle_errorf     000000018003c574     libucrt:libm_error.obj
 0002:0000e594       $unwind$?construct_ptd_array@@YAXQEAU__acrt_ptd@@@Z 000000018003c594     libucrt:per_thread_data.obj
 0002:0000e59c       $unwind$?destroy_ptd_array@@YAXQEAU__acrt_ptd@@@Z 000000018003c59c     libucrt:per_thread_data.obj
 0002:0000e5a4       $unwind$??$?RV<lambda_72d1df2b273a38828b1ce30cbf4cdab5>@@AEAV<lambda_876a65b173b8412d3a47c70a915b0cf4>@@V<lambda_41932305e351933ebe8f8be3ed8bb5dc>@@@?$__crt_seh_guarded_call@X@@QEAAX$$QEAV<lambda_72d1df2b273a38828b1ce30cbf4cdab5>@@AEAV<lambda_876a65b173b8412d3a47c70a915b0cf4>@@$$QEAV<lambda_41932305e351933ebe8f8be3ed8bb5dc>@@@Z 000000018003c5a4     libucrt:per_thread_data.obj
 0002:0000e5c8       $unwind$??$?RV<lambda_5e887d1dcbef67a5eb4283622ba103bf>@@AEAV<lambda_4466841279450cc726390878d4a41900>@@V<lambda_341c25c0346d94847f1f3c463c57e077>@@@?$__crt_seh_guarded_call@X@@QEAAX$$QEAV<lambda_5e887d1dcbef67a5eb4283622ba103bf>@@AEAV<lambda_4466841279450cc726390878d4a41900>@@$$QEAV<lambda_341c25c0346d94847f1f3c463c57e077>@@@Z 000000018003c5c8     libucrt:per_thread_data.obj
 0002:0000e5ec       $unwind$??$?RV<lambda_46352004c1216016012b18bd6f87e700>@@AEAV<lambda_3bd07e1a1191394380780325891bf33f>@@V<lambda_334532d3f185bcaa59b5be82d7d22bff>@@@?$__crt_seh_guarded_call@X@@QEAAX$$QEAV<lambda_46352004c1216016012b18bd6f87e700>@@AEAV<lambda_3bd07e1a1191394380780325891bf33f>@@$$QEAV<lambda_334532d3f185bcaa59b5be82d7d22bff>@@@Z 000000018003c5ec     libucrt:per_thread_data.obj
 0002:0000e610       $unwind$??$?RV<lambda_fb3a7dec4e47f37f22dae91bb15c9095>@@AEAV<lambda_698284760c8add0bfb0756c19673e34b>@@V<lambda_dfb8eca1e75fef3034a8fb18dd509707>@@@?$__crt_seh_guarded_call@X@@QEAAX$$QEAV<lambda_fb3a7dec4e47f37f22dae91bb15c9095>@@AEAV<lambda_698284760c8add0bfb0756c19673e34b>@@$$QEAV<lambda_dfb8eca1e75fef3034a8fb18dd509707>@@@Z 000000018003c610     libucrt:per_thread_data.obj
 0002:0000e634       $unwind$__acrt_initialize_winapi_thunks 000000018003c634     libucrt:winapi_thunks.obj
 0002:0000e63c       $unwind$__acrt_is_interactive 000000018003c63c     libucrt:winapi_thunks.obj
 0002:0000e650       $unwind$?try_get_function@@YAPEAXW4function_id@?A0x679b24ab@@QEBDQEBW4module_id@2@2@Z 000000018003c650     libvcruntime:winapi_downlevel.obj
 0002:0000e650       $unwind$?write_string@?$string_output_adapter@_W@__crt_stdio_output@@QEBAXQEB_WHQEAH1@Z 000000018003c650     libucrt:output.obj
 0002:0000e650       $unwind$?try_get_function@@YAPEAXW4function_id@?A0x63058377@@QEBDQEBW4module_id@2@2@Z 000000018003c650     libucrt:winapi_thunks.obj
 0002:0000e650       $unwind$?IsInExceptionSpec@@YAEPEAUEHExceptionRecord@@PEBU_s_ESTypeList@@@Z 000000018003c650     libvcruntime:frame.obj
 0002:0000e66c       $unwind$_fcloseall         000000018003c66c     libucrt:closeall.obj
 0002:0000e690       $unwind$__acrt_initialize_lowio 000000018003c690     libucrt:ioinit.obj
 0002:0000e6b0       $unwind$?initialize_inherited_file_handles_nolock@@YAXXZ 000000018003c6b0     libucrt:ioinit.obj
 0002:0000e6cc       $unwind$__std_exception_copy 000000018003c6cc     libvcruntime:std_exception.obj
 0002:0000e6cc       $unwind$?initialize_stdio_handles_nolock@@YAXXZ 000000018003c6cc     libucrt:ioinit.obj
 0002:0000e6cc       $unwind$_free_osfhnd       000000018003c6cc     libucrt:osfinfo.obj
 0002:0000e6e0       $unwind$_tolower_l         000000018003c6e0     libucrt:tolower_toupper.obj
 0002:0000e6f0       $unwind$__acrt_show_wide_message_box 000000018003c6f0     libucrt:crtmbox.obj
 0002:0000e6f0       $unwind$__acrt_LCMapStringEx 000000018003c6f0     libucrt:winapi_thunks.obj
 0002:0000e6f0       $unwind$_mbtowc_l          000000018003c6f0     libucrt:mbtowc.obj
 0002:0000e708       $unwind$_wctomb_s_l        000000018003c708     libucrt:wctomb.obj
 0002:0000e718       $unwind$wcsnlen            000000018003c718     libucrt:strnlen.obj
 0002:0000e718       $unwind$strnlen            000000018003c718     libucrt:strnlen.obj
 0002:0000e720       $unwind$__acrt_fp_format   000000018003c720     libucrt:cvt.obj
 0002:0000e73c       $unwind$?fp_format_nan_or_infinity@@YAHW4__acrt_fp_class@@_NPEAD_K1@Z 000000018003c73c     libucrt:cvt.obj
 0002:0000e750       $unwind$?fp_format_e_internal@@YAHQEAD_KH_NIQEAU_strflt@@2QEAU__crt_locale_pointers@@@Z 000000018003c750     libucrt:cvt.obj
 0002:0000e768       $unwind$_sopen_nolock      000000018003c768     libucrt:open.obj
 0002:0000e768       $unwind$?fp_format_e@@YAHQEBNQEAD_K12H_NIQEAU__crt_locale_pointers@@@Z 000000018003c768     libucrt:cvt.obj
 0002:0000e77c       $unwind$?fp_format_a@@YAHQEBNPEAD_KQEAD2H_NIQEAU__crt_locale_pointers@@@Z 000000018003c77c     libucrt:cvt.obj
 0002:0000e798       $unwind$?fp_format_f_internal@@YAHQEAD_KHQEAU_strflt@@_NQEAU__crt_locale_pointers@@@Z 000000018003c798     libucrt:cvt.obj
 0002:0000e798       $unwind$__dcrt_get_narrow_environment_from_os 000000018003c798     libucrt:get_environment_from_os.obj
 0002:0000e7b0       $unwind$?fp_format_g@@YAHQEBNQEAD_K12H_NIQEAU__crt_locale_pointers@@@Z 000000018003c7b0     libucrt:cvt.obj
 0002:0000e7c4       $unwind$_fputwc_nolock     000000018003c7c4     libucrt:fputwc.obj
 0002:0000e7e0       $unwind$__acrt_stdio_end_temporary_buffering_nolock 000000018003c7e0     libucrt:_sftbuf.obj
 0002:0000e7e0       $unwind$__vcrt_uninitialize_winapi_thunks 000000018003c7e0     libvcruntime:winapi_downlevel.obj
 0002:0000e7e8       $unwind$__acrt_uninitialize_locale 000000018003c7e8     libucrt:wsetlocale.obj
 0002:0000e808       $unwind$?__acrt_stdio_allocate_stream@@YA?AV__crt_stdio_stream@@XZ 000000018003c808     libucrt:stream.obj
 0002:0000e828       $unwind$_openfile          000000018003c828     libucrt:openfile.obj
 0002:0000e83c       $unwind$??$?RV<lambda_bfedae4ebbf01fab1bb6dcc6a9e276e0>@@AEAV<lambda_2fe9b910cf3cbf4a0ab98a02ba45b3ec>@@V<lambda_237c231691f317818eb88cc1d5d642d6>@@@?$__crt_seh_guarded_call@H@@QEAAH$$QEAV<lambda_bfedae4ebbf01fab1bb6dcc6a9e276e0>@@AEAV<lambda_2fe9b910cf3cbf4a0ab98a02ba45b3ec>@@$$QEAV<lambda_237c231691f317818eb88cc1d5d642d6>@@@Z 000000018003c83c     libucrt:close.obj
 0002:0000e860       $unwind$?common_ftell_translated_utf8_nolock@@YA_JV__crt_stdio_stream@@_J@Z 000000018003c860     libucrt:ftell.obj
 0002:0000e884       $unwind$?common_ftell_read_mode_nolock@@YA_JV__crt_stdio_stream@@_J1@Z 000000018003c884     libucrt:ftell.obj
 0002:0000e8a0       $unwind$??$common_ftell_nolock@_J@@YA_JV__crt_stdio_stream@@@Z 000000018003c8a0     libucrt:ftell.obj
 0002:0000e8ac       $unwind$??$common_lseek@_J@@YA_JH_JH@Z 000000018003c8ac     libucrt:lseek.obj
 0002:0000e8dc       $unwind$_read              000000018003c8dc     libucrt:read.obj
 0002:0000e908       $unwind$_read_nolock       000000018003c908     libucrt:read.obj
 0002:0000e920       $unwind$?translate_ansi_or_utf8_nolock@@YAHHQEAD_KQEA_W1@Z 000000018003c920     libucrt:read.obj
 0002:0000e938       $unwind$??$translate_text_mode_nolock@_W@@YAHHQEA_W_K@Z 000000018003c938     libucrt:read.obj
 0002:0000e950       $unwind$??$common_expand_argv_wildcards@D@@YAHQEAPEADQEAPEAPEAD@Z 000000018003c950     libucrt:argv_wildcards.obj
 0002:0000e968       $unwind$??$copy_and_add_argument_to_buffer@D@@YAHQEBD0_KAEAV?$argument_list@D@?A0xca0879c4@@@Z 000000018003c968     libucrt:argv_wildcards.obj
 0002:0000e984       $unwind$??$expand_argument_wildcards@D@@YAHQEAD0AEAV?$argument_list@D@?A0xca0879c4@@@Z 000000018003c984     libucrt:argv_wildcards.obj
 0002:0000e9a4       $unwind$__acrt_update_thread_multibyte_data 000000018003c9a4     libucrt:mbctype.obj
 0002:0000e9c8       $unwind$_setmbcp_nolock    000000018003c9c8     libucrt:mbctype.obj
 0002:0000e9e8       $unwind$?setSBUpLow@@YAXPEAU__crt_multibyte_data@@@Z 000000018003c9e8     libucrt:mbctype.obj
 0002:0000ea04       $unwind$?setmbcp_internal@@YAHH_N@Z 000000018003ca04     libucrt:mbctype.obj
 0002:0000ea14       $unwind$??$?RV<lambda_99476a1ad63dd22509b5d3e65b0ffc95>@@AEAV<lambda_ad1ced32f4ac17aa236e5ef05d6b3b7c>@@V<lambda_f7424dd8d45958661754dc4f2697e9c3>@@@?$__crt_seh_guarded_call@X@@QEAAX$$QEAV<lambda_99476a1ad63dd22509b5d3e65b0ffc95>@@AEAV<lambda_ad1ced32f4ac17aa236e5ef05d6b3b7c>@@$$QEAV<lambda_f7424dd8d45958661754dc4f2697e9c3>@@@Z 000000018003ca14     libucrt:mbctype.obj
 0002:0000ea38       $unwind$iswctype           000000018003ca38     libucrt:iswctype.obj
 0002:0000ea38       $unwind$__acrt_is_packaged_app 000000018003ca38     libucrt:winapi_thunks.obj
 0002:0000ea44       $unwind$_isctype_l         000000018003ca44     libucrt:isctype.obj
 0002:0000ea60       $unwind$_close             000000018003ca60     libucrt:close.obj
 0002:0000ea60       $unwind$_commit            000000018003ca60     libucrt:commit.obj
 0002:0000ea68       $unwind$??$?RV<lambda_b521505b218e5242e90febf6bfebc422>@@AEAV<lambda_6978c1fb23f02e42e1d9e99668cc68aa>@@V<lambda_314360699dd331753a4119843814e9a7>@@@?$__crt_seh_guarded_call@H@@QEAAH$$QEAV<lambda_b521505b218e5242e90febf6bfebc422>@@AEAV<lambda_6978c1fb23f02e42e1d9e99668cc68aa>@@$$QEAV<lambda_314360699dd331753a4119843814e9a7>@@@Z 000000018003ca68     libucrt:commit.obj
 0002:0000ea8c       $unwind$_write             000000018003ca8c     libucrt:write.obj
 0002:0000eabc       $unwind$_write_nolock      000000018003cabc     libucrt:write.obj
 0002:0000ead4       $unwind$?write_double_translated_ansi_nolock@@YA?AUwrite_result@?A0x9c548279@@HQEBDI@Z 000000018003cad4     libucrt:write.obj
 0002:0000eaf4       $unwind$?write_text_utf16le_nolock@@YA?AUwrite_result@?A0x9c548279@@HQEBDI@Z 000000018003caf4     libucrt:write.obj
 0002:0000eaf4       $unwind$?write_text_ansi_nolock@@YA?AUwrite_result@?A0x9c548279@@HQEBDI@Z 000000018003caf4     libucrt:write.obj
 0002:0000eb14       $unwind$?write_text_utf8_nolock@@YA?AUwrite_result@?A0x9c548279@@HQEBDI@Z 000000018003cb14     libucrt:write.obj
 0002:0000eb38       $unwind$_raise_excf        000000018003cb38     libucrt:fpexcept.obj
 0002:0000eb38       $unwind$?__scrt_throw_std_bad_alloc@@YAXXZ 000000018003cb38     LIBCMT:throw_bad_alloc.obj
 0002:0000eb38       $unwind$__dcrt_lowio_initialize_console_output 000000018003cb38     libucrt:initcon.obj
 0002:0000eb38       $unwind$?_Xlength_error@std@@YAXPEBD@Z 000000018003cb38     libcpmt:xthrow.obj
 0002:0000eb38       $unwind$_raise_exc         000000018003cb38     libucrt:fpexcept.obj
 0002:0000eb38       $unwind$?_Xbad_alloc@std@@YAXXZ 000000018003cb38     libcpmt:xthrow.obj
 0002:0000eb38       $unwind$?__scrt_throw_std_bad_array_new_length@@YAXXZ 000000018003cb38     LIBCMT:throw_bad_alloc.obj
 0002:0000eb40       $unwind$_ctrlfp            000000018003cb40     libucrt:fpctrl.obj
 0002:0000eb68       $unwind$__acrt_update_thread_locale_data 000000018003cb68     libucrt:locale_refcounting.obj
 0002:0000eb8c       $unwind$?GetTableIndexFromLocaleName@@YAHPEB_W@Z 000000018003cb8c     libucrt:lcidtoname_downlevel.obj
 0002:0000eba4       $unwind$_alloc_osfhnd      000000018003cba4     libucrt:osfinfo.obj
 0002:0000ebd4       $unwind$__acrt_lowio_destroy_handle_array 000000018003cbd4     libucrt:osfinfo.obj
 0002:0000ebe4       $unwind$__acrt_lowio_ensure_fh_exists 000000018003cbe4     libucrt:osfinfo.obj
 0002:0000ec10       $unwind$__acrt_LCMapStringA 000000018003cc10     libucrt:lcmapstringa.obj
 0002:0000ec20       $unwind$?__acrt_LCMapStringA_stat@@YAHPEAU__crt_locale_pointers@@PEB_WKPEBDHPEADHHH@Z 000000018003cc20     libucrt:lcmapstringa.obj
 0002:0000ec48       $unwind$__acrt_fltout      000000018003cc48     libucrt:cfout.obj
 0002:0000ec68       $unwind$?divide@__crt_strtox@@YA_KAEAUbig_integer@1@AEBU21@@Z 000000018003cc68     libucrt:cfout.obj
 0002:0000ec88       $chain$5$?divide@__crt_strtox@@YA_KAEAUbig_integer@1@AEBU21@@Z 000000018003cc88     libucrt:cfout.obj
 0002:0000ec9c       $chain$6$?divide@__crt_strtox@@YA_KAEAUbig_integer@1@AEBU21@@Z 000000018003cc9c     libucrt:cfout.obj
 0002:0000ecac       $unwind$??$write_buffer_nolock@D@@YA_NDV__crt_stdio_stream@@@Z 000000018003ccac     libucrt:_flsbuf.obj
 0002:0000ecbc       $unwind$??$write_buffer_nolock@_W@@YA_N_WV__crt_stdio_stream@@@Z 000000018003ccbc     libucrt:_flsbuf.obj
 0002:0000eccc       $unwind$__acrt_locale_free_monetary 000000018003cccc     libucrt:initmon.obj
 0002:0000ecd4       $unwind$__acrt_locale_free_time 000000018003ccd4     libucrt:inittime.obj
 0002:0000ece4       $unwind$__acrt_GetStringTypeA 000000018003cce4     libucrt:getstringtypea.obj
 0002:0000ed10       $xdatasym                  000000018003cd10     libucrt:strncmp.obj
 0002:0000ed14       $unwind$_strnicmp_l        000000018003cd14     libucrt:strnicmp.obj
 0002:0000ed14       $unwind$?__SehTransFilter@@YAHPEAU_EXCEPTION_POINTERS@@PEAUEHExceptionRecord@@PEA_KPEAU_CONTEXT@@PEAU_xDISPATCHER_CONTEXT@@PEBU_s_FuncInfo@@PEAH@Z 000000018003cd14     libvcruntime:trnsctrl.obj
 0002:0000ed28       $unwind$_log10_special     000000018003cd28     libucrt:log_special.obj
 0002:0000ed28       $unwind$wctomb_s           000000018003cd28     libucrt:wctomb.obj
 0002:0000ed28       $unwind$_sopen_s           000000018003cd28     libucrt:open.obj
 0002:0000ed28       $unwind$_invalid_parameter_noinfo_noreturn 000000018003cd28     libucrt:invalid_parameter.obj
 0002:0000ed28       $unwind$_invalid_parameter_noinfo 000000018003cd28     libucrt:invalid_parameter.obj
 0002:0000ed28       $unwind$fread              000000018003cd28     libucrt:fread.obj
 0002:0000ed28       $unwind$_itow_s            000000018003cd28     libucrt:xtoa.obj
 0002:0000ed30       $unwind$_wsopen_nolock     000000018003cd30     libucrt:open.obj
 0002:0000ed4c       $unwind$??$common_sopen_dispatch@D@@YAHQEBDHHHQEAHH@Z 000000018003cd4c     libucrt:open.obj
 0002:0000ed70       $unwind$?decode_options@@YA?AUfile_options@?A0x656cf9f4@@HHH@Z 000000018003cd70     libucrt:open.obj
 0002:0000ed84       $unwind$?configure_text_mode@@YAHHUfile_options@?A0x656cf9f4@@HAEAW4__crt_lowio_text_mode@@@Z 000000018003cd84     libucrt:open.obj
 0002:0000ed84       $unwind$?state_case_type@?$output_processor@DV?$string_output_adapter@D@__crt_stdio_output@@V?$standard_base@DV?$string_output_adapter@D@__crt_stdio_output@@@2@@__crt_stdio_output@@AEAA_NXZ 000000018003cd84     libucrt:output.obj
 0002:0000ed9c       $unwind$qsort              000000018003cd9c     libucrt:qsort.obj
 0002:0000edb4       $chain$4$qsort             000000018003cdb4     libucrt:qsort.obj
 0002:0000edd8       $chain$5$qsort             000000018003cdd8     libucrt:qsort.obj
 0002:0000ede8       $unwind$?shortsort@@YAXPEAD0_KP6AHPEBX2@Z@Z 000000018003cde8     libucrt:qsort.obj
 0002:0000edf8       $chain$2$?shortsort@@YAXPEAD0_KP6AHPEBX2@Z@Z 000000018003cdf8     libucrt:qsort.obj
 0002:0000ee14       $chain$3$?shortsort@@YAXPEAD0_KP6AHPEBX2@Z@Z 000000018003ce14     libucrt:qsort.obj
 0002:0000ee24       $unwind$strpbrk            000000018003ce24     libucrt:strpbrk.obj
 0002:0000ee34       $unwind$_mbsdec_l          000000018003ce34     libucrt:mbsdec.obj
 0002:0000ee40       $unwind$_putwch_nolock     000000018003ce40     libucrt:putwch.obj
 0002:0000ee40       $unwind$__report_gsfailure 000000018003ce40     LIBCMT:gs_report.obj
 0002:0000ee48       $xdatasym                  000000018003ce48     libucrt:fpsr.obj
 0002:0000ee50       $xdatasym                  000000018003ce50     libucrt:log10.obj
 0002:0000ee5c       $unwind$_setmode_nolock    000000018003ce5c     libucrt:setmode.obj
 0002:0000ee6c       $unwind$_chsize_nolock     000000018003ce6c     libucrt:chsize.obj
 0002:0000ee84       $unwind$common_control87   000000018003ce84     libucrt:ieee.obj
 0002:0000eeb4       $unwind$_log_special_common 000000018003ceb4     libucrt:log_special.obj
 0002:0000eec0       $unwind$?DloadObtainSection@@YAPEAXPEAK0@Z 000000018003cec0     DelayImp:delayhlp.obj
 0002:0000eed0       $unwind$?DloadMakePermanentImageCommit@@YAXPEAX_K@Z 000000018003ced0     DelayImp:delayhlp.obj
 0002:0000eedc       $unwind$?DloadProtectSection@@YAXKPEAK@Z 000000018003cedc     DelayImp:delayhlp.obj
 0002:0000eeec       $unwind$__delayLoadHelper2 000000018003ceec     DelayImp:delayhlp.obj
 0002:0000ef04       $unwind$_IsNonwritableInCurrentImage 000000018003cf04     LIBCMT:pesect.obj
 0002:0000ef28       $unwind$__GSHandlerCheckCommon 000000018003cf28     LIBCMT:_gshandler_.obj
 0002:0000ef30       $xdatasym                  000000018003cf30     LIBCMT:_chkstk_.obj
 0002:0000ef38       $unwind$strrchr            000000018003cf38     libvcruntime:strrchr.obj
 0002:0000ef40       $xdatasym                  000000018003cf40     libvcruntime:memcmp.obj
 0002:0000ef48       $xdatasym                  000000018003cf48     libvcruntime:_setjmp_.obj
 0002:0000ef50       $unwind$acos               000000018003cf50     libucrt:acos.obj
 0002:0000ef5c       $unwind$acosf              000000018003cf5c     libucrt:acosf.obj
 0002:0000ef68       $unwind$fmodf              000000018003cf68     libucrt:fmodf.obj
 0002:0000ef68       $unwind$sqrtf              000000018003cf68     libucrt:sqrtf.obj
 0002:0000ef70       $xdatasym                  000000018003cf70     libucrt:strcmp.obj
 0002:0000ef78       $xdatasym                  000000018003cf78     libucrt:tan.obj
 0002:0000ef94       $unwind$_sincos_special    000000018003cf94     libucrt:sincos_special.obj
 0002:0000efa0       $xdatasym                  000000018003cfa0     libucrt:remainder_piby2_forfma3.obj
 0002:0000efb0       $xdatasym                  000000018003cfb0     libucrt:remainder_piby2_forasm.obj
 0002:00010ef0       .edata                     000000018003eef0     canvas.exp
 0002:00010f18       rgpv                       000000018003ef18     canvas.exp
 0002:00010f1c       rgszName                   000000018003ef1c     canvas.exp
 0002:00010f20       rgwOrd                     000000018003ef20     canvas.exp
 0002:00010f22       szName                     000000018003ef22     canvas.exp
 0002:00010f2e       $N00001                    000000018003ef2e     canvas.exp
 0002:000115b4       .idata$6                   000000018003f5b4     kernel32:KERNEL32.dll
 0002:00011e4c       .idata$6                   000000018003fe4c     cairo:libcairo-2.dll
 0002:00011fd4       .idata$6                   000000018003ffd4     libpng:libpng14-14.dll
 0003:00000030       ?__vcrt_flsindex@@3KA      0000000180041030     libvcruntime:per_thread_data.obj
 0003:0000014c       errno_no_memory            000000018004114c     libucrt:errno.obj
 0003:00000150       doserrno_no_memory         0000000180041150     libucrt:errno.obj
 0003:00000154       __acrt_flsindex            0000000180041154     libucrt:per_thread_data.obj
 0003:00000640       __rgctypeflag              0000000180041640     libucrt:mbctype.obj
 0003:00000650       __rgcode_page_info         0000000180041650     libucrt:mbctype.obj
 0003:00000958       ?dazSupported@?1??_ctrlfp@@9@9 0000000180041958     libucrt:fpctrl.obj
 0003:00000a08       ?dazSupported@?1??common_control87@@9@9 0000000180041a08     libucrt:ieee.obj
 0003:00000a20       _module                    0000000180041a20     init.obj
 0003:00000e78       ?module_local_atexit_table@@3U_onexit_table_t@@A 0000000180041e78     LIBCMT:utility.obj
 0003:00000e90       ?module_local_at_quick_exit_table@@3U_onexit_table_t@@A 0000000180041e90     LIBCMT:utility.obj
 0003:00000ea8       ?is_initialized_as_dll@@3_NA 0000000180041ea8     LIBCMT:utility.obj
 0003:00000eac       ?__proc_attached@@3HA      0000000180041eac     LIBCMT:dll_dllmain.obj
 0003:00000eb0       GS_ExceptionRecord         0000000180041eb0     LIBCMT:gs_report.obj
 0003:00000f50       GS_ContextRecord           0000000180041f50     LIBCMT:gs_report.obj
 0003:00001450       ?__vcrt_startup_thread_ptd@@3U__vcrt_ptd@@A 0000000180042450     libvcruntime:per_thread_data.obj
 0003:000014c8       __vcrt_lock_table          00000001800424c8     libvcruntime:locks.obj
 0003:000014f0       __vcrt_locks_initialized   00000001800424f0     libvcruntime:locks.obj
 0003:00001500       ?module_handles@@3PAPEAUHINSTANCE__@@A 0000000180042500     libvcruntime:winapi_downlevel.obj
 0003:00001520       ?encoded_function_pointers@@3PAPEAXA 0000000180042520     libvcruntime:winapi_downlevel.obj
 0003:000015b8       ?heap@@3V_HeapManager@@A   00000001800425b8     libvcruntime:undname.obj
 0003:000015e0       __acrt_invalid_parameter_handler 00000001800425e0     libucrt:invalid_parameter.obj
 0003:00001600       __acrt_new_handler         0000000180042600     libucrt:new_handler.obj
 0003:00001608       c_termination_complete     0000000180042608     libucrt:exit.obj
 0003:00001610       thread_local_exit_callback_func 0000000180042610     libucrt:exit.obj
 0003:00001618       ?c_exit_complete@?5??common_exit@@YAXHW4_crt_exit_cleanup_mode@@W4_crt_exit_return_mode@@@Z@4_NA 0000000180042618     libucrt:exit.obj
 0003:00001620       ?program_name@?5???$common_configure_argv@D@@YAHW4_crt_argv_mode@@@Z@4PADA 0000000180042620     libucrt:argv_parsing.obj
 0003:00001778       __acrt_app_type            0000000180042778     libucrt:report_runtime_error.obj
 0003:0000177c       __acrt_error_mode          000000018004277c     libucrt:set_error_mode.obj
 0003:00001780       ctrlc_action               0000000180042780     libucrt:signal.obj
 0003:00001788       ctrlbreak_action           0000000180042788     libucrt:signal.obj
 0003:00001790       abort_action               0000000180042790     libucrt:signal.obj
 0003:00001798       term_action                0000000180042798     libucrt:signal.obj
 0003:000017a0       module_handles             00000001800427a0     libucrt:winapi_thunks.obj
 0003:00001840       encoded_function_pointers  0000000180042840     libucrt:winapi_thunks.obj
 0003:00001940       ?state_cache@?1??__acrt_is_packaged_app@@9@4JA 0000000180042940     libucrt:winapi_thunks.obj
 0003:00001d58       enable_percent_n           0000000180042d58     libucrt:printf_count_output.obj
 0003:00001d80       __acrt_lock_table          0000000180042d80     libucrt:locks.obj
 0003:00001f88       __acrt_locks_initialized   0000000180042f88     libucrt:locks.obj
 0003:00001fa4       fSystemSet                 0000000180042fa4     libucrt:mbctype.obj
 0003:00001fb0       ?initialized@?1??__acrt_initialize_multibyte@@9@4_NA 0000000180042fb0     libucrt:mbctype.obj
 0003:00001fe8       user_matherr               0000000180042fe8     libucrt:matherr.obj
 0003:00001ff0       __acrt_global_new_mode     0000000180042ff0     libucrt:new_mode.obj
 0004:00000000       $pdata$?FunctionCallbackWrapper@imp@Nan@@YAXAEBV?$FunctionCallbackInfo@VValue@v8@@@v8@@@Z 0000000180044000     Canvas.obj
 0004:0000000c       $pdata$?GetterCallbackWrapper@imp@Nan@@YAXV?$Local@VName@v8@@@v8@@AEBV?$PropertyCallbackInfo@VValue@v8@@@4@@Z 000000018004400c     Canvas.obj
 0004:00000018       $pdata$?SetterCallbackWrapper@imp@Nan@@YAXV?$Local@VName@v8@@@v8@@V?$Local@VValue@v8@@@4@AEBV?$PropertyCallbackInfo@X@4@@Z 0000000180044018     Canvas.obj
 0004:00000024       $pdata$?NewInstance@Nan@@YA?AV?$MaybeLocal@VObject@v8@@@v8@@V?$Local@VObjectTemplate@v8@@@3@@Z 0000000180044024     Canvas.obj
 0004:00000030       $pdata$?Set@Nan@@YA?AV?$Maybe@_N@v8@@V?$Local@VObject@v8@@@3@V?$Local@VValue@v8@@@3@1@Z 0000000180044030     Canvas.obj
 0004:0000003c       $pdata$?Call@Nan@@YA?AV?$MaybeLocal@VValue@v8@@@v8@@V?$Local@VFunction@v8@@@3@V?$Local@VObject@v8@@@3@HQEAV?$Local@VValue@v8@@@3@@Z 000000018004403c     Canvas.obj
 0004:00000048       $pdata$?convert@?$ToFactory@VUint32@v8@@@imp@Nan@@SA?AV?$MaybeLocal@VUint32@v8@@@v8@@V?$Local@VValue@v8@@@5@@Z 0000000180044048     Canvas.obj
 0004:00000054       $pdata$?New@?$Factory@VFunctionTemplate@v8@@@imp@Nan@@SA?AV?$Local@VFunctionTemplate@v8@@@v8@@P6AXAEBV?$FunctionCallbackInfo@VValue@v8@@@3@@ZV?$Local@VValue@v8@@@5@V?$Local@VSignature@v8@@@5@@Z 0000000180044054     Canvas.obj
 0004:00000060       $pdata$?AdjustExternalMemory@Nan@@YAHH@Z 0000000180044060     Canvas.obj
 0004:0000006c       $pdata$?ThrowRangeError@Nan@@YAXPEBD@Z 000000018004406c     Canvas.obj
 0004:00000078       $pdata$?ThrowTypeError@Nan@@YAXPEBD@Z 0000000180044078     Canvas.obj
 0004:00000084       $pdata$?Call@Callback@Nan@@QEBA?AV?$Local@VValue@v8@@@v8@@HQEAV34@@Z 0000000180044084     Canvas.obj
 0004:00000090       $pdata$?Call_@Callback@Nan@@AEBA?AV?$Local@VValue@v8@@@v8@@PEAVIsolate@4@V?$Local@VObject@v8@@@4@HQEAV34@@Z 0000000180044090     Canvas.obj
 0004:0000009c       $pdata$??_GCallback@Nan@@QEAAPEAXI@Z 000000018004409c     Canvas.obj
 0004:000000a8       $pdata$?SetPrototypeMethod@Nan@@YAXV?$Local@VFunctionTemplate@v8@@@v8@@PEBDP6AXAEBV?$FunctionCallbackInfo@VValue@v8@@@1@@Z@Z 00000001800440a8     Canvas.obj
 0004:000000b4       $pdata$?SetAccessor@Nan@@YAXV?$Local@VObjectTemplate@v8@@@v8@@V?$Local@VString@v8@@@3@P6AX1AEBV?$PropertyCallbackInfo@VValue@v8@@@1@@ZP6AX1V?$Local@VValue@v8@@@3@AEBV?$PropertyCallbackInfo@X@1@@Z4W4AccessControl@3@W4PropertyAttribute@3@V?$Local@VAccessorSignature@v8@@@3@@Z 00000001800440b4     Canvas.obj
 0004:000000c0       $pdata$??1ObjectWrap@Nan@@UEAA@XZ 00000001800440c0     Canvas.obj
 0004:000000cc       $pdata$?Wrap@ObjectWrap@Nan@@IEAAXV?$Local@VObject@v8@@@v8@@@Z 00000001800440cc     Canvas.obj
 0004:000000d8       $pdata$?Ref@ObjectWrap@Nan@@MEAAXXZ 00000001800440d8     Canvas.obj
 0004:000000e4       $pdata$?Unref@ObjectWrap@Nan@@MEAAXXZ 00000001800440e4     Canvas.obj
 0004:000000f0       $pdata$?WeakCallback@ObjectWrap@Nan@@CAXAEBV?$WeakCallbackInfo@VObjectWrap@Nan@@@v8@@@Z 00000001800440f0     Canvas.obj
 0004:000000fc       $pdata$??_GObjectWrap@Nan@@UEAAPEAXI@Z 00000001800440fc     Canvas.obj
 0004:00000108       $pdata$?closure_init@@YA?AW4_cairo_status@@PEAUclosure_t@@PEAVCanvas@@II@Z 0000000180044108     Canvas.obj
 0004:00000114       $pdata$?closure_destroy@@YAXPEAUclosure_t@@@Z 0000000180044114     Canvas.obj
 0004:00000120       $pdata$1$?closure_destroy@@YAXPEAUclosure_t@@@Z 0000000180044120     Canvas.obj
 0004:0000012c       $pdata$2$?closure_destroy@@YAXPEAUclosure_t@@@Z 000000018004412c     Canvas.obj
 0004:00000138       $pdata$?canvas_unpremultiply_data@@YAXPEAUpng_struct_def@@PEAUpng_row_info_struct@@PEAE@Z 0000000180044138     Canvas.obj
 0004:00000144       $pdata$0$?canvas_unpremultiply_data@@YAXPEAUpng_struct_def@@PEAUpng_row_info_struct@@PEAE@Z 0000000180044144     Canvas.obj
 0004:00000150       $pdata$1$?canvas_unpremultiply_data@@YAXPEAUpng_struct_def@@PEAUpng_row_info_struct@@PEAE@Z 0000000180044150     Canvas.obj
 0004:0000015c       $pdata$?canvas_write_png@@YA?AW4_cairo_status@@PEAU_cairo_surface@@P6AXPEAUpng_struct_def@@PEAE_K@ZPEAX@Z 000000018004415c     Canvas.obj
 0004:00000168       $pdata$?canvas_stream_write_func@@YAXPEAUpng_struct_def@@PEAE_K@Z 0000000180044168     Canvas.obj
 0004:00000174       $pdata$?Initialize@Canvas@@SAXV?$Local@VObject@v8@@@v8@@@Z 0000000180044174     Canvas.obj
 0004:00000180       $pdata$?New@Canvas@@SAXAEBV?$FunctionCallbackInfo@VValue@v8@@@Nan@@@Z 0000000180044180     Canvas.obj
 0004:0000018c       $pdata$?GetType@Canvas@@SAXV?$Local@VString@v8@@@v8@@AEBV?$PropertyCallbackInfo@VValue@v8@@@Nan@@@Z 000000018004418c     Canvas.obj
 0004:00000198       $pdata$?GetStride@Canvas@@SAXV?$Local@VString@v8@@@v8@@AEBV?$PropertyCallbackInfo@VValue@v8@@@Nan@@@Z 0000000180044198     Canvas.obj
 0004:000001a4       $pdata$?GetWidth@ImageData@@SAXV?$Local@VString@v8@@@v8@@AEBV?$PropertyCallbackInfo@VValue@v8@@@Nan@@@Z 00000001800441a4     ImageData.obj
 0004:000001a4       $pdata$?GetWidth@Canvas@@SAXV?$Local@VString@v8@@@v8@@AEBV?$PropertyCallbackInfo@VValue@v8@@@Nan@@@Z 00000001800441a4     Canvas.obj
 0004:000001b0       $pdata$?SetWidth@Canvas@@SAXV?$Local@VString@v8@@@v8@@V?$Local@VValue@v8@@@3@AEBV?$PropertyCallbackInfo@X@Nan@@@Z 00000001800441b0     Canvas.obj
 0004:000001bc       $pdata$0$?SetWidth@Canvas@@SAXV?$Local@VString@v8@@@v8@@V?$Local@VValue@v8@@@3@AEBV?$PropertyCallbackInfo@X@Nan@@@Z 00000001800441bc     Canvas.obj
 0004:000001c8       $pdata$1$?SetWidth@Canvas@@SAXV?$Local@VString@v8@@@v8@@V?$Local@VValue@v8@@@3@AEBV?$PropertyCallbackInfo@X@Nan@@@Z 00000001800441c8     Canvas.obj
 0004:000001d4       $pdata$?GetHeight@Canvas@@SAXV?$Local@VString@v8@@@v8@@AEBV?$PropertyCallbackInfo@VValue@v8@@@Nan@@@Z 00000001800441d4     Canvas.obj
 0004:000001d4       $pdata$?GetHeight@ImageData@@SAXV?$Local@VString@v8@@@v8@@AEBV?$PropertyCallbackInfo@VValue@v8@@@Nan@@@Z 00000001800441d4     ImageData.obj
 0004:000001e0       $pdata$?SetHeight@Canvas@@SAXV?$Local@VString@v8@@@v8@@V?$Local@VValue@v8@@@3@AEBV?$PropertyCallbackInfo@X@Nan@@@Z 00000001800441e0     Canvas.obj
 0004:000001ec       $pdata$0$?SetHeight@Canvas@@SAXV?$Local@VString@v8@@@v8@@V?$Local@VValue@v8@@@3@AEBV?$PropertyCallbackInfo@X@Nan@@@Z 00000001800441ec     Canvas.obj
 0004:000001f8       $pdata$1$?SetHeight@Canvas@@SAXV?$Local@VString@v8@@@v8@@V?$Local@VValue@v8@@@3@AEBV?$PropertyCallbackInfo@X@Nan@@@Z 00000001800441f8     Canvas.obj
 0004:00000204       $pdata$?toBuffer@@YA?AW4_cairo_status@@PEAXPEBEI@Z 0000000180044204     Canvas.obj
 0004:00000210       $pdata$?ToBufferAsync@Canvas@@SAXPEAUuv_work_s@@@Z 0000000180044210     Canvas.obj
 0004:0000021c       $pdata$?ToBufferAsyncAfter@Canvas@@SAXPEAUuv_work_s@@@Z 000000018004421c     Canvas.obj
 0004:00000228       $pdata$?ToBuffer@Canvas@@SAXAEBV?$FunctionCallbackInfo@VValue@v8@@@Nan@@@Z 0000000180044228     Canvas.obj
 0004:00000234       $pdata$?streamPNG@@YA?AW4_cairo_status@@PEAXPEBEI@Z 0000000180044234     Canvas.obj
 0004:00000240       $pdata$?StreamPNGSync@Canvas@@SAXAEBV?$FunctionCallbackInfo@VValue@v8@@@Nan@@@Z 0000000180044240     Canvas.obj
 0004:0000024c       $pdata$?streamPDF@@YA?AW4_cairo_status@@PEAXPEBEI@Z 000000018004424c     Canvas.obj
 0004:00000258       $pdata$?StreamPDFSync@Canvas@@SAXAEBV?$FunctionCallbackInfo@VValue@v8@@@Nan@@@Z 0000000180044258     Canvas.obj
 0004:00000264       $pdata$??0Canvas@@QEAA@HHW4canvas_type_t@@@Z 0000000180044264     Canvas.obj
 0004:00000270       $pdata$??_GCanvas@@EEAAPEAXI@Z 0000000180044270     Canvas.obj
 0004:0000027c       $pdata$??1Canvas@@EEAA@XZ  000000018004427c     Canvas.obj
 0004:00000288       $pdata$?resurface@Canvas@@QEAAXV?$Local@VObject@v8@@@v8@@@Z 0000000180044288     Canvas.obj
 0004:00000294       $pdata$??$Unwrap@VImage@@@ObjectWrap@Nan@@SAPEAVImage@@V?$Local@VObject@v8@@@v8@@@Z 0000000180044294     CanvasPattern.obj
 0004:00000294       $pdata$??$Unwrap@VPattern@@@ObjectWrap@Nan@@SAPEAVPattern@@V?$Local@VObject@v8@@@v8@@@Z 0000000180044294     CanvasRenderingContext2d.obj
 0004:00000294       $pdata$??$Unwrap@VContext2d@@@ObjectWrap@Nan@@SAPEAVContext2d@@V?$Local@VObject@v8@@@v8@@@Z 0000000180044294     Canvas.obj
 0004:00000294       $pdata$??$Unwrap@VGradient@@@ObjectWrap@Nan@@SAPEAVGradient@@V?$Local@VObject@v8@@@v8@@@Z 0000000180044294     CanvasGradient.obj
 0004:00000294       $pdata$??$Unwrap@VCanvas@@@ObjectWrap@Nan@@SAPEAVCanvas@@V?$Local@VObject@v8@@@v8@@@Z 0000000180044294     Canvas.obj
 0004:00000294       $pdata$??$Unwrap@VImageData@@@ObjectWrap@Nan@@SAPEAVImageData@@V?$Local@VObject@v8@@@v8@@@Z 0000000180044294     CanvasRenderingContext2d.obj
 0004:000002a0       $pdata$?Initialize@Gradient@@SAXV?$Local@VObject@v8@@@v8@@@Z 00000001800442a0     CanvasGradient.obj
 0004:000002ac       $pdata$?New@Gradient@@SAXAEBV?$FunctionCallbackInfo@VValue@v8@@@Nan@@@Z 00000001800442ac     CanvasGradient.obj
 0004:000002b8       $pdata$?AddColorStop@Gradient@@SAXAEBV?$FunctionCallbackInfo@VValue@v8@@@Nan@@@Z 00000001800442b8     CanvasGradient.obj
 0004:000002c4       $pdata$??_GPattern@@EEAAPEAXI@Z 00000001800442c4     CanvasPattern.obj
 0004:000002c4       $pdata$??_GGradient@@EEAAPEAXI@Z 00000001800442c4     CanvasGradient.obj
 0004:000002d0       $pdata$?ThrowError@Nan@@YAXPEBD@Z 00000001800442d0     CanvasPattern.obj
 0004:000002dc       $pdata$?Initialize@Pattern@@SAXV?$Local@VObject@v8@@@v8@@@Z 00000001800442dc     CanvasPattern.obj
 0004:000002e8       $pdata$?New@Pattern@@SAXAEBV?$FunctionCallbackInfo@VValue@v8@@@Nan@@@Z 00000001800442e8     CanvasPattern.obj
 0004:000002f4       $pdata$1$?New@Pattern@@SAXAEBV?$FunctionCallbackInfo@VValue@v8@@@Nan@@@Z 00000001800442f4     CanvasPattern.obj
 0004:00000300       $pdata$3$?New@Pattern@@SAXAEBV?$FunctionCallbackInfo@VValue@v8@@@Nan@@@Z 0000000180044300     CanvasPattern.obj
 0004:0000030c       $pdata$5$?New@Pattern@@SAXAEBV?$FunctionCallbackInfo@VValue@v8@@@Nan@@@Z 000000018004430c     CanvasPattern.obj
 0004:00000318       $pdata$7$?New@Pattern@@SAXAEBV?$FunctionCallbackInfo@VValue@v8@@@Nan@@@Z 0000000180044318     CanvasPattern.obj
 0004:00000324       $pdata$?NewInstance@Nan@@YA?AV?$MaybeLocal@VObject@v8@@@v8@@V?$Local@VFunction@v8@@@3@HQEAV?$Local@VValue@v8@@@3@@Z 0000000180044324     CanvasRenderingContext2d.obj
 0004:00000330       $pdata$?GetFunction@Nan@@YA?AV?$MaybeLocal@VFunction@v8@@@v8@@V?$Local@VFunctionTemplate@v8@@@3@@Z 0000000180044330     CanvasRenderingContext2d.obj
 0004:0000033c       $pdata$?convert@?$ToFactory@VInt32@v8@@@imp@Nan@@SA?AV?$MaybeLocal@VInt32@v8@@@v8@@V?$Local@VValue@v8@@@5@@Z 000000018004433c     CanvasRenderingContext2d.obj
 0004:00000348       $pdata$?Initialize@Context2d@@SAXV?$Local@VObject@v8@@@v8@@@Z 0000000180044348     CanvasRenderingContext2d.obj
 0004:00000354       $pdata$??0Context2d@@QEAA@PEAVCanvas@@@Z 0000000180044354     CanvasRenderingContext2d.obj
 0004:00000360       $pdata$??_GContext2d@@EEAAPEAXI@Z 0000000180044360     CanvasRenderingContext2d.obj
 0004:0000036c       $pdata$?saveState@Context2d@@QEAAXXZ 000000018004436c     CanvasRenderingContext2d.obj
 0004:00000378       $pdata$?savePath@Context2d@@QEAAXXZ 0000000180044378     CanvasRenderingContext2d.obj
 0004:00000384       $pdata$?restorePath@Context2d@@QEAAXXZ 0000000180044384     CanvasRenderingContext2d.obj
 0004:00000390       $pdata$?setFillRule@Context2d@@QEAAXV?$Local@VValue@v8@@@v8@@@Z 0000000180044390     CanvasRenderingContext2d.obj
 0004:0000039c       $pdata$?fill@Context2d@@QEAAX_N@Z 000000018004439c     CanvasRenderingContext2d.obj
 0004:000003a8       $pdata$?stroke@Context2d@@QEAAX_N@Z 00000001800443a8     CanvasRenderingContext2d.obj
 0004:000003b4       $pdata$?shadow@Context2d@@QEAAXP6AXPEAU_cairo@@@Z@Z 00000001800443b4     CanvasRenderingContext2d.obj
 0004:000003c0       $pdata$3$?shadow@Context2d@@QEAAXP6AXPEAU_cairo@@@Z@Z 00000001800443c0     CanvasRenderingContext2d.obj
 0004:000003cc       $pdata$4$?shadow@Context2d@@QEAAXP6AXPEAU_cairo@@@Z@Z 00000001800443cc     CanvasRenderingContext2d.obj
 0004:000003d8       $pdata$?blur@Context2d@@QEAAXPEAU_cairo_surface@@H@Z 00000001800443d8     CanvasRenderingContext2d.obj
 0004:000003e4       $pdata$?New@Context2d@@SAXAEBV?$FunctionCallbackInfo@VValue@v8@@@Nan@@@Z 00000001800443e4     CanvasRenderingContext2d.obj
 0004:000003f0       $pdata$0$?New@Context2d@@SAXAEBV?$FunctionCallbackInfo@VValue@v8@@@Nan@@@Z 00000001800443f0     CanvasRenderingContext2d.obj
 0004:000003fc       $pdata$2$?New@Context2d@@SAXAEBV?$FunctionCallbackInfo@VValue@v8@@@Nan@@@Z 00000001800443fc     CanvasRenderingContext2d.obj
 0004:00000408       $pdata$4$?New@Context2d@@SAXAEBV?$FunctionCallbackInfo@VValue@v8@@@Nan@@@Z 0000000180044408     CanvasRenderingContext2d.obj
 0004:00000414       $pdata$?AddPage@Context2d@@SAXAEBV?$FunctionCallbackInfo@VValue@v8@@@Nan@@@Z 0000000180044414     CanvasRenderingContext2d.obj
 0004:00000420       $pdata$?PutImageData@Context2d@@SAXAEBV?$FunctionCallbackInfo@VValue@v8@@@Nan@@@Z 0000000180044420     CanvasRenderingContext2d.obj
 0004:0000042c       $pdata$0$?PutImageData@Context2d@@SAXAEBV?$FunctionCallbackInfo@VValue@v8@@@Nan@@@Z 000000018004442c     CanvasRenderingContext2d.obj
 0004:00000438       $pdata$8$?PutImageData@Context2d@@SAXAEBV?$FunctionCallbackInfo@VValue@v8@@@Nan@@@Z 0000000180044438     CanvasRenderingContext2d.obj
 0004:00000444       $pdata$?GetImageData@Context2d@@SAXAEBV?$FunctionCallbackInfo@VValue@v8@@@Nan@@@Z 0000000180044444     CanvasRenderingContext2d.obj
 0004:00000450       $pdata$1$?GetImageData@Context2d@@SAXAEBV?$FunctionCallbackInfo@VValue@v8@@@Nan@@@Z 0000000180044450     CanvasRenderingContext2d.obj
 0004:0000045c       $pdata$2$?GetImageData@Context2d@@SAXAEBV?$FunctionCallbackInfo@VValue@v8@@@Nan@@@Z 000000018004445c     CanvasRenderingContext2d.obj
 0004:00000468       $pdata$?DrawImage@Context2d@@SAXAEBV?$FunctionCallbackInfo@VValue@v8@@@Nan@@@Z 0000000180044468     CanvasRenderingContext2d.obj
 0004:00000474       $pdata$4$?DrawImage@Context2d@@SAXAEBV?$FunctionCallbackInfo@VValue@v8@@@Nan@@@Z 0000000180044474     CanvasRenderingContext2d.obj
 0004:00000480       $pdata$12$?DrawImage@Context2d@@SAXAEBV?$FunctionCallbackInfo@VValue@v8@@@Nan@@@Z 0000000180044480     CanvasRenderingContext2d.obj
 0004:0000048c       $pdata$13$?DrawImage@Context2d@@SAXAEBV?$FunctionCallbackInfo@VValue@v8@@@Nan@@@Z 000000018004448c     CanvasRenderingContext2d.obj
 0004:00000498       $pdata$15$?DrawImage@Context2d@@SAXAEBV?$FunctionCallbackInfo@VValue@v8@@@Nan@@@Z 0000000180044498     CanvasRenderingContext2d.obj
 0004:000004a4       $pdata$17$?DrawImage@Context2d@@SAXAEBV?$FunctionCallbackInfo@VValue@v8@@@Nan@@@Z 00000001800444a4     CanvasRenderingContext2d.obj
 0004:000004b0       $pdata$19$?DrawImage@Context2d@@SAXAEBV?$FunctionCallbackInfo@VValue@v8@@@Nan@@@Z 00000001800444b0     CanvasRenderingContext2d.obj
 0004:000004bc       $pdata$20$?DrawImage@Context2d@@SAXAEBV?$FunctionCallbackInfo@VValue@v8@@@Nan@@@Z 00000001800444bc     CanvasRenderingContext2d.obj
 0004:000004c8       $pdata$?GetGlobalAlpha@Context2d@@SAXV?$Local@VString@v8@@@v8@@AEBV?$PropertyCallbackInfo@VValue@v8@@@Nan@@@Z 00000001800444c8     CanvasRenderingContext2d.obj
 0004:000004d4       $pdata$?SetGlobalAlpha@Context2d@@SAXV?$Local@VString@v8@@@v8@@V?$Local@VValue@v8@@@3@AEBV?$PropertyCallbackInfo@X@Nan@@@Z 00000001800444d4     CanvasRenderingContext2d.obj
 0004:000004e0       $pdata$?GetGlobalCompositeOperation@Context2d@@SAXV?$Local@VString@v8@@@v8@@AEBV?$PropertyCallbackInfo@VValue@v8@@@Nan@@@Z 00000001800444e0     CanvasRenderingContext2d.obj
 0004:000004ec       $pdata$?SetPatternQuality@Context2d@@SAXV?$Local@VString@v8@@@v8@@V?$Local@VValue@v8@@@3@AEBV?$PropertyCallbackInfo@X@Nan@@@Z 00000001800444ec     CanvasRenderingContext2d.obj
 0004:000004f8       $pdata$?GetPatternQuality@Context2d@@SAXV?$Local@VString@v8@@@v8@@AEBV?$PropertyCallbackInfo@VValue@v8@@@Nan@@@Z 00000001800444f8     CanvasRenderingContext2d.obj
 0004:00000504       $pdata$?SetGlobalCompositeOperation@Context2d@@SAXV?$Local@VString@v8@@@v8@@V?$Local@VValue@v8@@@3@AEBV?$PropertyCallbackInfo@X@Nan@@@Z 0000000180044504     CanvasRenderingContext2d.obj
 0004:00000510       $pdata$?GetShadowOffsetX@Context2d@@SAXV?$Local@VString@v8@@@v8@@AEBV?$PropertyCallbackInfo@VValue@v8@@@Nan@@@Z 0000000180044510     CanvasRenderingContext2d.obj
 0004:0000051c       $pdata$?SetShadowOffsetX@Context2d@@SAXV?$Local@VString@v8@@@v8@@V?$Local@VValue@v8@@@3@AEBV?$PropertyCallbackInfo@X@Nan@@@Z 000000018004451c     CanvasRenderingContext2d.obj
 0004:00000528       $pdata$?GetShadowOffsetY@Context2d@@SAXV?$Local@VString@v8@@@v8@@AEBV?$PropertyCallbackInfo@VValue@v8@@@Nan@@@Z 0000000180044528     CanvasRenderingContext2d.obj
 0004:00000534       $pdata$?SetShadowOffsetY@Context2d@@SAXV?$Local@VString@v8@@@v8@@V?$Local@VValue@v8@@@3@AEBV?$PropertyCallbackInfo@X@Nan@@@Z 0000000180044534     CanvasRenderingContext2d.obj
 0004:00000540       $pdata$?GetShadowBlur@Context2d@@SAXV?$Local@VString@v8@@@v8@@AEBV?$PropertyCallbackInfo@VValue@v8@@@Nan@@@Z 0000000180044540     CanvasRenderingContext2d.obj
 0004:0000054c       $pdata$?SetShadowBlur@Context2d@@SAXV?$Local@VString@v8@@@v8@@V?$Local@VValue@v8@@@3@AEBV?$PropertyCallbackInfo@X@Nan@@@Z 000000018004454c     CanvasRenderingContext2d.obj
 0004:00000558       $pdata$?GetAntiAlias@Context2d@@SAXV?$Local@VString@v8@@@v8@@AEBV?$PropertyCallbackInfo@VValue@v8@@@Nan@@@Z 0000000180044558     CanvasRenderingContext2d.obj
 0004:00000564       $pdata$?SetAntiAlias@Context2d@@SAXV?$Local@VString@v8@@@v8@@V?$Local@VValue@v8@@@3@AEBV?$PropertyCallbackInfo@X@Nan@@@Z 0000000180044564     CanvasRenderingContext2d.obj
 0004:00000570       $pdata$?GetTextDrawingMode@Context2d@@SAXV?$Local@VString@v8@@@v8@@AEBV?$PropertyCallbackInfo@VValue@v8@@@Nan@@@Z 0000000180044570     CanvasRenderingContext2d.obj
 0004:0000057c       $pdata$?SetTextDrawingMode@Context2d@@SAXV?$Local@VString@v8@@@v8@@V?$Local@VValue@v8@@@3@AEBV?$PropertyCallbackInfo@X@Nan@@@Z 000000018004457c     CanvasRenderingContext2d.obj
 0004:00000588       $pdata$?GetFilter@Context2d@@SAXV?$Local@VString@v8@@@v8@@AEBV?$PropertyCallbackInfo@VValue@v8@@@Nan@@@Z 0000000180044588     CanvasRenderingContext2d.obj
 0004:00000594       $pdata$?SetFilter@Context2d@@SAXV?$Local@VString@v8@@@v8@@V?$Local@VValue@v8@@@3@AEBV?$PropertyCallbackInfo@X@Nan@@@Z 0000000180044594     CanvasRenderingContext2d.obj
 0004:000005a0       $pdata$?GetMiterLimit@Context2d@@SAXV?$Local@VString@v8@@@v8@@AEBV?$PropertyCallbackInfo@VValue@v8@@@Nan@@@Z 00000001800445a0     CanvasRenderingContext2d.obj
 0004:000005ac       $pdata$?SetMiterLimit@Context2d@@SAXV?$Local@VString@v8@@@v8@@V?$Local@VValue@v8@@@3@AEBV?$PropertyCallbackInfo@X@Nan@@@Z 00000001800445ac     CanvasRenderingContext2d.obj
 0004:000005b8       $pdata$?GetLineWidth@Context2d@@SAXV?$Local@VString@v8@@@v8@@AEBV?$PropertyCallbackInfo@VValue@v8@@@Nan@@@Z 00000001800445b8     CanvasRenderingContext2d.obj
 0004:000005c4       $pdata$?SetLineWidth@Context2d@@SAXV?$Local@VString@v8@@@v8@@V?$Local@VValue@v8@@@3@AEBV?$PropertyCallbackInfo@X@Nan@@@Z 00000001800445c4     CanvasRenderingContext2d.obj
 0004:000005d0       $pdata$?GetLineJoin@Context2d@@SAXV?$Local@VString@v8@@@v8@@AEBV?$PropertyCallbackInfo@VValue@v8@@@Nan@@@Z 00000001800445d0     CanvasRenderingContext2d.obj
 0004:000005dc       $pdata$?SetLineJoin@Context2d@@SAXV?$Local@VString@v8@@@v8@@V?$Local@VValue@v8@@@3@AEBV?$PropertyCallbackInfo@X@Nan@@@Z 00000001800445dc     CanvasRenderingContext2d.obj
 0004:000005e8       $pdata$?GetLineCap@Context2d@@SAXV?$Local@VString@v8@@@v8@@AEBV?$PropertyCallbackInfo@VValue@v8@@@Nan@@@Z 00000001800445e8     CanvasRenderingContext2d.obj
 0004:000005f4       $pdata$?SetLineCap@Context2d@@SAXV?$Local@VString@v8@@@v8@@V?$Local@VValue@v8@@@3@AEBV?$PropertyCallbackInfo@X@Nan@@@Z 00000001800445f4     CanvasRenderingContext2d.obj
 0004:00000600       $pdata$?IsPointInPath@Context2d@@SAXAEBV?$FunctionCallbackInfo@VValue@v8@@@Nan@@@Z 0000000180044600     CanvasRenderingContext2d.obj
 0004:0000060c       $pdata$3$?IsPointInPath@Context2d@@SAXAEBV?$FunctionCallbackInfo@VValue@v8@@@Nan@@@Z 000000018004460c     CanvasRenderingContext2d.obj
 0004:00000618       $pdata$4$?IsPointInPath@Context2d@@SAXAEBV?$FunctionCallbackInfo@VValue@v8@@@Nan@@@Z 0000000180044618     CanvasRenderingContext2d.obj
 0004:00000624       $pdata$?SetFillPattern@Context2d@@SAXAEBV?$FunctionCallbackInfo@VValue@v8@@@Nan@@@Z 0000000180044624     CanvasRenderingContext2d.obj
 0004:00000630       $pdata$1$?SetFillPattern@Context2d@@SAXAEBV?$FunctionCallbackInfo@VValue@v8@@@Nan@@@Z 0000000180044630     CanvasRenderingContext2d.obj
 0004:0000063c       $pdata$3$?SetFillPattern@Context2d@@SAXAEBV?$FunctionCallbackInfo@VValue@v8@@@Nan@@@Z 000000018004463c     CanvasRenderingContext2d.obj
 0004:00000648       $pdata$5$?SetFillPattern@Context2d@@SAXAEBV?$FunctionCallbackInfo@VValue@v8@@@Nan@@@Z 0000000180044648     CanvasRenderingContext2d.obj
 0004:00000654       $pdata$?SetStrokePattern@Context2d@@SAXAEBV?$FunctionCallbackInfo@VValue@v8@@@Nan@@@Z 0000000180044654     CanvasRenderingContext2d.obj
 0004:00000660       $pdata$1$?SetStrokePattern@Context2d@@SAXAEBV?$FunctionCallbackInfo@VValue@v8@@@Nan@@@Z 0000000180044660     CanvasRenderingContext2d.obj
 0004:0000066c       $pdata$3$?SetStrokePattern@Context2d@@SAXAEBV?$FunctionCallbackInfo@VValue@v8@@@Nan@@@Z 000000018004466c     CanvasRenderingContext2d.obj
 0004:00000678       $pdata$5$?SetStrokePattern@Context2d@@SAXAEBV?$FunctionCallbackInfo@VValue@v8@@@Nan@@@Z 0000000180044678     CanvasRenderingContext2d.obj
 0004:00000684       $pdata$?SetShadowColor@Context2d@@SAXV?$Local@VString@v8@@@v8@@V?$Local@VValue@v8@@@3@AEBV?$PropertyCallbackInfo@X@Nan@@@Z 0000000180044684     CanvasRenderingContext2d.obj
 0004:00000690       $pdata$?GetShadowColor@Context2d@@SAXV?$Local@VString@v8@@@v8@@AEBV?$PropertyCallbackInfo@VValue@v8@@@Nan@@@Z 0000000180044690     CanvasRenderingContext2d.obj
 0004:0000069c       $pdata$?SetFillColor@Context2d@@SAXAEBV?$FunctionCallbackInfo@VValue@v8@@@Nan@@@Z 000000018004469c     CanvasRenderingContext2d.obj
 0004:000006a8       $pdata$?GetFillColor@Context2d@@SAXV?$Local@VString@v8@@@v8@@AEBV?$PropertyCallbackInfo@VValue@v8@@@Nan@@@Z 00000001800446a8     CanvasRenderingContext2d.obj
 0004:000006b4       $pdata$?SetStrokeColor@Context2d@@SAXAEBV?$FunctionCallbackInfo@VValue@v8@@@Nan@@@Z 00000001800446b4     CanvasRenderingContext2d.obj
 0004:000006c0       $pdata$?GetStrokeColor@Context2d@@SAXV?$Local@VString@v8@@@v8@@AEBV?$PropertyCallbackInfo@VValue@v8@@@Nan@@@Z 00000001800446c0     CanvasRenderingContext2d.obj
 0004:000006cc       $pdata$?BezierCurveTo@Context2d@@SAXAEBV?$FunctionCallbackInfo@VValue@v8@@@Nan@@@Z 00000001800446cc     CanvasRenderingContext2d.obj
 0004:000006d8       $pdata$9$?BezierCurveTo@Context2d@@SAXAEBV?$FunctionCallbackInfo@VValue@v8@@@Nan@@@Z 00000001800446d8     CanvasRenderingContext2d.obj
 0004:000006e4       $pdata$10$?BezierCurveTo@Context2d@@SAXAEBV?$FunctionCallbackInfo@VValue@v8@@@Nan@@@Z 00000001800446e4     CanvasRenderingContext2d.obj
 0004:000006f0       $pdata$?QuadraticCurveTo@Context2d@@SAXAEBV?$FunctionCallbackInfo@VValue@v8@@@Nan@@@Z 00000001800446f0     CanvasRenderingContext2d.obj
 0004:000006fc       $pdata$4$?QuadraticCurveTo@Context2d@@SAXAEBV?$FunctionCallbackInfo@VValue@v8@@@Nan@@@Z 00000001800446fc     CanvasRenderingContext2d.obj
 0004:00000708       $pdata$5$?QuadraticCurveTo@Context2d@@SAXAEBV?$FunctionCallbackInfo@VValue@v8@@@Nan@@@Z 0000000180044708     CanvasRenderingContext2d.obj
 0004:00000714       $pdata$?Save@Context2d@@SAXAEBV?$FunctionCallbackInfo@VValue@v8@@@Nan@@@Z 0000000180044714     CanvasRenderingContext2d.obj
 0004:00000720       $pdata$?Restore@Context2d@@SAXAEBV?$FunctionCallbackInfo@VValue@v8@@@Nan@@@Z 0000000180044720     CanvasRenderingContext2d.obj
 0004:0000072c       $pdata$?BeginPath@Context2d@@SAXAEBV?$FunctionCallbackInfo@VValue@v8@@@Nan@@@Z 000000018004472c     CanvasRenderingContext2d.obj
 0004:00000738       $pdata$?ClosePath@Context2d@@SAXAEBV?$FunctionCallbackInfo@VValue@v8@@@Nan@@@Z 0000000180044738     CanvasRenderingContext2d.obj
 0004:00000744       $pdata$?Rotate@Context2d@@SAXAEBV?$FunctionCallbackInfo@VValue@v8@@@Nan@@@Z 0000000180044744     CanvasRenderingContext2d.obj
 0004:00000750       $pdata$?Transform@Context2d@@SAXAEBV?$FunctionCallbackInfo@VValue@v8@@@Nan@@@Z 0000000180044750     CanvasRenderingContext2d.obj
 0004:0000075c       $pdata$?ResetTransform@Context2d@@SAXAEBV?$FunctionCallbackInfo@VValue@v8@@@Nan@@@Z 000000018004475c     CanvasRenderingContext2d.obj
 0004:00000768       $pdata$?Translate@Context2d@@SAXAEBV?$FunctionCallbackInfo@VValue@v8@@@Nan@@@Z 0000000180044768     CanvasRenderingContext2d.obj
 0004:00000774       $pdata$?Scale@Context2d@@SAXAEBV?$FunctionCallbackInfo@VValue@v8@@@Nan@@@Z 0000000180044774     CanvasRenderingContext2d.obj
 0004:00000780       $pdata$?Clip@Context2d@@SAXAEBV?$FunctionCallbackInfo@VValue@v8@@@Nan@@@Z 0000000180044780     CanvasRenderingContext2d.obj
 0004:0000078c       $pdata$?Fill@Context2d@@SAXAEBV?$FunctionCallbackInfo@VValue@v8@@@Nan@@@Z 000000018004478c     CanvasRenderingContext2d.obj
 0004:00000798       $pdata$?Stroke@Context2d@@SAXAEBV?$FunctionCallbackInfo@VValue@v8@@@Nan@@@Z 0000000180044798     CanvasRenderingContext2d.obj
 0004:000007a4       $pdata$?FillText@Context2d@@SAXAEBV?$FunctionCallbackInfo@VValue@v8@@@Nan@@@Z 00000001800447a4     CanvasRenderingContext2d.obj
 0004:000007b0       $pdata$?StrokeText@Context2d@@SAXAEBV?$FunctionCallbackInfo@VValue@v8@@@Nan@@@Z 00000001800447b0     CanvasRenderingContext2d.obj
 0004:000007bc       $pdata$?setTextPath@Context2d@@QEAAXPEBDNN@Z 00000001800447bc     CanvasRenderingContext2d.obj
 0004:000007c8       $pdata$?LineTo@Context2d@@SAXAEBV?$FunctionCallbackInfo@VValue@v8@@@Nan@@@Z 00000001800447c8     CanvasRenderingContext2d.obj
 0004:000007d4       $pdata$?MoveTo@Context2d@@SAXAEBV?$FunctionCallbackInfo@VValue@v8@@@Nan@@@Z 00000001800447d4     CanvasRenderingContext2d.obj
 0004:000007e0       $pdata$?SetFont@Context2d@@SAXAEBV?$FunctionCallbackInfo@VValue@v8@@@Nan@@@Z 00000001800447e0     CanvasRenderingContext2d.obj
 0004:000007ec       $pdata$?MeasureText@Context2d@@SAXAEBV?$FunctionCallbackInfo@VValue@v8@@@Nan@@@Z 00000001800447ec     CanvasRenderingContext2d.obj
 0004:000007f8       $pdata$?SetTextBaseline@Context2d@@SAXAEBV?$FunctionCallbackInfo@VValue@v8@@@Nan@@@Z 00000001800447f8     CanvasRenderingContext2d.obj
 0004:00000804       $pdata$0$?SetTextBaseline@Context2d@@SAXAEBV?$FunctionCallbackInfo@VValue@v8@@@Nan@@@Z 0000000180044804     CanvasRenderingContext2d.obj
 0004:00000810       $pdata$1$?SetTextBaseline@Context2d@@SAXAEBV?$FunctionCallbackInfo@VValue@v8@@@Nan@@@Z 0000000180044810     CanvasRenderingContext2d.obj
 0004:0000081c       $pdata$?SetTextAlignment@Context2d@@SAXAEBV?$FunctionCallbackInfo@VValue@v8@@@Nan@@@Z 000000018004481c     CanvasRenderingContext2d.obj
 0004:00000828       $pdata$0$?SetTextAlignment@Context2d@@SAXAEBV?$FunctionCallbackInfo@VValue@v8@@@Nan@@@Z 0000000180044828     CanvasRenderingContext2d.obj
 0004:00000834       $pdata$1$?SetTextAlignment@Context2d@@SAXAEBV?$FunctionCallbackInfo@VValue@v8@@@Nan@@@Z 0000000180044834     CanvasRenderingContext2d.obj
 0004:00000840       $pdata$?SetLineDash@Context2d@@SAXAEBV?$FunctionCallbackInfo@VValue@v8@@@Nan@@@Z 0000000180044840     CanvasRenderingContext2d.obj
 0004:0000084c       $pdata$?GetLineDash@Context2d@@SAXAEBV?$FunctionCallbackInfo@VValue@v8@@@Nan@@@Z 000000018004484c     CanvasRenderingContext2d.obj
 0004:00000858       $pdata$?SetLineDashOffset@Context2d@@SAXV?$Local@VString@v8@@@v8@@V?$Local@VValue@v8@@@3@AEBV?$PropertyCallbackInfo@X@Nan@@@Z 0000000180044858     CanvasRenderingContext2d.obj
 0004:00000864       $pdata$4$?SetLineDashOffset@Context2d@@SAXV?$Local@VString@v8@@@v8@@V?$Local@VValue@v8@@@3@AEBV?$PropertyCallbackInfo@X@Nan@@@Z 0000000180044864     CanvasRenderingContext2d.obj
 0004:00000870       $pdata$5$?SetLineDashOffset@Context2d@@SAXV?$Local@VString@v8@@@v8@@V?$Local@VValue@v8@@@3@AEBV?$PropertyCallbackInfo@X@Nan@@@Z 0000000180044870     CanvasRenderingContext2d.obj
 0004:0000087c       $pdata$6$?SetLineDashOffset@Context2d@@SAXV?$Local@VString@v8@@@v8@@V?$Local@VValue@v8@@@3@AEBV?$PropertyCallbackInfo@X@Nan@@@Z 000000018004487c     CanvasRenderingContext2d.obj
 0004:00000888       $pdata$?GetLineDashOffset@Context2d@@SAXV?$Local@VString@v8@@@v8@@AEBV?$PropertyCallbackInfo@VValue@v8@@@Nan@@@Z 0000000180044888     CanvasRenderingContext2d.obj
 0004:00000894       $pdata$?FillRect@Context2d@@SAXAEBV?$FunctionCallbackInfo@VValue@v8@@@Nan@@@Z 0000000180044894     CanvasRenderingContext2d.obj
 0004:000008a0       $pdata$3$?FillRect@Context2d@@SAXAEBV?$FunctionCallbackInfo@VValue@v8@@@Nan@@@Z 00000001800448a0     CanvasRenderingContext2d.obj
 0004:000008ac       $pdata$4$?FillRect@Context2d@@SAXAEBV?$FunctionCallbackInfo@VValue@v8@@@Nan@@@Z 00000001800448ac     CanvasRenderingContext2d.obj
 0004:000008b8       $pdata$5$?FillRect@Context2d@@SAXAEBV?$FunctionCallbackInfo@VValue@v8@@@Nan@@@Z 00000001800448b8     CanvasRenderingContext2d.obj
 0004:000008c4       $pdata$6$?FillRect@Context2d@@SAXAEBV?$FunctionCallbackInfo@VValue@v8@@@Nan@@@Z 00000001800448c4     CanvasRenderingContext2d.obj
 0004:000008d0       $pdata$?StrokeRect@Context2d@@SAXAEBV?$FunctionCallbackInfo@VValue@v8@@@Nan@@@Z 00000001800448d0     CanvasRenderingContext2d.obj
 0004:000008dc       $pdata$3$?StrokeRect@Context2d@@SAXAEBV?$FunctionCallbackInfo@VValue@v8@@@Nan@@@Z 00000001800448dc     CanvasRenderingContext2d.obj
 0004:000008e8       $pdata$4$?StrokeRect@Context2d@@SAXAEBV?$FunctionCallbackInfo@VValue@v8@@@Nan@@@Z 00000001800448e8     CanvasRenderingContext2d.obj
 0004:000008f4       $pdata$5$?StrokeRect@Context2d@@SAXAEBV?$FunctionCallbackInfo@VValue@v8@@@Nan@@@Z 00000001800448f4     CanvasRenderingContext2d.obj
 0004:00000900       $pdata$6$?StrokeRect@Context2d@@SAXAEBV?$FunctionCallbackInfo@VValue@v8@@@Nan@@@Z 0000000180044900     CanvasRenderingContext2d.obj
 0004:0000090c       $pdata$?ClearRect@Context2d@@SAXAEBV?$FunctionCallbackInfo@VValue@v8@@@Nan@@@Z 000000018004490c     CanvasRenderingContext2d.obj
 0004:00000918       $pdata$3$?ClearRect@Context2d@@SAXAEBV?$FunctionCallbackInfo@VValue@v8@@@Nan@@@Z 0000000180044918     CanvasRenderingContext2d.obj
 0004:00000924       $pdata$4$?ClearRect@Context2d@@SAXAEBV?$FunctionCallbackInfo@VValue@v8@@@Nan@@@Z 0000000180044924     CanvasRenderingContext2d.obj
 0004:00000930       $pdata$5$?ClearRect@Context2d@@SAXAEBV?$FunctionCallbackInfo@VValue@v8@@@Nan@@@Z 0000000180044930     CanvasRenderingContext2d.obj
 0004:0000093c       $pdata$6$?ClearRect@Context2d@@SAXAEBV?$FunctionCallbackInfo@VValue@v8@@@Nan@@@Z 000000018004493c     CanvasRenderingContext2d.obj
 0004:00000948       $pdata$?Rect@Context2d@@SAXAEBV?$FunctionCallbackInfo@VValue@v8@@@Nan@@@Z 0000000180044948     CanvasRenderingContext2d.obj
 0004:00000954       $pdata$3$?Rect@Context2d@@SAXAEBV?$FunctionCallbackInfo@VValue@v8@@@Nan@@@Z 0000000180044954     CanvasRenderingContext2d.obj
 0004:00000960       $pdata$4$?Rect@Context2d@@SAXAEBV?$FunctionCallbackInfo@VValue@v8@@@Nan@@@Z 0000000180044960     CanvasRenderingContext2d.obj
 0004:0000096c       $pdata$?Arc@Context2d@@SAXAEBV?$FunctionCallbackInfo@VValue@v8@@@Nan@@@Z 000000018004496c     CanvasRenderingContext2d.obj
 0004:00000978       $pdata$7$?Arc@Context2d@@SAXAEBV?$FunctionCallbackInfo@VValue@v8@@@Nan@@@Z 0000000180044978     CanvasRenderingContext2d.obj
 0004:00000984       $pdata$8$?Arc@Context2d@@SAXAEBV?$FunctionCallbackInfo@VValue@v8@@@Nan@@@Z 0000000180044984     CanvasRenderingContext2d.obj
 0004:00000990       $pdata$?ArcTo@Context2d@@SAXAEBV?$FunctionCallbackInfo@VValue@v8@@@Nan@@@Z 0000000180044990     CanvasRenderingContext2d.obj
 0004:0000099c       $pdata$8$?ArcTo@Context2d@@SAXAEBV?$FunctionCallbackInfo@VValue@v8@@@Nan@@@Z 000000018004499c     CanvasRenderingContext2d.obj
 0004:000009a8       $pdata$9$?ArcTo@Context2d@@SAXAEBV?$FunctionCallbackInfo@VValue@v8@@@Nan@@@Z 00000001800449a8     CanvasRenderingContext2d.obj
 0004:000009b4       $pdata$11$?ArcTo@Context2d@@SAXAEBV?$FunctionCallbackInfo@VValue@v8@@@Nan@@@Z 00000001800449b4     CanvasRenderingContext2d.obj
 0004:000009c0       $pdata$12$?ArcTo@Context2d@@SAXAEBV?$FunctionCallbackInfo@VValue@v8@@@Nan@@@Z 00000001800449c0     CanvasRenderingContext2d.obj
 0004:000009cc       $pdata$13$?ArcTo@Context2d@@SAXAEBV?$FunctionCallbackInfo@VValue@v8@@@Nan@@@Z 00000001800449cc     CanvasRenderingContext2d.obj
 0004:000009d8       $pdata$??0?$TypedArrayContents@E@Nan@@QEAA@V?$Local@VValue@v8@@@v8@@@Z 00000001800449d8     CanvasRenderingContext2d.obj
 0004:000009e4       $pdata$?_Tidy@?$vector@NV?$allocator@N@std@@@std@@IEAAXXZ 00000001800449e4     CanvasRenderingContext2d.obj
 0004:000009f0       $pdata$snprintf            00000001800449f0     color.obj
 0004:000009fc       $pdata$?rgba_from_hsla@@YAHMMMM@Z 00000001800449fc     color.obj
 0004:00000a08       $pdata$?rgba_from_rgb_string@@YAHPEBDPEAF@Z 0000000180044a08     color.obj
 0004:00000a14       $pdata$0$?rgba_from_rgb_string@@YAHPEBDPEAF@Z 0000000180044a14     color.obj
 0004:00000a20       $pdata$2$?rgba_from_rgb_string@@YAHPEBDPEAF@Z 0000000180044a20     color.obj
 0004:00000a2c       $pdata$3$?rgba_from_rgb_string@@YAHPEBDPEAF@Z 0000000180044a2c     color.obj
 0004:00000a38       $pdata$?rgba_from_rgba_string@@YAHPEBDPEAF@Z 0000000180044a38     color.obj
 0004:00000a44       $pdata$0$?rgba_from_rgba_string@@YAHPEBDPEAF@Z 0000000180044a44     color.obj
 0004:00000a50       $pdata$2$?rgba_from_rgba_string@@YAHPEBDPEAF@Z 0000000180044a50     color.obj
 0004:00000a5c       $pdata$3$?rgba_from_rgba_string@@YAHPEBDPEAF@Z 0000000180044a5c     color.obj
 0004:00000a68       $pdata$?rgba_from_hsla_string@@YAHPEBDPEAF@Z 0000000180044a68     color.obj
 0004:00000a74       $pdata$2$?rgba_from_hsla_string@@YAHPEBDPEAF@Z 0000000180044a74     color.obj
 0004:00000a80       $pdata$4$?rgba_from_hsla_string@@YAHPEBDPEAF@Z 0000000180044a80     color.obj
 0004:00000a8c       $pdata$5$?rgba_from_hsla_string@@YAHPEBDPEAF@Z 0000000180044a8c     color.obj
 0004:00000a98       $pdata$6$?rgba_from_hsla_string@@YAHPEBDPEAF@Z 0000000180044a98     color.obj
 0004:00000aa4       $pdata$?rgba_from_hsl_string@@YAHPEBDPEAF@Z 0000000180044aa4     color.obj
 0004:00000ab0       $pdata$1$?rgba_from_hsl_string@@YAHPEBDPEAF@Z 0000000180044ab0     color.obj
 0004:00000abc       $pdata$3$?rgba_from_hsl_string@@YAHPEBDPEAF@Z 0000000180044abc     color.obj
 0004:00000ac8       $pdata$4$?rgba_from_hsl_string@@YAHPEBDPEAF@Z 0000000180044ac8     color.obj
 0004:00000ad4       $pdata$?rgba_from_hex_string@@YAHPEBDPEAF@Z 0000000180044ad4     color.obj
 0004:00000ae0       $pdata$?rgba_from_name_string@@YAHPEBDPEAF@Z 0000000180044ae0     color.obj
 0004:00000aec       $pdata$?rgba_from_string@@YAHPEBDPEAF@Z 0000000180044aec     color.obj
 0004:00000af8       $pdata$??$parse_css_number@M@@YA_NPEAPEBDPEAM@Z 0000000180044af8     color.obj
 0004:00000b04       $pdata$1$??$parse_css_number@M@@YA_NPEAPEBDPEAM@Z 0000000180044b04     color.obj
 0004:00000b10       $pdata$3$??$parse_css_number@M@@YA_NPEAPEBDPEAM@Z 0000000180044b10     color.obj
 0004:00000b1c       $pdata$?Initialize@Image@@SAXV?$Local@VObject@v8@@@v8@@@Z 0000000180044b1c     Image.obj
 0004:00000b28       $pdata$?New@Image@@SAXAEBV?$FunctionCallbackInfo@VValue@v8@@@Nan@@@Z 0000000180044b28     Image.obj
 0004:00000b34       $pdata$?GetComplete@Image@@SAXV?$Local@VString@v8@@@v8@@AEBV?$PropertyCallbackInfo@VValue@v8@@@Nan@@@Z 0000000180044b34     Image.obj
 0004:00000b40       $pdata$?GetDataMode@Image@@SAXV?$Local@VString@v8@@@v8@@AEBV?$PropertyCallbackInfo@VValue@v8@@@Nan@@@Z 0000000180044b40     Image.obj
 0004:00000b4c       $pdata$?SetDataMode@Image@@SAXV?$Local@VString@v8@@@v8@@V?$Local@VValue@v8@@@3@AEBV?$PropertyCallbackInfo@X@Nan@@@Z 0000000180044b4c     Image.obj
 0004:00000b58       $pdata$?GetWidth@Image@@SAXV?$Local@VString@v8@@@v8@@AEBV?$PropertyCallbackInfo@VValue@v8@@@Nan@@@Z 0000000180044b58     Image.obj
 0004:00000b64       $pdata$?GetHeight@Image@@SAXV?$Local@VString@v8@@@v8@@AEBV?$PropertyCallbackInfo@VValue@v8@@@Nan@@@Z 0000000180044b64     Image.obj
 0004:00000b70       $pdata$?GetSource@Image@@SAXV?$Local@VString@v8@@@v8@@AEBV?$PropertyCallbackInfo@VValue@v8@@@Nan@@@Z 0000000180044b70     Image.obj
 0004:00000b7c       $pdata$?clearData@Image@@QEAAXXZ 0000000180044b7c     Image.obj
 0004:00000b88       $pdata$2$?clearData@Image@@QEAAXXZ 0000000180044b88     Image.obj
 0004:00000b94       $pdata$3$?clearData@Image@@QEAAXXZ 0000000180044b94     Image.obj
 0004:00000ba0       $pdata$4$?clearData@Image@@QEAAXXZ 0000000180044ba0     Image.obj
 0004:00000bac       $pdata$?SetSource@Image@@SAXV?$Local@VString@v8@@@v8@@V?$Local@VValue@v8@@@3@AEBV?$PropertyCallbackInfo@X@Nan@@@Z 0000000180044bac     Image.obj
 0004:00000bb8       $pdata$?loadFromBuffer@Image@@QEAA?AW4_cairo_status@@PEAEI@Z 0000000180044bb8     Image.obj
 0004:00000bc4       $pdata$?readPNG@Image@@SA?AW4_cairo_status@@PEAXPEAEI@Z 0000000180044bc4     Image.obj
 0004:00000bd0       $pdata$?GetOnload@Image@@SAXV?$Local@VString@v8@@@v8@@AEBV?$PropertyCallbackInfo@VValue@v8@@@Nan@@@Z 0000000180044bd0     Image.obj
 0004:00000bdc       $pdata$?SetOnload@Image@@SAXV?$Local@VString@v8@@@v8@@V?$Local@VValue@v8@@@3@AEBV?$PropertyCallbackInfo@X@Nan@@@Z 0000000180044bdc     Image.obj
 0004:00000be8       $pdata$?GetOnerror@Image@@SAXV?$Local@VString@v8@@@v8@@AEBV?$PropertyCallbackInfo@VValue@v8@@@Nan@@@Z 0000000180044be8     Image.obj
 0004:00000bf4       $pdata$?SetOnerror@Image@@SAXV?$Local@VString@v8@@@v8@@V?$Local@VValue@v8@@@3@AEBV?$PropertyCallbackInfo@X@Nan@@@Z 0000000180044bf4     Image.obj
 0004:00000c00       $pdata$??_GImage@@EEAAPEAXI@Z 0000000180044c00     Image.obj
 0004:00000c0c       $pdata$??1Image@@EEAA@XZ   0000000180044c0c     Image.obj
 0004:00000c18       $pdata$?loaded@Image@@QEAAXXZ 0000000180044c18     Image.obj
 0004:00000c24       $pdata$?loadSurface@Image@@QEAA?AW4_cairo_status@@XZ 0000000180044c24     Image.obj
 0004:00000c30       $pdata$??_GImageData@@UEAAPEAXI@Z 0000000180044c30     ImageData.obj
 0004:00000c3c       $pdata$?Initialize@ImageData@@SAXV?$Local@VObject@v8@@@v8@@@Z 0000000180044c3c     ImageData.obj
 0004:00000c48       $pdata$?New@ImageData@@SAXAEBV?$FunctionCallbackInfo@VValue@v8@@@Nan@@@Z 0000000180044c48     ImageData.obj
 0004:00000c54       $pdata$?init@@YAXV?$Local@VObject@v8@@@v8@@@Z 0000000180044c54     init.obj
 0004:00000c60       $pdata$?load_exe_hook@@YAP6A_JXZIPEAUDelayLoadInfo@@@Z 0000000180044c60     win_delay_load_hook.obj
 0004:00000c78       $pdata$??0bad_alloc@std@@QEAA@AEBV01@@Z 0000000180044c78     libcpmt:xthrow.obj
 0004:00000c84       $pdata$??0exception@std@@QEAA@AEBV01@@Z 0000000180044c84     libcpmt:xthrow.obj
 0004:00000c90       $pdata$??0length_error@std@@QEAA@AEBV01@@Z 0000000180044c90     libcpmt:xthrow.obj
 0004:00000c9c       $pdata$??0length_error@std@@QEAA@PEBD@Z 0000000180044c9c     libcpmt:xthrow.obj
 0004:00000ca8       $pdata$??0logic_error@std@@QEAA@AEBV01@@Z 0000000180044ca8     libcpmt:xthrow.obj
 0004:00000cb4       $pdata$?__scrt_throw_std_bad_alloc@@YAXXZ 0000000180044cb4     LIBCMT:throw_bad_alloc.obj
 0004:00000cb4       $pdata$?_Xbad_alloc@std@@YAXXZ 0000000180044cb4     libcpmt:xthrow.obj
 0004:00000cc0       $pdata$?_Xlength_error@std@@YAXPEBD@Z 0000000180044cc0     libcpmt:xthrow.obj
 0004:00000cd8       $pdata$??2@YAPEAX_K@Z      0000000180044cd8     LIBCMT:new_scalar.obj
 0004:00000ce4       $pdata$__scrt_acquire_startup_lock 0000000180044ce4     LIBCMT:utility.obj
 0004:00000cf0       $pdata$__scrt_dllmain_after_initialize_c 0000000180044cf0     LIBCMT:utility.obj
 0004:00000cfc       $pdata$__scrt_dllmain_before_initialize_c 0000000180044cfc     LIBCMT:utility.obj
 0004:00000d08       $pdata$__scrt_dllmain_crt_thread_attach 0000000180044d08     LIBCMT:utility.obj
 0004:00000d14       $pdata$__scrt_dllmain_crt_thread_detach 0000000180044d14     LIBCMT:utility.obj
 0004:00000d20       $pdata$__scrt_dllmain_exception_filter 0000000180044d20     LIBCMT:utility.obj
 0004:00000d2c       $pdata$__scrt_dllmain_uninitialize_c 0000000180044d2c     LIBCMT:utility.obj
 0004:00000d38       $pdata$__scrt_dllmain_uninitialize_critical 0000000180044d38     LIBCMT:utility.obj
 0004:00000d44       $pdata$__scrt_initialize_crt 0000000180044d44     LIBCMT:utility.obj
 0004:00000d50       $pdata$__scrt_initialize_onexit_tables 0000000180044d50     LIBCMT:utility.obj
 0004:00000d5c       $pdata$__scrt_is_nonwritable_in_current_image 0000000180044d5c     LIBCMT:utility.obj
 0004:00000d68       $pdata$__scrt_release_startup_lock 0000000180044d68     LIBCMT:utility.obj
 0004:00000d74       $pdata$__scrt_uninitialize_crt 0000000180044d74     LIBCMT:utility.obj
 0004:00000d80       $pdata$_onexit             0000000180044d80     LIBCMT:utility.obj
 0004:00000d8c       $pdata$atexit              0000000180044d8c     LIBCMT:utility.obj
 0004:00000d98       $pdata$?dllmain_crt_dispatch@@YAHQEAUHINSTANCE__@@KQEAX@Z 0000000180044d98     LIBCMT:dll_dllmain.obj
 0004:00000da4       $pdata$?dllmain_crt_process_attach@@YAHQEAUHINSTANCE__@@QEAX@Z 0000000180044da4     LIBCMT:dll_dllmain.obj
 0004:00000db0       $pdata$?dllmain_crt_process_detach@@YAH_N@Z 0000000180044db0     LIBCMT:dll_dllmain.obj
 0004:00000dbc       $pdata$?dllmain_dispatch@@YAHQEAUHINSTANCE__@@KQEAX@Z 0000000180044dbc     LIBCMT:dll_dllmain.obj
 0004:00000dc8       $pdata$?dllmain_raw@@YAHQEAUHINSTANCE__@@KQEAX@Z 0000000180044dc8     LIBCMT:dll_dllmain.obj
 0004:00000dd4       $pdata$_DllMainCRTStartup  0000000180044dd4     LIBCMT:dll_dllmain.obj
 0004:00000de0       $pdata$??_Gtype_info@@UEAAPEAXI@Z 0000000180044de0     LIBCMT:std_type_info_static.obj
 0004:00000dec       $pdata$__raise_securityfailure 0000000180044dec     LIBCMT:gs_report.obj
 0004:00000df8       $pdata$__report_gsfailure  0000000180044df8     LIBCMT:gs_report.obj
 0004:00000e04       $pdata$__report_rangecheckfailure 0000000180044e04     LIBCMT:gs_report.obj
 0004:00000e10       $pdata$__report_securityfailure 0000000180044e10     LIBCMT:gs_report.obj
 0004:00000e1c       $pdata$capture_current_context 0000000180044e1c     LIBCMT:gs_report.obj
 0004:00000e28       $pdata$capture_previous_context 0000000180044e28     LIBCMT:gs_report.obj
 0004:00000e34       $pdata$??0bad_array_new_length@std@@QEAA@AEBV01@@Z 0000000180044e34     LIBCMT:throw_bad_alloc.obj
 0004:00000e40       $pdata$??_Glength_error@std@@UEAAPEAXI@Z 0000000180044e40     libcpmt:xthrow.obj
 0004:00000e40       $pdata$??_Glogic_error@std@@UEAAPEAXI@Z 0000000180044e40     libcpmt:xthrow.obj
 0004:00000e40       $pdata$??_Gexception@std@@UEAAPEAXI@Z 0000000180044e40     libcpmt:xthrow.obj
 0004:00000e40       $pdata$??_Gbad_alloc@std@@UEAAPEAXI@Z 0000000180044e40     libcpmt:xthrow.obj
 0004:00000e40       $pdata$??_Gbad_exception@std@@UEAAPEAXI@Z 0000000180044e40     libvcruntime:frame.obj
 0004:00000e40       $pdata$??_Gbad_array_new_length@std@@UEAAPEAXI@Z 0000000180044e40     LIBCMT:throw_bad_alloc.obj
 0004:00000e4c       $pdata$?__scrt_throw_std_bad_array_new_length@@YAXXZ 0000000180044e4c     LIBCMT:throw_bad_alloc.obj
 0004:00000e58       $pdata$__isa_available_init 0000000180044e58     LIBCMT:_cpu_disp_.obj
 0004:00000e64       $pdata$__scrt_fastfail     0000000180044e64     LIBCMT:utility_desktop.obj
 0004:00000e70       $pdata$__security_init_cookie 0000000180044e70     LIBCMT:gs_support.obj
 0004:00000e7c       $pdata$__scrt_initialize_default_local_stdio_options 0000000180044e7c     LIBCMT:default_local_stdio_options.obj
 0004:00000e88       $pdata$_RTC_Initialize     0000000180044e88     LIBCMT:_initsect_.obj
 0004:00000e94       $pdata$_RTC_Terminate      0000000180044e94     LIBCMT:_initsect_.obj
 0004:00000ea0       $pdata$longjmp             0000000180044ea0     libvcruntime:longjmpc.obj
 0004:00000eac       $pdata$__DestructExceptionObject 0000000180044eac     libvcruntime:frame.obj
 0004:00000eb8       $pdata$??0bad_exception@std@@QEAA@AEBV01@@Z 0000000180044eb8     libvcruntime:frame.obj
 0004:00000ec4       $pdata$?CatchIt@@YAXPEAUEHExceptionRecord@@PEA_KPEAU_CONTEXT@@PEAU_xDISPATCHER_CONTEXT@@PEBU_s_FuncInfo@@PEBU_s_HandlerType@@PEBU_s_CatchableType@@PEBU_s_TryBlockMapEntry@@H1EE@Z 0000000180044ec4     libvcruntime:frame.obj
 0004:00000ed0       $pdata$?ExFilterRethrow@@YAHPEAU_EXCEPTION_POINTERS@@PEAUEHExceptionRecord@@PEAH@Z 0000000180044ed0     libvcruntime:frame.obj
 0004:00000edc       $pdata$?FindHandler@@YAXPEAUEHExceptionRecord@@PEA_KPEAU_CONTEXT@@PEAU_xDISPATCHER_CONTEXT@@PEBU_s_FuncInfo@@EH1@Z 0000000180044edc     libvcruntime:frame.obj
 0004:00000ee8       $pdata$?FindHandlerForForeignException@@YAXPEAUEHExceptionRecord@@PEA_KPEAU_CONTEXT@@PEAU_xDISPATCHER_CONTEXT@@PEBU_s_FuncInfo@@HH1@Z 0000000180044ee8     libvcruntime:frame.obj
 0004:00000ef4       $pdata$?IsInExceptionSpec@@YAEPEAUEHExceptionRecord@@PEBU_s_ESTypeList@@@Z 0000000180044ef4     libvcruntime:frame.obj
 0004:00000f00       $pdata$__BuildCatchObject  0000000180044f00     libvcruntime:frame.obj
 0004:00000f0c       $pdata$__BuildCatchObjectHelper 0000000180044f0c     libvcruntime:frame.obj
 0004:00000f18       $pdata$__CxxCallCatchBlock 0000000180044f18     libvcruntime:frame.obj
 0004:00000f24       $pdata$__FrameUnwindFilter 0000000180044f24     libvcruntime:frame.obj
 0004:00000f30       $pdata$__FrameUnwindToState 0000000180044f30     libvcruntime:frame.obj
 0004:00000f3c       $pdata$__InternalCxxFrameHandler 0000000180044f3c     libvcruntime:frame.obj
 0004:00000f48       $pdata$__TypeMatch         0000000180044f48     libvcruntime:frame.obj
 0004:00000f54       $pdata$__std_terminate     0000000180044f54     libvcruntime:frame.obj
 0004:00000f60       $pdata$strstr              0000000180044f60     libvcruntime:strstr.obj
 0004:00000f6c       $pdata$__std_exception_copy 0000000180044f6c     libvcruntime:std_exception.obj
 0004:00000f78       $pdata$__std_exception_destroy 0000000180044f78     libvcruntime:std_exception.obj
 0004:00000f84       $pdata$_CxxThrowException  0000000180044f84     libvcruntime:throw.obj
 0004:00000f90       $pdata$__vcrt_initialize   0000000180044f90     libvcruntime:initialization.obj
 0004:00000f9c       $pdata$__vcrt_thread_attach 0000000180044f9c     libvcruntime:initialization.obj
 0004:00000fa8       $pdata$__vcrt_thread_detach 0000000180044fa8     libvcruntime:initialization.obj
 0004:00000fb4       $pdata$__vcrt_uninitialize 0000000180044fb4     libvcruntime:initialization.obj
 0004:00000fc0       $pdata$__vcrt_uninitialize_critical 0000000180044fc0     libvcruntime:initialization.obj
 0004:00000fcc       $pdata$__C_specific_handler 0000000180044fcc     libvcruntime:_chandler_.obj
 0004:00000fe4       $pdata$__std_type_info_destroy_list 0000000180044fe4     libvcruntime:std_type_info.obj
 0004:00000ffc       $pdata$__vcrt_freefls      0000000180044ffc     libvcruntime:per_thread_data.obj
 0004:00001008       $pdata$__vcrt_freeptd      0000000180045008     libvcruntime:per_thread_data.obj
 0004:00001014       $pdata$__vcrt_getptd       0000000180045014     libvcruntime:per_thread_data.obj
 0004:00001020       $pdata$__vcrt_getptd_noexit 0000000180045020     libvcruntime:per_thread_data.obj
 0004:0000102c       $pdata$__vcrt_initialize_ptd 000000018004502c     libvcruntime:per_thread_data.obj
 0004:00001038       $pdata$__vcrt_uninitialize_ptd 0000000180045038     libvcruntime:per_thread_data.obj
 0004:00001044       $pdata$?__GetCurrentState@@YAHPEA_KPEAU_xDISPATCHER_CONTEXT@@PEBU_s_FuncInfo@@@Z 0000000180045044     libvcruntime:ehstate.obj
 0004:00001050       $pdata$?__GetUnwindTryBlock@@YAHPEA_KPEAU_xDISPATCHER_CONTEXT@@PEBU_s_FuncInfo@@@Z 0000000180045050     libvcruntime:ehstate.obj
 0004:0000105c       $pdata$?__SetUnwindTryBlock@@YAXPEA_KPEAU_xDISPATCHER_CONTEXT@@PEBU_s_FuncInfo@@H@Z 000000018004505c     libvcruntime:ehstate.obj
 0004:00001068       $pdata$?__StateFromIp@@YAHPEBU_s_FuncInfo@@PEAU_xDISPATCHER_CONTEXT@@_J@Z 0000000180045068     libvcruntime:ehstate.obj
 0004:00001080       $pdata$?_ExecutionInCatch@@YAHPEAU_xDISPATCHER_CONTEXT@@PEBU_s_FuncInfo@@@Z 0000000180045080     libvcruntime:trnsctrl.obj
 0004:0000108c       $pdata$?_GetEstablisherFrame@@YAPEA_KPEA_KPEAU_xDISPATCHER_CONTEXT@@PEBU_s_FuncInfo@@0@Z 000000018004508c     libvcruntime:trnsctrl.obj
 0004:00001098       $pdata$?_GetRangeOfTrysToCheck@@YAPEBU_s_TryBlockMapEntry@@PEA_KPEBU_s_FuncInfo@@HHPEAI2PEAU_xDISPATCHER_CONTEXT@@@Z 0000000180045098     libvcruntime:trnsctrl.obj
 0004:000010a4       $pdata$?__FrameUnwindToEmptyState@@YAXPEA_KPEAU_xDISPATCHER_CONTEXT@@PEBU_s_FuncInfo@@@Z 00000001800450a4     libvcruntime:trnsctrl.obj
 0004:000010b0       $pdata$?__SehTransFilter@@YAHPEAU_EXCEPTION_POINTERS@@PEAUEHExceptionRecord@@PEA_KPEAU_CONTEXT@@PEAU_xDISPATCHER_CONTEXT@@PEBU_s_FuncInfo@@PEAH@Z 00000001800450b0     libvcruntime:trnsctrl.obj
 0004:000010bc       $pdata$_CallSETranslator   00000001800450bc     libvcruntime:trnsctrl.obj
 0004:000010c8       $pdata$_CreateFrameInfo    00000001800450c8     libvcruntime:trnsctrl.obj
 0004:000010d4       $pdata$_FindAndUnlinkFrame 00000001800450d4     libvcruntime:trnsctrl.obj
 0004:000010e0       $pdata$_GetImageBase       00000001800450e0     libvcruntime:trnsctrl.obj
 0004:000010ec       $pdata$_GetThrowImageBase  00000001800450ec     libvcruntime:trnsctrl.obj
 0004:000010f8       $pdata$_IsExceptionObjectToBeDestroyed 00000001800450f8     libvcruntime:trnsctrl.obj
 0004:00001104       $pdata$_SetImageBase       0000000180045104     libvcruntime:trnsctrl.obj
 0004:00001110       $pdata$_SetThrowImageBase  0000000180045110     libvcruntime:trnsctrl.obj
 0004:0000111c       $pdata$_UnwindNestedFrames 000000018004511c     libvcruntime:trnsctrl.obj
 0004:00001128       $pdata$__CxxFrameHandler3  0000000180045128     libvcruntime:trnsctrl.obj
 0004:00001164       $pdata$__vcrt_initialize_locks 0000000180045164     libvcruntime:locks.obj
 0004:00001170       $pdata$__vcrt_uninitialize_locks 0000000180045170     libvcruntime:locks.obj
 0004:0000117c       $pdata$?try_get_function@@YAPEAXW4function_id@?A0x679b24ab@@QEBDQEBW4module_id@2@2@Z 000000018004517c     libvcruntime:winapi_downlevel.obj
 0004:00001188       $pdata$__vcrt_FlsAlloc     0000000180045188     libvcruntime:winapi_downlevel.obj
 0004:00001194       $pdata$__vcrt_FlsFree      0000000180045194     libvcruntime:winapi_downlevel.obj
 0004:000011a0       $pdata$__vcrt_FlsGetValue  00000001800451a0     libvcruntime:winapi_downlevel.obj
 0004:000011ac       $pdata$__vcrt_FlsSetValue  00000001800451ac     libvcruntime:winapi_downlevel.obj
 0004:000011b8       $pdata$__vcrt_InitializeCriticalSectionEx 00000001800451b8     libvcruntime:winapi_downlevel.obj
 0004:000011c4       $pdata$__vcrt_uninitialize_winapi_thunks 00000001800451c4     libvcruntime:winapi_downlevel.obj
 0004:000011d0       $pdata$??$common_assert_to_message_box@_W@@YAXQEB_W0IQEAX@Z 00000001800451d0     libucrt:assert.obj
 0004:000011dc       $pdata$??$common_assert_to_message_box_build_string@_W@@YAXQEA_W_KQEB_W2IQEAX@Z 00000001800451dc     libucrt:assert.obj
 0004:000011e8       $pdata$??$common_assert_to_stderr@_W@@YAXQEB_W0I@Z 00000001800451e8     libucrt:assert.obj
 0004:000011f4       $pdata$_wassert            00000001800451f4     libucrt:assert.obj
 0004:00001200       $pdata$fwprintf            0000000180045200     libucrt:assert.obj
 0004:0000120c       $pdata$swprintf            000000018004520c     libucrt:assert.obj
 0004:00001218       $pdata$__acrt_call_reportfault 0000000180045218     libucrt:invalid_parameter.obj
 0004:00001224       $pdata$_invalid_parameter  0000000180045224     libucrt:invalid_parameter.obj
 0004:00001230       $pdata$_invalid_parameter_noinfo 0000000180045230     libucrt:invalid_parameter.obj
 0004:0000123c       $pdata$_invalid_parameter_noinfo_noreturn 000000018004523c     libucrt:invalid_parameter.obj
 0004:00001248       $pdata$_invoke_watson      0000000180045248     libucrt:invalid_parameter.obj
 0004:00001254       $pdata$__acrt_initialize_stdio 0000000180045254     libucrt:_file.obj
 0004:00001260       $pdata$__acrt_uninitialize_stdio 0000000180045260     libucrt:_file.obj
 0004:0000126c       $pdata$??$?RV<lambda_7b91131dde12e1c3dfc74ff76b3f2eac>@@AEAV<lambda_dd75445284c072d0bd3768540cc698fa>@@V<lambda_16bc4ecb55b4718497c16bceaea2ceaf>@@@?$__crt_seh_guarded_call@H@@QEAAH$$QEAV<lambda_7b91131dde12e1c3dfc74ff76b3f2eac>@@AEAV<lambda_dd75445284c072d0bd3768540cc698fa>@@$$QEAV<lambda_16bc4ecb55b4718497c16bceaea2ceaf>@@@Z 000000018004526c     libucrt:output.obj
 0004:00001278       $pdata$??$ensure_buffer_is_big_enough@D@formatting_buffer@__crt_stdio_output@@QEAA_N_K@Z 0000000180045278     libucrt:output.obj
 0004:00001284       $pdata$??$type_case_integer_parse_into_buffer@I@?$output_processor@_WV?$stream_output_adapter@_W@__crt_stdio_output@@V?$standard_base@_WV?$stream_output_adapter@_W@__crt_stdio_output@@@2@@__crt_stdio_output@@AEAAXII_N@Z 0000000180045284     libucrt:output.obj
 0004:00001284       $pdata$??$type_case_integer_parse_into_buffer@I@?$output_processor@_WV?$string_output_adapter@_W@__crt_stdio_output@@V?$standard_base@_WV?$string_output_adapter@_W@__crt_stdio_output@@@2@@__crt_stdio_output@@AEAAXII_N@Z 0000000180045284     libucrt:output.obj
 0004:00001284       $pdata$??$type_case_integer_parse_into_buffer@I@?$output_processor@DV?$string_output_adapter@D@__crt_stdio_output@@V?$standard_base@DV?$string_output_adapter@D@__crt_stdio_output@@@2@@__crt_stdio_output@@AEAAXII_N@Z 0000000180045284     libucrt:output.obj
 0004:00001290       $pdata$??$type_case_integer_parse_into_buffer@_K@?$output_processor@DV?$string_output_adapter@D@__crt_stdio_output@@V?$standard_base@DV?$string_output_adapter@D@__crt_stdio_output@@@2@@__crt_stdio_output@@AEAAX_KI_N@Z 0000000180045290     libucrt:output.obj
 0004:00001290       $pdata$??$type_case_integer_parse_into_buffer@_K@?$output_processor@_WV?$stream_output_adapter@_W@__crt_stdio_output@@V?$standard_base@_WV?$stream_output_adapter@_W@__crt_stdio_output@@@2@@__crt_stdio_output@@AEAAX_KI_N@Z 0000000180045290     libucrt:output.obj
 0004:00001290       $pdata$??$type_case_integer_parse_into_buffer@_K@?$output_processor@_WV?$string_output_adapter@_W@__crt_stdio_output@@V?$standard_base@_WV?$string_output_adapter@_W@__crt_stdio_output@@@2@@__crt_stdio_output@@AEAAX_KI_N@Z 0000000180045290     libucrt:output.obj
 0004:0000129c       $pdata$??$write_multiple_characters@V?$stream_output_adapter@_W@__crt_stdio_output@@D@__crt_stdio_output@@YAXAEBV?$stream_output_adapter@_W@0@DHQEAH@Z 000000018004529c     libucrt:output.obj
 0004:000012a8       $pdata$??$write_multiple_characters@V?$string_output_adapter@D@__crt_stdio_output@@D@__crt_stdio_output@@YAXAEBV?$string_output_adapter@D@0@DHQEAH@Z 00000001800452a8     libucrt:output.obj
 0004:000012b4       $pdata$??$write_multiple_characters@V?$string_output_adapter@_W@__crt_stdio_output@@D@__crt_stdio_output@@YAXAEBV?$string_output_adapter@_W@0@DHQEAH@Z 00000001800452b4     libucrt:output.obj
 0004:000012c0       $pdata$??0?$output_processor@DV?$string_output_adapter@D@__crt_stdio_output@@V?$standard_base@DV?$string_output_adapter@D@__crt_stdio_output@@@2@@__crt_stdio_output@@QEAA@AEBV?$string_output_adapter@D@1@_KQEBDQEAU__crt_locale_pointers@@QEAD@Z 00000001800452c0     libucrt:output.obj
 0004:000012cc       $pdata$??0?$output_processor@_WV?$string_output_adapter@_W@__crt_stdio_output@@V?$standard_base@_WV?$string_output_adapter@_W@__crt_stdio_output@@@2@@__crt_stdio_output@@QEAA@AEBV?$string_output_adapter@_W@1@_KQEB_WQEAU__crt_locale_pointers@@QEAD@Z 00000001800452cc     libucrt:output.obj
 0004:000012cc       $pdata$??0?$output_processor@_WV?$stream_output_adapter@_W@__crt_stdio_output@@V?$standard_base@_WV?$stream_output_adapter@_W@__crt_stdio_output@@@2@@__crt_stdio_output@@QEAA@AEBV?$stream_output_adapter@_W@1@_KQEB_WQEAU__crt_locale_pointers@@QEAD@Z 00000001800452cc     libucrt:output.obj
 0004:000012d8       $pdata$??0_LocaleUpdate@@QEAA@QEAU__crt_locale_pointers@@@Z 00000001800452d8     libucrt:output.obj
 0004:000012e4       $pdata$??R<lambda_dd75445284c072d0bd3768540cc698fa>@@QEBAHXZ 00000001800452e4     libucrt:output.obj
 0004:000012f0       $pdata$?force_decimal_point@__crt_stdio_output@@YAXPEADQEAU__crt_locale_pointers@@@Z 00000001800452f0     libucrt:output.obj
 0004:000012fc       $pdata$?parse_int_from_format_string@?$output_processor@DV?$string_output_adapter@D@__crt_stdio_output@@V?$standard_base@DV?$string_output_adapter@D@__crt_stdio_output@@@2@@__crt_stdio_output@@AEAA_NQEAH@Z 00000001800452fc     libucrt:output.obj
 0004:00001308       $pdata$?parse_int_from_format_string@?$output_processor@_WV?$string_output_adapter@_W@__crt_stdio_output@@V?$standard_base@_WV?$string_output_adapter@_W@__crt_stdio_output@@@2@@__crt_stdio_output@@AEAA_NQEAH@Z 0000000180045308     libucrt:output.obj
 0004:00001308       $pdata$?parse_int_from_format_string@?$output_processor@_WV?$stream_output_adapter@_W@__crt_stdio_output@@V?$standard_base@_WV?$stream_output_adapter@_W@__crt_stdio_output@@@2@@__crt_stdio_output@@AEAA_NQEAH@Z 0000000180045308     libucrt:output.obj
 0004:00001314       $pdata$?process@?$output_processor@DV?$string_output_adapter@D@__crt_stdio_output@@V?$standard_base@DV?$string_output_adapter@D@__crt_stdio_output@@@2@@__crt_stdio_output@@QEAAHXZ 0000000180045314     libucrt:output.obj
 0004:00001320       $pdata$?process@?$output_processor@_WV?$stream_output_adapter@_W@__crt_stdio_output@@V?$standard_base@_WV?$stream_output_adapter@_W@__crt_stdio_output@@@2@@__crt_stdio_output@@QEAAHXZ 0000000180045320     libucrt:output.obj
 0004:0000132c       $pdata$?process@?$output_processor@_WV?$string_output_adapter@_W@__crt_stdio_output@@V?$standard_base@_WV?$string_output_adapter@_W@__crt_stdio_output@@@2@@__crt_stdio_output@@QEAAHXZ 000000018004532c     libucrt:output.obj
 0004:00001338       $pdata$?state_case_normal@?$output_processor@DV?$string_output_adapter@D@__crt_stdio_output@@V?$standard_base@DV?$string_output_adapter@D@__crt_stdio_output@@@2@@__crt_stdio_output@@AEAA_NXZ 0000000180045338     libucrt:output.obj
 0004:00001344       $pdata$?state_case_normal_tchar@?$output_processor@DV?$string_output_adapter@D@__crt_stdio_output@@V?$standard_base@DV?$string_output_adapter@D@__crt_stdio_output@@@2@@__crt_stdio_output@@AEAA_ND@Z 0000000180045344     libucrt:output.obj
 0004:00001350       $pdata$?state_case_size@?$output_processor@DV?$string_output_adapter@D@__crt_stdio_output@@V?$standard_base@DV?$string_output_adapter@D@__crt_stdio_output@@@2@@__crt_stdio_output@@AEAA_NXZ 0000000180045350     libucrt:output.obj
 0004:0000135c       $pdata$?state_case_size@?$output_processor@_WV?$stream_output_adapter@_W@__crt_stdio_output@@V?$standard_base@_WV?$stream_output_adapter@_W@__crt_stdio_output@@@2@@__crt_stdio_output@@AEAA_NXZ 000000018004535c     libucrt:output.obj
 0004:00001368       $pdata$?state_case_size@?$output_processor@_WV?$string_output_adapter@_W@__crt_stdio_output@@V?$standard_base@_WV?$string_output_adapter@_W@__crt_stdio_output@@@2@@__crt_stdio_output@@AEAA_NXZ 0000000180045368     libucrt:output.obj
 0004:00001374       $pdata$?state_case_type@?$output_processor@DV?$string_output_adapter@D@__crt_stdio_output@@V?$standard_base@DV?$string_output_adapter@D@__crt_stdio_output@@@2@@__crt_stdio_output@@AEAA_NXZ 0000000180045374     libucrt:output.obj
 0004:00001380       $pdata$?state_case_type@?$output_processor@_WV?$stream_output_adapter@_W@__crt_stdio_output@@V?$standard_base@_WV?$stream_output_adapter@_W@__crt_stdio_output@@@2@@__crt_stdio_output@@AEAA_NXZ 0000000180045380     libucrt:output.obj
 0004:0000138c       $pdata$?state_case_type@?$output_processor@_WV?$string_output_adapter@_W@__crt_stdio_output@@V?$standard_base@_WV?$string_output_adapter@_W@__crt_stdio_output@@@2@@__crt_stdio_output@@AEAA_NXZ 000000018004538c     libucrt:output.obj
 0004:00001398       $pdata$?type_case_Z@?$output_processor@DV?$string_output_adapter@D@__crt_stdio_output@@V?$standard_base@DV?$string_output_adapter@D@__crt_stdio_output@@@2@@__crt_stdio_output@@AEAA_NXZ 0000000180045398     libucrt:output.obj
 0004:000013a4       $pdata$?type_case_Z@?$output_processor@_WV?$string_output_adapter@_W@__crt_stdio_output@@V?$standard_base@_WV?$string_output_adapter@_W@__crt_stdio_output@@@2@@__crt_stdio_output@@AEAA_NXZ 00000001800453a4     libucrt:output.obj
 0004:000013a4       $pdata$?type_case_Z@?$output_processor@_WV?$stream_output_adapter@_W@__crt_stdio_output@@V?$standard_base@_WV?$stream_output_adapter@_W@__crt_stdio_output@@@2@@__crt_stdio_output@@AEAA_NXZ 00000001800453a4     libucrt:output.obj
 0004:000013b0       $pdata$?type_case_a@?$output_processor@DV?$string_output_adapter@D@__crt_stdio_output@@V?$standard_base@DV?$string_output_adapter@D@__crt_stdio_output@@@2@@__crt_stdio_output@@AEAA_NXZ 00000001800453b0     libucrt:output.obj
 0004:000013bc       $pdata$?type_case_a@?$output_processor@_WV?$string_output_adapter@_W@__crt_stdio_output@@V?$standard_base@_WV?$string_output_adapter@_W@__crt_stdio_output@@@2@@__crt_stdio_output@@AEAA_NXZ 00000001800453bc     libucrt:output.obj
 0004:000013bc       $pdata$?type_case_a@?$output_processor@_WV?$stream_output_adapter@_W@__crt_stdio_output@@V?$standard_base@_WV?$stream_output_adapter@_W@__crt_stdio_output@@@2@@__crt_stdio_output@@AEAA_NXZ 00000001800453bc     libucrt:output.obj
 0004:000013c8       $pdata$?type_case_c_tchar@?$output_processor@DV?$string_output_adapter@D@__crt_stdio_output@@V?$standard_base@DV?$string_output_adapter@D@__crt_stdio_output@@@2@@__crt_stdio_output@@AEAA_ND@Z 00000001800453c8     libucrt:output.obj
 0004:000013d4       $pdata$?type_case_c_tchar@?$output_processor@_WV?$string_output_adapter@_W@__crt_stdio_output@@V?$standard_base@_WV?$string_output_adapter@_W@__crt_stdio_output@@@2@@__crt_stdio_output@@AEAA_N_W@Z 00000001800453d4     libucrt:output.obj
 0004:000013d4       $pdata$?type_case_c_tchar@?$output_processor@_WV?$stream_output_adapter@_W@__crt_stdio_output@@V?$standard_base@_WV?$stream_output_adapter@_W@__crt_stdio_output@@@2@@__crt_stdio_output@@AEAA_N_W@Z 00000001800453d4     libucrt:output.obj
 0004:000013e0       $pdata$?type_case_integer@?$output_processor@DV?$string_output_adapter@D@__crt_stdio_output@@V?$standard_base@DV?$string_output_adapter@D@__crt_stdio_output@@@2@@__crt_stdio_output@@AEAA_NI_N@Z 00000001800453e0     libucrt:output.obj
 0004:000013e0       $pdata$?type_case_integer@?$output_processor@_WV?$string_output_adapter@_W@__crt_stdio_output@@V?$standard_base@_WV?$string_output_adapter@_W@__crt_stdio_output@@@2@@__crt_stdio_output@@AEAA_NI_N@Z 00000001800453e0     libucrt:output.obj
 0004:000013e0       $pdata$?type_case_integer@?$output_processor@_WV?$stream_output_adapter@_W@__crt_stdio_output@@V?$standard_base@_WV?$stream_output_adapter@_W@__crt_stdio_output@@@2@@__crt_stdio_output@@AEAA_NI_N@Z 00000001800453e0     libucrt:output.obj
 0004:000013ec       $pdata$?type_case_n@?$output_processor@_WV?$stream_output_adapter@_W@__crt_stdio_output@@V?$standard_base@_WV?$stream_output_adapter@_W@__crt_stdio_output@@@2@@__crt_stdio_output@@AEAA_NXZ 00000001800453ec     libucrt:output.obj
 0004:000013ec       $pdata$?type_case_n@?$output_processor@DV?$string_output_adapter@D@__crt_stdio_output@@V?$standard_base@DV?$string_output_adapter@D@__crt_stdio_output@@@2@@__crt_stdio_output@@AEAA_NXZ 00000001800453ec     libucrt:output.obj
 0004:000013ec       $pdata$?type_case_n@?$output_processor@_WV?$string_output_adapter@_W@__crt_stdio_output@@V?$standard_base@_WV?$string_output_adapter@_W@__crt_stdio_output@@@2@@__crt_stdio_output@@AEAA_NXZ 00000001800453ec     libucrt:output.obj
 0004:000013f8       $pdata$?type_case_s@?$output_processor@DV?$string_output_adapter@D@__crt_stdio_output@@V?$standard_base@DV?$string_output_adapter@D@__crt_stdio_output@@@2@@__crt_stdio_output@@AEAA_NXZ 00000001800453f8     libucrt:output.obj
 0004:00001404       $pdata$?type_case_s@?$output_processor@_WV?$string_output_adapter@_W@__crt_stdio_output@@V?$standard_base@_WV?$string_output_adapter@_W@__crt_stdio_output@@@2@@__crt_stdio_output@@AEAA_NXZ 0000000180045404     libucrt:output.obj
 0004:00001404       $pdata$?type_case_s@?$output_processor@_WV?$stream_output_adapter@_W@__crt_stdio_output@@V?$standard_base@_WV?$stream_output_adapter@_W@__crt_stdio_output@@@2@@__crt_stdio_output@@AEAA_NXZ 0000000180045404     libucrt:output.obj
 0004:00001410       $pdata$?write_stored_string_tchar@?$output_processor@DV?$string_output_adapter@D@__crt_stdio_output@@V?$standard_base@DV?$string_output_adapter@D@__crt_stdio_output@@@2@@__crt_stdio_output@@AEAA_ND@Z 0000000180045410     libucrt:output.obj
 0004:0000141c       $pdata$?write_stored_string_tchar@?$output_processor@_WV?$stream_output_adapter@_W@__crt_stdio_output@@V?$standard_base@_WV?$stream_output_adapter@_W@__crt_stdio_output@@@2@@__crt_stdio_output@@AEAA_N_W@Z 000000018004541c     libucrt:output.obj
 0004:00001428       $pdata$?write_stored_string_tchar@?$output_processor@_WV?$string_output_adapter@_W@__crt_stdio_output@@V?$standard_base@_WV?$string_output_adapter@_W@__crt_stdio_output@@@2@@__crt_stdio_output@@AEAA_N_W@Z 0000000180045428     libucrt:output.obj
 0004:00001434       $pdata$?write_string@?$stream_output_adapter@_W@__crt_stdio_output@@QEBAXQEB_WHQEAH1@Z 0000000180045434     libucrt:output.obj
 0004:00001440       $pdata$?write_string@?$string_output_adapter@D@__crt_stdio_output@@QEBAXQEBDHQEAH1@Z 0000000180045440     libucrt:output.obj
 0004:0000144c       $pdata$?write_string@?$string_output_adapter@_W@__crt_stdio_output@@QEBAXQEB_WHQEAH1@Z 000000018004544c     libucrt:output.obj
 0004:00001458       $pdata$__stdio_common_vfwprintf 0000000180045458     libucrt:output.obj
 0004:00001464       $pdata$__stdio_common_vsprintf 0000000180045464     libucrt:output.obj
 0004:00001470       $pdata$__stdio_common_vswprintf 0000000180045470     libucrt:output.obj
 0004:0000147c       $pdata$??$common_fsopen@D@@YAPEAU_iobuf@@QEBD0H@Z 000000018004547c     libucrt:fopen.obj
 0004:00001488       $pdata$_fclose_nolock      0000000180045488     libucrt:fclose.obj
 0004:00001494       $pdata$fclose              0000000180045494     libucrt:fclose.obj
 0004:000014a0       $pdata$?common_fseek@@YAHV__crt_stdio_stream@@_JH@Z 00000001800454a0     libucrt:fseek.obj
 0004:000014ac       $pdata$?common_fseek_binary_mode_read_only_fast_track_nolock@@YA_NV__crt_stdio_stream@@_JH@Z 00000001800454ac     libucrt:fseek.obj
 0004:000014b8       $pdata$?common_fseek_nolock@@YAHV__crt_stdio_stream@@_JH@Z 00000001800454b8     libucrt:fseek.obj
 0004:000014c4       $pdata$_fread_nolock_s     00000001800454c4     libucrt:fread.obj
 0004:000014d0       $pdata$fread               00000001800454d0     libucrt:fread.obj
 0004:000014dc       $pdata$fread_s             00000001800454dc     libucrt:fread.obj
 0004:000014e8       $pdata$_stricmp            00000001800454e8     libucrt:stricmp.obj
 0004:000014f4       $pdata$_stricmp_l          00000001800454f4     libucrt:stricmp.obj
 0004:00001500       $pdata$_callnewh           0000000180045500     libucrt:new_handler.obj
 0004:0000150c       $pdata$_query_new_handler  000000018004550c     libucrt:new_handler.obj
 0004:00001518       $pdata$_seh_filter_exe     0000000180045518     libucrt:exception_filter.obj
 0004:00001524       $pdata$?common_exit@@YAXHW4_crt_exit_cleanup_mode@@W4_crt_exit_return_mode@@@Z 0000000180045524     libucrt:exit.obj
 0004:00001530       $pdata$?exit_or_terminate_process@@YAXI@Z 0000000180045530     libucrt:exit.obj
 0004:0000153c       $pdata$?try_cor_exit_process@@YAXI@Z 000000018004553c     libucrt:exit.obj
 0004:00001548       $pdata$??$parse_command_line@D@@YAXPEADPEAPEAD0PEA_K2@Z 0000000180045548     libucrt:argv_parsing.obj
 0004:00001554       $pdata$__acrt_allocate_buffer_for_argv 0000000180045554     libucrt:argv_parsing.obj
 0004:00001560       $pdata$_configure_narrow_argv 0000000180045560     libucrt:argv_parsing.obj
 0004:0000156c       $pdata$??$common_initialize_environment_nolock@D@@YAHXZ 000000018004556c     libucrt:environment_initialization.obj
 0004:00001578       $pdata$??$create_environment@D@@YAQEAPEADQEAD@Z 0000000180045578     libucrt:environment_initialization.obj
 0004:00001584       $pdata$??$free_environment@_W@@YAXQEAPEA_W@Z 0000000180045584     libucrt:environment_initialization.obj
 0004:00001584       $pdata$??$free_environment@D@@YAXQEAPEAD@Z 0000000180045584     libucrt:environment_initialization.obj
 0004:00001590       $pdata$??$uninitialize_environment_internal@D@@YAXAEAPEAPEAD@Z 0000000180045590     libucrt:environment_initialization.obj
 0004:0000159c       $pdata$??$uninitialize_environment_internal@_W@@YAXAEAPEAPEA_W@Z 000000018004559c     libucrt:environment_initialization.obj
 0004:000015a8       $pdata$__dcrt_uninitialize_environments_nolock 00000001800455a8     libucrt:environment_initialization.obj
 0004:000015b4       $pdata$??$?RV<lambda_b8c45f8f788dd370798f47cfe8ac3a86>@@AEAV<lambda_4e60a939b0d047cfe11ddc22648dfba9>@@V<lambda_332c3edc96d0294ec56c57d38c1cdfd5>@@@?$__crt_seh_guarded_call@H@@QEAAH$$QEAV<lambda_b8c45f8f788dd370798f47cfe8ac3a86>@@AEAV<lambda_4e60a939b0d047cfe11ddc22648dfba9>@@$$QEAV<lambda_332c3edc96d0294ec56c57d38c1cdfd5>@@@Z 00000001800455b4     libucrt:onexit.obj
 0004:000015c0       $pdata$??$?RV<lambda_e24bbb7b643b32fcea6fa61b31d4c984>@@AEAV<lambda_275893d493268fdec8709772e3fcec0e>@@V<lambda_9d71df4d7cf3f480f8d633942495c3b0>@@@?$__crt_seh_guarded_call@H@@QEAAH$$QEAV<lambda_e24bbb7b643b32fcea6fa61b31d4c984>@@AEAV<lambda_275893d493268fdec8709772e3fcec0e>@@$$QEAV<lambda_9d71df4d7cf3f480f8d633942495c3b0>@@@Z 00000001800455c0     libucrt:onexit.obj
 0004:000015cc       $pdata$??R<lambda_4e60a939b0d047cfe11ddc22648dfba9>@@QEBAHXZ 00000001800455cc     libucrt:onexit.obj
 0004:000015d8       $pdata$_execute_onexit_table 00000001800455d8     libucrt:onexit.obj
 0004:000015e4       $pdata$_register_onexit_function 00000001800455e4     libucrt:onexit.obj
 0004:000015f0       $pdata$initialize_c        00000001800455f0     libucrt:initialization.obj
 0004:000015fc       $pdata$uninitialize_environment 00000001800455fc     libucrt:initialization.obj
 0004:00001608       $pdata$initialize_pointers 0000000180045608     libucrt:initialization.obj
 0004:00001614       $pdata$uninitialize_allocated_memory 0000000180045614     libucrt:initialization.obj
 0004:00001620       $pdata$__acrt_thread_attach 0000000180045620     libucrt:initialization.obj
 0004:0000162c       $pdata$__acrt_thread_detach 000000018004562c     libucrt:initialization.obj
 0004:00001638       $pdata$__acrt_uninitialize_critical 0000000180045638     libucrt:initialization.obj
 0004:00001644       $pdata$_initterm           0000000180045644     libucrt:initterm.obj
 0004:00001650       $pdata$_initterm_e         0000000180045650     libucrt:initterm.obj
 0004:0000165c       $pdata$terminate           000000018004565c     libucrt:terminate.obj
 0004:00001668       $pdata$_strdup             0000000180045668     libucrt:strdup.obj
 0004:00001674       $pdata$strcpy_s            0000000180045674     libucrt:strcpy_s.obj
 0004:00001680       $pdata$_free_base          0000000180045680     libucrt:free_base.obj
 0004:0000168c       $pdata$_malloc_base        000000018004568c     libucrt:malloc_base.obj
 0004:00001698       $pdata$abort               0000000180045698     libucrt:abort.obj
 0004:000016a4       $pdata$_calloc_base        00000001800456a4     libucrt:calloc_base.obj
 0004:000016b0       $pdata$??$parse_integer@KV?$c_string_character_source@D@__crt_strtox@@@__crt_strtox@@YAKQEAU__crt_locale_pointers@@V?$c_string_character_source@D@0@H_N@Z 00000001800456b0     libucrt:atox.obj
 0004:000016bc       $pdata$??$parse_integer@KV?$c_string_character_source@_W@__crt_strtox@@@__crt_strtox@@YAKQEAU__crt_locale_pointers@@V?$c_string_character_source@_W@0@H_N@Z 00000001800456bc     libucrt:atox.obj
 0004:000016c8       $pdata$_realloc_base       00000001800456c8     libucrt:realloc_base.obj
 0004:000016d4       $pdata$__acrt_errno_map_os_error 00000001800456d4     libucrt:errno.obj
 0004:000016e0       $pdata$__doserrno          00000001800456e0     libucrt:errno.obj
 0004:000016ec       $pdata$_errno              00000001800456ec     libucrt:errno.obj
 0004:000016f8       $pdata$??$common_xtox@K_W@@YAHKQEA_W_KI_N@Z 00000001800456f8     libucrt:xtoa.obj
 0004:00001704       $pdata$??$common_xtox_s@K_W@@YAHKQEA_W_KI_N@Z 0000000180045704     libucrt:xtoa.obj
 0004:00001710       $pdata$_itow_s             0000000180045710     libucrt:xtoa.obj
 0004:0000171c       $pdata$_set_error_mode     000000018004571c     libucrt:set_error_mode.obj
 0004:00001728       $pdata$wcscat_s            0000000180045728     libucrt:wcscat_s.obj
 0004:00001734       $pdata$wcscpy_s            0000000180045734     libucrt:wcscpy_s.obj
 0004:00001740       $pdata$wcsncat_s           0000000180045740     libucrt:wcsncat_s.obj
 0004:0000174c       $pdata$??$message_box_wait_thread@_W@@YAKQEAX@Z 000000018004574c     libucrt:crtmbox.obj
 0004:00001758       $pdata$__acrt_show_wide_message_box 0000000180045758     libucrt:crtmbox.obj
 0004:00001764       $pdata$__acrt_stdio_flush_nolock 0000000180045764     libucrt:fflush.obj
 0004:00001770       $pdata$_fflush_nolock      0000000180045770     libucrt:fflush.obj
 0004:0000177c       $pdata$common_flush_all    000000018004577c     libucrt:fflush.obj
 0004:00001788       $pdata$fflush              0000000180045788     libucrt:fflush.obj
 0004:00001794       $pdata$??$?RV<lambda_7a5ef57ff966f610505f1d28a3d40618>@@AEAV<lambda_b721fa326cdb32351d23dfa67958c160>@@V<lambda_5e0fb27672408a07956fe59e48ccb2aa>@@@?$__crt_seh_guarded_call@H@@QEAAH$$QEAV<lambda_7a5ef57ff966f610505f1d28a3d40618>@@AEAV<lambda_b721fa326cdb32351d23dfa67958c160>@@$$QEAV<lambda_5e0fb27672408a07956fe59e48ccb2aa>@@@Z 0000000180045794     libucrt:setvbuf.obj
 0004:000017a0       $pdata$??R<lambda_b721fa326cdb32351d23dfa67958c160>@@QEBAHXZ 00000001800457a0     libucrt:setvbuf.obj
 0004:000017ac       $pdata$setvbuf             00000001800457ac     libucrt:setvbuf.obj
 0004:000017b8       $pdata$??$?RV<lambda_c36588078e9f5dfd39652860aa6b3aaf>@@AEAV<lambda_ec61778202f4f5fc7e7711acc23c3bca>@@V<lambda_dc9d2797ccde5d239b4a0efae8ebd7db>@@@?$__crt_seh_guarded_call@P6AXH@Z@@QEAAP6AXH@Z$$QEAV<lambda_c36588078e9f5dfd39652860aa6b3aaf>@@AEAV<lambda_ec61778202f4f5fc7e7711acc23c3bca>@@$$QEAV<lambda_dc9d2797ccde5d239b4a0efae8ebd7db>@@@Z 00000001800457b8     libucrt:signal.obj
 0004:000017c4       $pdata$__acrt_get_sigabrt_handler 00000001800457c4     libucrt:signal.obj
 0004:000017d0       $pdata$raise               00000001800457d0     libucrt:signal.obj
 0004:000017dc       $pdata$_call_matherr       00000001800457dc     libucrt:libm_error.obj
 0004:000017e8       $pdata$_exception_enabled  00000001800457e8     libucrt:libm_error.obj
 0004:000017f4       $pdata$_handle_error       00000001800457f4     libucrt:libm_error.obj
 0004:00001800       $pdata$_handle_errorf      0000000180045800     libucrt:libm_error.obj
 0004:0000180c       $pdata$??$?RV<lambda_46352004c1216016012b18bd6f87e700>@@AEAV<lambda_3bd07e1a1191394380780325891bf33f>@@V<lambda_334532d3f185bcaa59b5be82d7d22bff>@@@?$__crt_seh_guarded_call@X@@QEAAX$$QEAV<lambda_46352004c1216016012b18bd6f87e700>@@AEAV<lambda_3bd07e1a1191394380780325891bf33f>@@$$QEAV<lambda_334532d3f185bcaa59b5be82d7d22bff>@@@Z 000000018004580c     libucrt:per_thread_data.obj
 0004:00001818       $pdata$??$?RV<lambda_5e887d1dcbef67a5eb4283622ba103bf>@@AEAV<lambda_4466841279450cc726390878d4a41900>@@V<lambda_341c25c0346d94847f1f3c463c57e077>@@@?$__crt_seh_guarded_call@X@@QEAAX$$QEAV<lambda_5e887d1dcbef67a5eb4283622ba103bf>@@AEAV<lambda_4466841279450cc726390878d4a41900>@@$$QEAV<lambda_341c25c0346d94847f1f3c463c57e077>@@@Z 0000000180045818     libucrt:per_thread_data.obj
 0004:00001824       $pdata$??$?RV<lambda_72d1df2b273a38828b1ce30cbf4cdab5>@@AEAV<lambda_876a65b173b8412d3a47c70a915b0cf4>@@V<lambda_41932305e351933ebe8f8be3ed8bb5dc>@@@?$__crt_seh_guarded_call@X@@QEAAX$$QEAV<lambda_72d1df2b273a38828b1ce30cbf4cdab5>@@AEAV<lambda_876a65b173b8412d3a47c70a915b0cf4>@@$$QEAV<lambda_41932305e351933ebe8f8be3ed8bb5dc>@@@Z 0000000180045824     libucrt:per_thread_data.obj
 0004:00001830       $pdata$??$?RV<lambda_fb3a7dec4e47f37f22dae91bb15c9095>@@AEAV<lambda_698284760c8add0bfb0756c19673e34b>@@V<lambda_dfb8eca1e75fef3034a8fb18dd509707>@@@?$__crt_seh_guarded_call@X@@QEAAX$$QEAV<lambda_fb3a7dec4e47f37f22dae91bb15c9095>@@AEAV<lambda_698284760c8add0bfb0756c19673e34b>@@$$QEAV<lambda_dfb8eca1e75fef3034a8fb18dd509707>@@@Z 0000000180045830     libucrt:per_thread_data.obj
 0004:0000183c       $pdata$?construct_ptd_array@@YAXQEAU__acrt_ptd@@@Z 000000018004583c     libucrt:per_thread_data.obj
 0004:00001848       $pdata$?destroy_fls@@YAXPEAX@Z 0000000180045848     libucrt:per_thread_data.obj
 0004:00001854       $pdata$?destroy_ptd_array@@YAXQEAU__acrt_ptd@@@Z 0000000180045854     libucrt:per_thread_data.obj
 0004:00001860       $pdata$?replace_current_thread_locale_nolock@@YAXQEAU__acrt_ptd@@QEAU__crt_locale_data@@@Z 0000000180045860     libucrt:per_thread_data.obj
 0004:0000186c       $pdata$__acrt_freeptd      000000018004586c     libucrt:per_thread_data.obj
 0004:00001878       $pdata$__acrt_getptd       0000000180045878     libucrt:per_thread_data.obj
 0004:00001884       $pdata$__acrt_getptd_noexit 0000000180045884     libucrt:per_thread_data.obj
 0004:00001890       $pdata$__acrt_initialize_ptd 0000000180045890     libucrt:per_thread_data.obj
 0004:0000189c       $pdata$__acrt_uninitialize_ptd 000000018004589c     libucrt:per_thread_data.obj
 0004:000018a8       $pdata$?try_get_function@@YAPEAXW4function_id@?A0x63058377@@QEBDQEBW4module_id@2@2@Z 00000001800458a8     libucrt:winapi_thunks.obj
 0004:000018b4       $pdata$__acrt_AreFileApisANSI 00000001800458b4     libucrt:winapi_thunks.obj
 0004:000018c0       $pdata$__acrt_FlsAlloc     00000001800458c0     libucrt:winapi_thunks.obj
 0004:000018cc       $pdata$__acrt_FlsFree      00000001800458cc     libucrt:winapi_thunks.obj
 0004:000018d8       $pdata$__acrt_FlsGetValue  00000001800458d8     libucrt:winapi_thunks.obj
 0004:000018e4       $pdata$__acrt_FlsSetValue  00000001800458e4     libucrt:winapi_thunks.obj
 0004:000018f0       $pdata$__acrt_InitializeCriticalSectionEx 00000001800458f0     libucrt:winapi_thunks.obj
 0004:000018fc       $pdata$__acrt_LCMapStringEx 00000001800458fc     libucrt:winapi_thunks.obj
 0004:00001908       $pdata$__acrt_LocaleNameToLCID 0000000180045908     libucrt:winapi_thunks.obj
 0004:00001914       $pdata$__acrt_MessageBoxW  0000000180045914     libucrt:winapi_thunks.obj
 0004:00001920       $pdata$__acrt_can_show_message_box 0000000180045920     libucrt:winapi_thunks.obj
 0004:0000192c       $pdata$__acrt_get_parent_window 000000018004592c     libucrt:winapi_thunks.obj
 0004:00001938       $pdata$__acrt_initialize_winapi_thunks 0000000180045938     libucrt:winapi_thunks.obj
 0004:00001944       $pdata$__acrt_is_interactive 0000000180045944     libucrt:winapi_thunks.obj
 0004:00001950       $pdata$__acrt_is_packaged_app 0000000180045950     libucrt:winapi_thunks.obj
 0004:0000195c       $pdata$__acrt_uninitialize_winapi_thunks 000000018004595c     libucrt:winapi_thunks.obj
 0004:00001968       $pdata$_fcloseall          0000000180045968     libucrt:closeall.obj
 0004:00001974       $pdata$__acrt_stdio_free_buffer_nolock 0000000180045974     libucrt:_freebuf.obj
 0004:00001980       $pdata$?initialize_inherited_file_handles_nolock@@YAXXZ 0000000180045980     libucrt:ioinit.obj
 0004:0000198c       $pdata$?initialize_stdio_handles_nolock@@YAXXZ 000000018004598c     libucrt:ioinit.obj
 0004:00001998       $pdata$__acrt_initialize_lowio 0000000180045998     libucrt:ioinit.obj
 0004:000019a4       $pdata$__acrt_uninitialize_lowio 00000001800459a4     libucrt:ioinit.obj
 0004:000019b0       $pdata$isdigit             00000001800459b0     libucrt:_ctype.obj
 0004:000019bc       $pdata$?internal_isupper_l@@YA_NHQEAU__crt_locale_pointers@@@Z 00000001800459bc     libucrt:tolower_toupper.obj
 0004:000019c8       $pdata$_tolower_l          00000001800459c8     libucrt:tolower_toupper.obj
 0004:000019d4       $pdata$tolower             00000001800459d4     libucrt:tolower_toupper.obj
 0004:000019e0       $pdata$strtol              00000001800459e0     libucrt:strtox.obj
 0004:000019ec       $pdata$wcstol              00000001800459ec     libucrt:strtox.obj
 0004:000019f8       $pdata$_mbtowc_l           00000001800459f8     libucrt:mbtowc.obj
 0004:00001a04       $pdata$_wctomb_s_l         0000000180045a04     libucrt:wctomb.obj
 0004:00001a10       $pdata$wctomb_s            0000000180045a10     libucrt:wctomb.obj
 0004:00001a1c       $pdata$strnlen             0000000180045a1c     libucrt:strnlen.obj
 0004:00001a28       $pdata$wcsnlen             0000000180045a28     libucrt:strnlen.obj
 0004:00001a34       $pdata$__acrt_update_locale_info 0000000180045a34     libucrt:locale_update.obj
 0004:00001a40       $pdata$__acrt_update_multibyte_info 0000000180045a40     libucrt:locale_update.obj
 0004:00001a4c       $pdata$?fp_format_a@@YAHQEBNPEAD_KQEAD2H_NIQEAU__crt_locale_pointers@@@Z 0000000180045a4c     libucrt:cvt.obj
 0004:00001a58       $pdata$?fp_format_e@@YAHQEBNQEAD_K12H_NIQEAU__crt_locale_pointers@@@Z 0000000180045a58     libucrt:cvt.obj
 0004:00001a64       $pdata$?fp_format_e_internal@@YAHQEAD_KH_NIQEAU_strflt@@2QEAU__crt_locale_pointers@@@Z 0000000180045a64     libucrt:cvt.obj
 0004:00001a70       $pdata$?fp_format_f_internal@@YAHQEAD_KHQEAU_strflt@@_NQEAU__crt_locale_pointers@@@Z 0000000180045a70     libucrt:cvt.obj
 0004:00001a7c       $pdata$?fp_format_g@@YAHQEBNQEAD_K12H_NIQEAU__crt_locale_pointers@@@Z 0000000180045a7c     libucrt:cvt.obj
 0004:00001a88       $pdata$?fp_format_nan_or_infinity@@YAHW4__acrt_fp_class@@_NPEAD_K1@Z 0000000180045a88     libucrt:cvt.obj
 0004:00001a94       $pdata$__acrt_fp_format    0000000180045a94     libucrt:cvt.obj
 0004:00001aa0       $pdata$_fputwc_nolock      0000000180045aa0     libucrt:fputwc.obj
 0004:00001aac       $pdata$_fileno             0000000180045aac     libucrt:fileno.obj
 0004:00001ab8       $pdata$__acrt_stdio_begin_temporary_buffering_nolock 0000000180045ab8     libucrt:_sftbuf.obj
 0004:00001ac4       $pdata$__acrt_stdio_end_temporary_buffering_nolock 0000000180045ac4     libucrt:_sftbuf.obj
 0004:00001ad0       $pdata$__acrt_uninitialize_locale 0000000180045ad0     libucrt:wsetlocale.obj
 0004:00001adc       $pdata$?__acrt_stdio_allocate_stream@@YA?AV__crt_stdio_stream@@XZ 0000000180045adc     libucrt:stream.obj
 0004:00001ae8       $pdata$?find_or_allocate_unused_stream_nolock@@YA?AV__crt_stdio_stream@@XZ 0000000180045ae8     libucrt:stream.obj
 0004:00001af4       $pdata$??$__acrt_stdio_parse_mode@D@@YA?AU__acrt_stdio_stream_mode@@QEBD@Z 0000000180045af4     libucrt:openfile.obj
 0004:00001b00       $pdata$_openfile           0000000180045b00     libucrt:openfile.obj
 0004:00001b0c       $pdata$??$?RV<lambda_bfedae4ebbf01fab1bb6dcc6a9e276e0>@@AEAV<lambda_2fe9b910cf3cbf4a0ab98a02ba45b3ec>@@V<lambda_237c231691f317818eb88cc1d5d642d6>@@@?$__crt_seh_guarded_call@H@@QEAAH$$QEAV<lambda_bfedae4ebbf01fab1bb6dcc6a9e276e0>@@AEAV<lambda_2fe9b910cf3cbf4a0ab98a02ba45b3ec>@@$$QEAV<lambda_237c231691f317818eb88cc1d5d642d6>@@@Z 0000000180045b0c     libucrt:close.obj
 0004:00001b18       $pdata$_close              0000000180045b18     libucrt:close.obj
 0004:00001b24       $pdata$_close_nolock       0000000180045b24     libucrt:close.obj
 0004:00001b30       $pdata$??$common_ftell_nolock@_J@@YA_JV__crt_stdio_stream@@@Z 0000000180045b30     libucrt:ftell.obj
 0004:00001b3c       $pdata$?common_ftell_read_mode_nolock@@YA_JV__crt_stdio_stream@@_J1@Z 0000000180045b3c     libucrt:ftell.obj
 0004:00001b48       $pdata$?common_ftell_translated_utf8_nolock@@YA_JV__crt_stdio_stream@@_J@Z 0000000180045b48     libucrt:ftell.obj
 0004:00001b54       $pdata$??$common_lseek@_J@@YA_JH_JH@Z 0000000180045b54     libucrt:lseek.obj
 0004:00001b60       $pdata$??$common_lseek_nolock@_J@@YA_JH_JH@Z 0000000180045b60     libucrt:lseek.obj
 0004:00001b6c       $pdata$??$translate_text_mode_nolock@_W@@YAHHQEA_W_K@Z 0000000180045b6c     libucrt:read.obj
 0004:00001b78       $pdata$?translate_ansi_or_utf8_nolock@@YAHHQEAD_KQEA_W1@Z 0000000180045b78     libucrt:read.obj
 0004:00001b84       $pdata$_read               0000000180045b84     libucrt:read.obj
 0004:00001b90       $pdata$_read_nolock        0000000180045b90     libucrt:read.obj
 0004:00001b9c       $pdata$??$common_refill_and_read_nolock@D@@YAHV__crt_stdio_stream@@@Z 0000000180045b9c     libucrt:_filbuf.obj
 0004:00001ba8       $pdata$__acrt_initialize_locks 0000000180045ba8     libucrt:locks.obj
 0004:00001bb4       $pdata$__acrt_uninitialize_locks 0000000180045bb4     libucrt:locks.obj
 0004:00001bc0       $pdata$??$common_expand_argv_wildcards@D@@YAHQEAPEADQEAPEAPEAD@Z 0000000180045bc0     libucrt:argv_wildcards.obj
 0004:00001bcc       $pdata$??$copy_and_add_argument_to_buffer@D@@YAHQEBD0_KAEAV?$argument_list@D@?A0xca0879c4@@@Z 0000000180045bcc     libucrt:argv_wildcards.obj
 0004:00001bd8       $pdata$??$expand_argument_wildcards@D@@YAHQEAD0AEAV?$argument_list@D@?A0xca0879c4@@@Z 0000000180045bd8     libucrt:argv_wildcards.obj
 0004:00001be4       $pdata$?expand_if_necessary@?$argument_list@D@?A0xca0879c4@@AEAAHXZ 0000000180045be4     libucrt:argv_wildcards.obj
 0004:00001bf0       $pdata$??$?RV<lambda_99476a1ad63dd22509b5d3e65b0ffc95>@@AEAV<lambda_ad1ced32f4ac17aa236e5ef05d6b3b7c>@@V<lambda_f7424dd8d45958661754dc4f2697e9c3>@@@?$__crt_seh_guarded_call@X@@QEAAX$$QEAV<lambda_99476a1ad63dd22509b5d3e65b0ffc95>@@AEAV<lambda_ad1ced32f4ac17aa236e5ef05d6b3b7c>@@$$QEAV<lambda_f7424dd8d45958661754dc4f2697e9c3>@@@Z 0000000180045bf0     libucrt:mbctype.obj
 0004:00001bfc       $pdata$??R<lambda_ad1ced32f4ac17aa236e5ef05d6b3b7c>@@QEBAXXZ 0000000180045bfc     libucrt:mbctype.obj
 0004:00001c08       $pdata$?getSystemCP@@YAHH@Z 0000000180045c08     libucrt:mbctype.obj
 0004:00001c14       $pdata$?setSBCS@@YAXPEAU__crt_multibyte_data@@@Z 0000000180045c14     libucrt:mbctype.obj
 0004:00001c20       $pdata$?setSBUpLow@@YAXPEAU__crt_multibyte_data@@@Z 0000000180045c20     libucrt:mbctype.obj
 0004:00001c2c       $pdata$?setmbcp_internal@@YAHH_N@Z 0000000180045c2c     libucrt:mbctype.obj
 0004:00001c38       $pdata$__acrt_initialize_multibyte 0000000180045c38     libucrt:mbctype.obj
 0004:00001c44       $pdata$__acrt_update_thread_multibyte_data 0000000180045c44     libucrt:mbctype.obj
 0004:00001c50       $pdata$_setmbcp_nolock     0000000180045c50     libucrt:mbctype.obj
 0004:00001c5c       $pdata$?x_ismbbtype_l@@YAHPEAU__crt_locale_pointers@@IHH@Z 0000000180045c5c     libucrt:ismbbyte.obj
 0004:00001c68       $pdata$__acrt_initialize_command_line 0000000180045c68     libucrt:argv_data.obj
 0004:00001c74       $pdata$__dcrt_get_narrow_environment_from_os 0000000180045c74     libucrt:get_environment_from_os.obj
 0004:00001c80       $pdata$_recalloc_base      0000000180045c80     libucrt:recalloc.obj
 0004:00001c8c       $pdata$__acrt_initialize_heap 0000000180045c8c     libucrt:heap_handle.obj
 0004:00001c98       $pdata$__acrt_execute_initializers 0000000180045c98     libucrt:shared_initialization.obj
 0004:00001ca4       $pdata$__acrt_execute_uninitializers 0000000180045ca4     libucrt:shared_initialization.obj
 0004:00001cb0       $pdata$__acrt_invoke_user_matherr 0000000180045cb0     libucrt:matherr.obj
 0004:00001cbc       $pdata$__pctype_func       0000000180045cbc     libucrt:ctype.obj
 0004:00001cc8       $pdata$iswctype            0000000180045cc8     libucrt:iswctype.obj
 0004:00001cd4       $pdata$_isctype_l          0000000180045cd4     libucrt:isctype.obj
 0004:00001ce0       $pdata$??$?RV<lambda_b521505b218e5242e90febf6bfebc422>@@AEAV<lambda_6978c1fb23f02e42e1d9e99668cc68aa>@@V<lambda_314360699dd331753a4119843814e9a7>@@@?$__crt_seh_guarded_call@H@@QEAAH$$QEAV<lambda_b521505b218e5242e90febf6bfebc422>@@AEAV<lambda_6978c1fb23f02e42e1d9e99668cc68aa>@@$$QEAV<lambda_314360699dd331753a4119843814e9a7>@@@Z 0000000180045ce0     libucrt:commit.obj
 0004:00001cec       $pdata$_commit             0000000180045cec     libucrt:commit.obj
 0004:00001cf8       $pdata$?write_double_translated_ansi_nolock@@YA?AUwrite_result@?A0x9c548279@@HQEBDI@Z 0000000180045cf8     libucrt:write.obj
 0004:00001d04       $pdata$?write_text_ansi_nolock@@YA?AUwrite_result@?A0x9c548279@@HQEBDI@Z 0000000180045d04     libucrt:write.obj
 0004:00001d10       $pdata$?write_text_utf16le_nolock@@YA?AUwrite_result@?A0x9c548279@@HQEBDI@Z 0000000180045d10     libucrt:write.obj
 0004:00001d1c       $pdata$?write_text_utf8_nolock@@YA?AUwrite_result@?A0x9c548279@@HQEBDI@Z 0000000180045d1c     libucrt:write.obj
 0004:00001d28       $pdata$_write              0000000180045d28     libucrt:write.obj
 0004:00001d34       $pdata$_write_nolock       0000000180045d34     libucrt:write.obj
 0004:00001d40       $pdata$_raise_exc          0000000180045d40     libucrt:fpexcept.obj
 0004:00001d4c       $pdata$_raise_exc_ex       0000000180045d4c     libucrt:fpexcept.obj
 0004:00001d58       $pdata$_raise_excf         0000000180045d58     libucrt:fpexcept.obj
 0004:00001d64       $pdata$_set_errno_from_matherr 0000000180045d64     libucrt:fpexcept.obj
 0004:00001d70       $pdata$_clrfp              0000000180045d70     libucrt:fpctrl.obj
 0004:00001d7c       $pdata$_ctrlfp             0000000180045d7c     libucrt:fpctrl.obj
 0004:00001d88       $pdata$_set_statfp         0000000180045d88     libucrt:fpctrl.obj
 0004:00001d94       $pdata$_statfp             0000000180045d94     libucrt:fpctrl.obj
 0004:00001da0       $pdata$__acrt_free_locale  0000000180045da0     libucrt:locale_refcounting.obj
 0004:00001dac       $pdata$__acrt_locale_free_lc_time_if_unreferenced 0000000180045dac     libucrt:locale_refcounting.obj
 0004:00001db8       $pdata$__acrt_release_locale_ref 0000000180045db8     libucrt:locale_refcounting.obj
 0004:00001dc4       $pdata$__acrt_update_thread_locale_data 0000000180045dc4     libucrt:locale_refcounting.obj
 0004:00001dd0       $pdata$_updatetlocinfoEx_nolock 0000000180045dd0     libucrt:locale_refcounting.obj
 0004:00001ddc       $pdata$?GetTableIndexFromLocaleName@@YAHPEB_W@Z 0000000180045ddc     libucrt:lcidtoname_downlevel.obj
 0004:00001de8       $pdata$__acrt_DownlevelLocaleNameToLCID 0000000180045de8     libucrt:lcidtoname_downlevel.obj
 0004:00001df4       $pdata$__acrt_lowio_create_handle_array 0000000180045df4     libucrt:osfinfo.obj
 0004:00001e00       $pdata$__acrt_lowio_destroy_handle_array 0000000180045e00     libucrt:osfinfo.obj
 0004:00001e0c       $pdata$__acrt_lowio_ensure_fh_exists 0000000180045e0c     libucrt:osfinfo.obj
 0004:00001e18       $pdata$__acrt_lowio_set_os_handle 0000000180045e18     libucrt:osfinfo.obj
 0004:00001e24       $pdata$_alloc_osfhnd       0000000180045e24     libucrt:osfinfo.obj
 0004:00001e30       $pdata$_free_osfhnd        0000000180045e30     libucrt:osfinfo.obj
 0004:00001e3c       $pdata$_get_osfhandle      0000000180045e3c     libucrt:osfinfo.obj
 0004:00001e48       $pdata$_isleadbyte_l       0000000180045e48     libucrt:_wctype.obj
 0004:00001e54       $pdata$?__acrt_LCMapStringA_stat@@YAHPEAU__crt_locale_pointers@@PEB_WKPEBDHPEADHHH@Z 0000000180045e54     libucrt:lcmapstringa.obj
 0004:00001e60       $pdata$__acrt_LCMapStringA 0000000180045e60     libucrt:lcmapstringa.obj
 0004:00001e6c       $pdata$__acrt_fp_strflt_to_string 0000000180045e6c     libucrt:_fptostr.obj
 0004:00001e78       $pdata$?divide@__crt_strtox@@YA_KAEAUbig_integer@1@AEBU21@@Z 0000000180045e78     libucrt:cfout.obj
 0004:00001e84       $pdata$5$?divide@__crt_strtox@@YA_KAEAUbig_integer@1@AEBU21@@Z 0000000180045e84     libucrt:cfout.obj
 0004:00001e90       $pdata$6$?divide@__crt_strtox@@YA_KAEAUbig_integer@1@AEBU21@@Z 0000000180045e90     libucrt:cfout.obj
 0004:00001e9c       $pdata$__acrt_fltout       0000000180045e9c     libucrt:cfout.obj
 0004:00001ea8       $pdata$memcpy_s            0000000180045ea8     libucrt:cfout.obj
 0004:00001eb4       $pdata$??$write_buffer_nolock@D@@YA_NDV__crt_stdio_stream@@@Z 0000000180045eb4     libucrt:_flsbuf.obj
 0004:00001ec0       $pdata$??$write_buffer_nolock@_W@@YA_N_WV__crt_stdio_stream@@@Z 0000000180045ec0     libucrt:_flsbuf.obj
 0004:00001ecc       $pdata$__acrt_stdio_flush_and_write_narrow_nolock 0000000180045ecc     libucrt:_flsbuf.obj
 0004:00001ed8       $pdata$__acrt_stdio_flush_and_write_wide_nolock 0000000180045ed8     libucrt:_flsbuf.obj
 0004:00001ee4       $pdata$_isatty             0000000180045ee4     libucrt:isatty.obj
 0004:00001ef0       $pdata$__acrt_locale_free_monetary 0000000180045ef0     libucrt:initmon.obj
 0004:00001efc       $pdata$__acrt_locale_free_numeric 0000000180045efc     libucrt:initnum.obj
 0004:00001f08       $pdata$?free_crt_array_internal@@YAXQEAPEBX_K@Z 0000000180045f08     libucrt:inittime.obj
 0004:00001f14       $pdata$__acrt_locale_free_time 0000000180045f14     libucrt:inittime.obj
 0004:00001f20       $pdata$__acrt_GetStringTypeA 0000000180045f20     libucrt:getstringtypea.obj
 0004:00001f38       $pdata$_strnicmp           0000000180045f38     libucrt:strnicmp.obj
 0004:00001f44       $pdata$_strnicmp_l         0000000180045f44     libucrt:strnicmp.obj
 0004:00001f50       $pdata$??$common_sopen_dispatch@D@@YAHQEBDHHHQEAHH@Z 0000000180045f50     libucrt:open.obj
 0004:00001f5c       $pdata$?configure_text_mode@@YAHHUfile_options@?A0x656cf9f4@@HAEAW4__crt_lowio_text_mode@@@Z 0000000180045f5c     libucrt:open.obj
 0004:00001f68       $pdata$?decode_options@@YA?AUfile_options@?A0x656cf9f4@@HHH@Z 0000000180045f68     libucrt:open.obj
 0004:00001f74       $pdata$?truncate_ctrl_z_if_present@@YAHH@Z 0000000180045f74     libucrt:open.obj
 0004:00001f80       $pdata$_sopen_nolock       0000000180045f80     libucrt:open.obj
 0004:00001f8c       $pdata$_sopen_s            0000000180045f8c     libucrt:open.obj
 0004:00001f98       $pdata$_wsopen_nolock      0000000180045f98     libucrt:open.obj
 0004:00001fa4       $pdata$__acrt_stdio_allocate_buffer_nolock 0000000180045fa4     libucrt:_getbuf.obj
 0004:00001fb0       $pdata$?shortsort@@YAXPEAD0_KP6AHPEBX2@Z@Z 0000000180045fb0     libucrt:qsort.obj
 0004:00001fbc       $pdata$2$?shortsort@@YAXPEAD0_KP6AHPEBX2@Z@Z 0000000180045fbc     libucrt:qsort.obj
 0004:00001fc8       $pdata$3$?shortsort@@YAXPEAD0_KP6AHPEBX2@Z@Z 0000000180045fc8     libucrt:qsort.obj
 0004:00001fd4       $pdata$qsort               0000000180045fd4     libucrt:qsort.obj
 0004:00001fe0       $pdata$4$qsort             0000000180045fe0     libucrt:qsort.obj
 0004:00001fec       $pdata$5$qsort             0000000180045fec     libucrt:qsort.obj
 0004:00001ff8       $pdata$strncpy_s           0000000180045ff8     libucrt:strncpy_s.obj
 0004:00002004       $pdata$strpbrk             0000000180046004     libucrt:strpbrk.obj
 0004:00002010       $pdata$_mbsdec_l           0000000180046010     libucrt:mbsdec.obj
 0004:0000201c       $pdata$?initialize_multibyte@@YAHXZ 000000018004601c     libucrt:multibyte_initializer.obj
 0004:00002028       $pdata$_msize              0000000180046028     libucrt:msize.obj
 0004:00002034       $pdata$_putwch_nolock      0000000180046034     libucrt:putwch.obj
 0004:0000204c       $pdata$fegetenv            000000018004604c     libucrt:fegetenv.obj
 0004:00002058       $pdata$fesetenv            0000000180046058     libucrt:fesetenv.obj
 0004:00002064       $pdata$feholdexcept        0000000180046064     libucrt:feholdexcept.obj
 0004:0000207c       $pdata$_get_fmode          000000018004607c     libucrt:setmode.obj
 0004:00002088       $pdata$_setmode_nolock     0000000180046088     libucrt:setmode.obj
 0004:00002094       $pdata$__acrt_copy_path_to_wide_string 0000000180046094     libucrt:string_utilities.obj
 0004:000020a0       $pdata$_chsize_nolock      00000001800460a0     libucrt:chsize.obj
 0004:000020ac       $pdata$__dcrt_lowio_initialize_console_output 00000001800460ac     libucrt:initcon.obj
 0004:000020b8       $pdata$__dcrt_terminate_console_output 00000001800460b8     libucrt:initcon.obj
 0004:000020c4       $pdata$_getfpcontrolword   00000001800460c4     libucrt:_fenvutils.obj
 0004:000020d0       $pdata$_getfpstatusword    00000001800460d0     libucrt:_fenvutils.obj
 0004:000020dc       $pdata$_setfpstatusword    00000001800460dc     libucrt:_fenvutils.obj
 0004:000020e8       $pdata$_clearfp            00000001800460e8     libucrt:ieee.obj
 0004:000020f4       $pdata$common_control87    00000001800460f4     libucrt:ieee.obj
 0004:00002100       $pdata$__acrt_initialize_fma3 0000000180046100     libucrt:fma3_available.obj
 0004:0000210c       $pdata$_log10_special      000000018004610c     libucrt:log_special.obj
 0004:00002118       $pdata$_log_special_common 0000000180046118     libucrt:log_special.obj
 0004:00002124       $pdata$?DloadAcquireSectionWriteAccess@@YAXXZ 0000000180046124     DelayImp:delayhlp.obj
 0004:00002130       $pdata$?DloadGetSRWLockFunctionPointers@@YAEXZ 0000000180046130     DelayImp:delayhlp.obj
 0004:0000213c       $pdata$?DloadMakePermanentImageCommit@@YAXPEAX_K@Z 000000018004613c     DelayImp:delayhlp.obj
 0004:00002148       $pdata$?DloadObtainSection@@YAPEAXPEAK0@Z 0000000180046148     DelayImp:delayhlp.obj
 0004:00002154       $pdata$?DloadProtectSection@@YAXKPEAK@Z 0000000180046154     DelayImp:delayhlp.obj
 0004:00002160       $pdata$?DloadReleaseSectionWriteAccess@@YAXXZ 0000000180046160     DelayImp:delayhlp.obj
 0004:0000216c       $pdata$__delayLoadHelper2  000000018004616c     DelayImp:delayhlp.obj
 0004:00002178       $pdata$_IsNonwritableInCurrentImage 0000000180046178     LIBCMT:pesect.obj
 0004:00002184       $pdata$__GSHandlerCheck    0000000180046184     LIBCMT:_gshandler_.obj
 0004:00002190       $pdata$__GSHandlerCheckCommon 0000000180046190     LIBCMT:_gshandler_.obj
 0004:000021a8       $pdata$strrchr             00000001800461a8     libvcruntime:strrchr.obj
 0004:000021c0       $pdata$__GSHandlerCheck_EH 00000001800461c0     LIBCMT:gshandlereh.obj
 0004:000021cc       $pdata$acos                00000001800461cc     libucrt:acos.obj
 0004:000021d8       $pdata$acosf               00000001800461d8     libucrt:acosf.obj
 0004:000021e4       $pdata$fmodf               00000001800461e4     libucrt:fmodf.obj
 0004:000021f0       $pdata$sqrtf               00000001800461f0     libucrt:sqrtf.obj
 0004:00002220       $pdata$_sincos_special     0000000180046220     libucrt:sincos_special.obj
 0004:0000228c       $pdata$?dtor$2@?0??New@Canvas@@SAXAEBV?$FunctionCallbackInfo@VValue@v8@@@Nan@@@Z@4HA 000000018004628c     Canvas.obj
 0004:00002298       $pdata$?dtor$0@?0??ToBuffer@Canvas@@SAXAEBV?$FunctionCallbackInfo@VValue@v8@@@Nan@@@Z@4HA 0000000180046298     Canvas.obj
 0004:000022a4       $pdata$?dtor$0@?0??New@Gradient@@SAXAEBV?$FunctionCallbackInfo@VValue@v8@@@Nan@@@Z@4HA 00000001800462a4     CanvasGradient.obj
 0004:000022b0       $pdata$?dtor$1@?0??New@Gradient@@SAXAEBV?$FunctionCallbackInfo@VValue@v8@@@Nan@@@Z@4HA 00000001800462b0     CanvasGradient.obj
 0004:000022bc       $pdata$?dtor$0@?0??SetOnload@Image@@SAXV?$Local@VString@v8@@@v8@@V?$Local@VValue@v8@@@3@AEBV?$PropertyCallbackInfo@X@Nan@@@Z@4HA 00000001800462bc     Image.obj
 0004:000022bc       $pdata$?dtor$0@?0??SetOnerror@Image@@SAXV?$Local@VString@v8@@@v8@@V?$Local@VValue@v8@@@3@AEBV?$PropertyCallbackInfo@X@Nan@@@Z@4HA 00000001800462bc     Image.obj
 0004:000022c8       $pdata$__scrt_is_nonwritable_in_current_image$filt$0 00000001800462c8     LIBCMT:utility.obj
 0004:000022d4       $pdata$?fin$0@?0??dllmain_crt_process_attach@@YAHQEAUHINSTANCE__@@QEAX@Z@4HA 00000001800462d4     LIBCMT:dll_dllmain.obj
 0004:000022e0       $pdata$?fin$0@?0??dllmain_crt_process_detach@@YAH_N@Z@4HA 00000001800462e0     LIBCMT:dll_dllmain.obj
 0004:000022ec       $pdata$?filt$0@?0??dllmain_dispatch@@YAHQEAUHINSTANCE__@@KQEAX@Z@4HA 00000001800462ec     LIBCMT:dll_dllmain.obj
 0004:000022f8       $pdata$__CxxCallCatchBlock$filt$0 00000001800462f8     libvcruntime:frame.obj
 0004:00002304       $pdata$__CxxCallCatchBlock$fin$1 0000000180046304     libvcruntime:frame.obj
 0004:00002310       $pdata$__DestructExceptionObject$filt$0 0000000180046310     libvcruntime:frame.obj
 0004:0000231c       $pdata$__FrameUnwindToState$filt$0 000000018004631c     libvcruntime:frame.obj
 0004:00002328       $pdata$__FrameUnwindToState$fin$1 0000000180046328     libvcruntime:frame.obj
 0004:00002334       $pdata$_CallSETranslator$filt$0 0000000180046334     libvcruntime:trnsctrl.obj
 0004:00002340       $pdata$?fin$0@?0???$?RV<lambda_7a5ef57ff966f610505f1d28a3d40618>@@AEAV<lambda_b721fa326cdb32351d23dfa67958c160>@@V<lambda_5e0fb27672408a07956fe59e48ccb2aa>@@@?$__crt_seh_guarded_call@H@@QEAAH$$QEAV<lambda_7a5ef57ff966f610505f1d28a3d40618>@@AEAV<lambda_b721fa326cdb32351d23dfa67958c160>@@$$QEAV<lambda_5e0fb27672408a07956fe59e48ccb2aa>@@@Z@4HA 0000000180046340     libucrt:setvbuf.obj
 0004:00002340       $pdata$?fin$0@?0???$?RV<lambda_7b91131dde12e1c3dfc74ff76b3f2eac>@@AEAV<lambda_dd75445284c072d0bd3768540cc698fa>@@V<lambda_16bc4ecb55b4718497c16bceaea2ceaf>@@@?$__crt_seh_guarded_call@H@@QEAAH$$QEAV<lambda_7b91131dde12e1c3dfc74ff76b3f2eac>@@AEAV<lambda_dd75445284c072d0bd3768540cc698fa>@@$$QEAV<lambda_16bc4ecb55b4718497c16bceaea2ceaf>@@@Z@4HA 0000000180046340     libucrt:output.obj
 0004:0000234c       $pdata$?fin$0@?0???$common_fsopen@D@@YAPEAU_iobuf@@QEBD0H@Z@4HA 000000018004634c     libucrt:fopen.obj
 0004:00002358       $pdata$?fin$0@?0??common_fseek@@YAHV__crt_stdio_stream@@_JH@Z@4HA 0000000180046358     libucrt:fseek.obj
 0004:00002364       $pdata$fread_s$fin$0       0000000180046364     libucrt:fread.obj
 0004:00002370       $pdata$_query_new_handler$fin$0 0000000180046370     libucrt:new_handler.obj
 0004:0000237c       $pdata$?filt$0@?0??common_exit@@YAXHW4_crt_exit_cleanup_mode@@W4_crt_exit_return_mode@@@Z@4HA 000000018004637c     libucrt:exit.obj
 0004:00002388       $pdata$?fin$1@?0??common_exit@@YAXHW4_crt_exit_cleanup_mode@@W4_crt_exit_return_mode@@@Z@4HA 0000000180046388     libucrt:exit.obj
 0004:00002394       $pdata$?fin$0@?0???$?RV<lambda_e24bbb7b643b32fcea6fa61b31d4c984>@@AEAV<lambda_275893d493268fdec8709772e3fcec0e>@@V<lambda_9d71df4d7cf3f480f8d633942495c3b0>@@@?$__crt_seh_guarded_call@H@@QEAAH$$QEAV<lambda_e24bbb7b643b32fcea6fa61b31d4c984>@@AEAV<lambda_275893d493268fdec8709772e3fcec0e>@@$$QEAV<lambda_9d71df4d7cf3f480f8d633942495c3b0>@@@Z@4HA 0000000180046394     libucrt:onexit.obj
 0004:000023a0       $pdata$common_flush_all$fin$0 00000001800463a0     libucrt:fflush.obj
 0004:000023ac       $pdata$common_flush_all$fin$1 00000001800463ac     libucrt:fflush.obj
 0004:000023b8       $pdata$fflush$fin$0        00000001800463b8     libucrt:fflush.obj
 0004:000023b8       $pdata$fclose$fin$0        00000001800463b8     libucrt:fclose.obj
 0004:000023c4       $pdata$raise$fin$0         00000001800463c4     libucrt:signal.obj
 0004:000023d0       $pdata$?fin$0@?0???$?RV<lambda_72d1df2b273a38828b1ce30cbf4cdab5>@@AEAV<lambda_876a65b173b8412d3a47c70a915b0cf4>@@V<lambda_41932305e351933ebe8f8be3ed8bb5dc>@@@?$__crt_seh_guarded_call@X@@QEAAX$$QEAV<lambda_72d1df2b273a38828b1ce30cbf4cdab5>@@AEAV<lambda_876a65b173b8412d3a47c70a915b0cf4>@@$$QEAV<lambda_41932305e351933ebe8f8be3ed8bb5dc>@@@Z@4HA 00000001800463d0     libucrt:per_thread_data.obj
 0004:000023d0       $pdata$?fin$0@?0???$?RV<lambda_c36588078e9f5dfd39652860aa6b3aaf>@@AEAV<lambda_ec61778202f4f5fc7e7711acc23c3bca>@@V<lambda_dc9d2797ccde5d239b4a0efae8ebd7db>@@@?$__crt_seh_guarded_call@P6AXH@Z@@QEAAP6AXH@Z$$QEAV<lambda_c36588078e9f5dfd39652860aa6b3aaf>@@AEAV<lambda_ec61778202f4f5fc7e7711acc23c3bca>@@$$QEAV<lambda_dc9d2797ccde5d239b4a0efae8ebd7db>@@@Z@4HA 00000001800463d0     libucrt:signal.obj
 0004:000023d0       $pdata$?fin$0@?0???$?RV<lambda_b8c45f8f788dd370798f47cfe8ac3a86>@@AEAV<lambda_4e60a939b0d047cfe11ddc22648dfba9>@@V<lambda_332c3edc96d0294ec56c57d38c1cdfd5>@@@?$__crt_seh_guarded_call@H@@QEAAH$$QEAV<lambda_b8c45f8f788dd370798f47cfe8ac3a86>@@AEAV<lambda_4e60a939b0d047cfe11ddc22648dfba9>@@$$QEAV<lambda_332c3edc96d0294ec56c57d38c1cdfd5>@@@Z@4HA 00000001800463d0     libucrt:onexit.obj
 0004:000023d0       $pdata$?fin$0@?0???$?RV<lambda_46352004c1216016012b18bd6f87e700>@@AEAV<lambda_3bd07e1a1191394380780325891bf33f>@@V<lambda_334532d3f185bcaa59b5be82d7d22bff>@@@?$__crt_seh_guarded_call@X@@QEAAX$$QEAV<lambda_46352004c1216016012b18bd6f87e700>@@AEAV<lambda_3bd07e1a1191394380780325891bf33f>@@$$QEAV<lambda_334532d3f185bcaa59b5be82d7d22bff>@@@Z@4HA 00000001800463d0     libucrt:per_thread_data.obj
 0004:000023d0       $pdata$?fin$0@?0???$?RV<lambda_fb3a7dec4e47f37f22dae91bb15c9095>@@AEAV<lambda_698284760c8add0bfb0756c19673e34b>@@V<lambda_dfb8eca1e75fef3034a8fb18dd509707>@@@?$__crt_seh_guarded_call@X@@QEAAX$$QEAV<lambda_fb3a7dec4e47f37f22dae91bb15c9095>@@AEAV<lambda_698284760c8add0bfb0756c19673e34b>@@$$QEAV<lambda_dfb8eca1e75fef3034a8fb18dd509707>@@@Z@4HA 00000001800463d0     libucrt:per_thread_data.obj
 0004:000023d0       $pdata$?fin$0@?0???$?RV<lambda_5e887d1dcbef67a5eb4283622ba103bf>@@AEAV<lambda_4466841279450cc726390878d4a41900>@@V<lambda_341c25c0346d94847f1f3c463c57e077>@@@?$__crt_seh_guarded_call@X@@QEAAX$$QEAV<lambda_5e887d1dcbef67a5eb4283622ba103bf>@@AEAV<lambda_4466841279450cc726390878d4a41900>@@$$QEAV<lambda_341c25c0346d94847f1f3c463c57e077>@@@Z@4HA 00000001800463d0     libucrt:per_thread_data.obj
 0004:000023d0       $pdata$?fin$0@?0???$?RV<lambda_99476a1ad63dd22509b5d3e65b0ffc95>@@AEAV<lambda_ad1ced32f4ac17aa236e5ef05d6b3b7c>@@V<lambda_f7424dd8d45958661754dc4f2697e9c3>@@@?$__crt_seh_guarded_call@X@@QEAAX$$QEAV<lambda_99476a1ad63dd22509b5d3e65b0ffc95>@@AEAV<lambda_ad1ced32f4ac17aa236e5ef05d6b3b7c>@@$$QEAV<lambda_f7424dd8d45958661754dc4f2697e9c3>@@@Z@4HA 00000001800463d0     libucrt:mbctype.obj
 0004:000023dc       $pdata$__acrt_initialize_lowio$fin$0 00000001800463dc     libucrt:ioinit.obj
 0004:000023dc       $pdata$_alloc_osfhnd$fin$0 00000001800463dc     libucrt:osfinfo.obj
 0004:000023dc       $pdata$__acrt_lowio_ensure_fh_exists$fin$0 00000001800463dc     libucrt:osfinfo.obj
 0004:000023e8       $pdata$?fin$0@?0??__acrt_stdio_allocate_stream@@YA?AV__crt_stdio_stream@@XZ@4HA 00000001800463e8     libucrt:stream.obj
 0004:000023e8       $pdata$_fcloseall$fin$0    00000001800463e8     libucrt:closeall.obj
 0004:000023f4       $pdata$?fin$0@?0???$?RV<lambda_b521505b218e5242e90febf6bfebc422>@@AEAV<lambda_6978c1fb23f02e42e1d9e99668cc68aa>@@V<lambda_314360699dd331753a4119843814e9a7>@@@?$__crt_seh_guarded_call@H@@QEAAH$$QEAV<lambda_b521505b218e5242e90febf6bfebc422>@@AEAV<lambda_6978c1fb23f02e42e1d9e99668cc68aa>@@$$QEAV<lambda_314360699dd331753a4119843814e9a7>@@@Z@4HA 00000001800463f4     libucrt:commit.obj
 0004:000023f4       $pdata$?fin$0@?0???$?RV<lambda_bfedae4ebbf01fab1bb6dcc6a9e276e0>@@AEAV<lambda_2fe9b910cf3cbf4a0ab98a02ba45b3ec>@@V<lambda_237c231691f317818eb88cc1d5d642d6>@@@?$__crt_seh_guarded_call@H@@QEAAH$$QEAV<lambda_bfedae4ebbf01fab1bb6dcc6a9e276e0>@@AEAV<lambda_2fe9b910cf3cbf4a0ab98a02ba45b3ec>@@$$QEAV<lambda_237c231691f317818eb88cc1d5d642d6>@@@Z@4HA 00000001800463f4     libucrt:close.obj
 0004:00002400       $pdata$__acrt_update_thread_multibyte_data$fin$0 0000000180046400     libucrt:mbctype.obj
 0004:0000240c       $pdata$_read$fin$0         000000018004640c     libucrt:read.obj
 0004:0000240c       $pdata$_write$fin$0        000000018004640c     libucrt:write.obj
 0004:0000240c       $pdata$?fin$0@?0???$common_lseek@_J@@YA_JH_JH@Z@4HA 000000018004640c     libucrt:lseek.obj
 0004:00002418       $pdata$__acrt_uninitialize_locale$fin$0 0000000180046418     libucrt:wsetlocale.obj
 0004:00002418       $pdata$__acrt_update_thread_locale_data$fin$0 0000000180046418     libucrt:locale_refcounting.obj
 0004:00002424       $pdata$?fin$0@?0???$common_sopen_dispatch@D@@YAHQEBDHHHQEAHH@Z@4HA 0000000180046424     libucrt:open.obj
 0004:00002430       $pdata$common_control87$filt$0 0000000180046430     libucrt:ieee.obj
 0004:00002430       $pdata$_ctrlfp$filt$0      0000000180046430     libucrt:fpctrl.obj
 0004:0000243c       $pdata$_IsNonwritableInCurrentImage$filt$0 000000018004643c     LIBCMT:pesect.obj
 0004:00002448       $pdata$??__F?constructor@Canvas@@2V?$Persistent@VFunctionTemplate@v8@@V?$NonCopyablePersistentTraits@VFunctionTemplate@v8@@@2@@Nan@@A@@YAXXZ 0000000180046448     Canvas.obj
 0004:00002454       $pdata$??__F?constructor@Gradient@@2V?$Persistent@VFunctionTemplate@v8@@V?$NonCopyablePersistentTraits@VFunctionTemplate@v8@@@2@@Nan@@A@@YAXXZ 0000000180046454     CanvasGradient.obj
 0004:00002460       $pdata$??__F?constructor@Pattern@@2V?$Persistent@VFunctionTemplate@v8@@V?$NonCopyablePersistentTraits@VFunctionTemplate@v8@@@2@@Nan@@A@@YAXXZ 0000000180046460     CanvasPattern.obj
 0004:0000246c       $pdata$??__F?constructor@Context2d@@2V?$Persistent@VFunctionTemplate@v8@@V?$NonCopyablePersistentTraits@VFunctionTemplate@v8@@@2@@Nan@@A@@YAXXZ 000000018004646c     CanvasRenderingContext2d.obj
 0004:00002478       $pdata$??__F?constructor@Image@@2V?$Persistent@VFunctionTemplate@v8@@V?$NonCopyablePersistentTraits@VFunctionTemplate@v8@@@2@@Nan@@A@@YAXXZ 0000000180046478     Image.obj
 0004:00002484       $pdata$??__F?constructor@ImageData@@2V?$Persistent@VFunctionTemplate@v8@@V?$NonCopyablePersistentTraits@VFunctionTemplate@v8@@@2@@Nan@@A@@YAXXZ 0000000180046484     ImageData.obj
 0005:00000000       __guard_fids__             0000000180047000     libucrt:initialization.obj
 0005:00000060       __guard_fids___acrt_show_wide_message_box 0000000180047060     libucrt:crtmbox.obj
 0005:00000064       __guard_fids___acrt_initialize_ptd 0000000180047064     libucrt:per_thread_data.obj
 0005:00000068       __guard_fids__             0000000180047068     libucrt:stdio_initializer.obj
 0005:0000006c       __guard_fids__             000000018004706c     libucrt:stdio_initializer.obj
 0005:00000070       __guard_fids_??$expand_argument_wildcards@D@@YAHQEAD0AEAV?$argument_list@D@?A0xca0879c4@@@Z 0000000180047070     libucrt:argv_wildcards.obj
 0005:00000074       __guard_fids__             0000000180047074     libucrt:locale_initializer.obj
 0005:00000078       __guard_fids__             0000000180047078     libucrt:multibyte_initializer.obj
 0005:0000007c       __guard_fids__             000000018004707c     libucrt:console_output_initializer.obj
 0005:00000080       __guard_fids__             0000000180047080     libucrt:fma3_initializer.obj
 0005:00000084       __guard_fids__             0000000180047084     libcpmt:xthrow.obj
 0005:0000008c       __guard_fids__             000000018004708c     libcpmt:xthrow.obj
 0005:00000094       __guard_fids__             0000000180047094     libcpmt:xthrow.obj
 0005:0000009c       __guard_fids__             000000018004709c     libcpmt:xthrow.obj
 0005:000000a4       __guard_fids_?dllmain_crt_process_attach@@YAHQEAUHINSTANCE__@@QEAX@Z 00000001800470a4     LIBCMT:dll_dllmain.obj
 0005:000000ac       __guard_fids_?dllmain_dispatch@@YAHQEAUHINSTANCE__@@KQEAX@Z 00000001800470ac     LIBCMT:dll_dllmain.obj
 0005:000000b0       __guard_fids__             00000001800470b0     LIBCMT:std_type_info_static.obj
 0005:000000b4       __guard_fids__             00000001800470b4     LIBCMT:throw_bad_alloc.obj
 0005:000000bc       __guard_fids__             00000001800470bc     LIBCMT:guard_support.obj
 0005:000000c0       __guard_fids__             00000001800470c0     libvcruntime:frame.obj
 0005:000000c4       __guard_fids__             00000001800470c4     libvcruntime:frame.obj
 0005:000000cc       __guard_fids___vcrt_initialize_ptd 00000001800470cc     libvcruntime:per_thread_data.obj
 0005:000000d0       __guard_fids__UnwindNestedFrames 00000001800470d0     libvcruntime:trnsctrl.obj
 0006:00000060       $R000000                   0000000180048060     * linker generated manifest res *

 Exports

  ordinal    name

        1    _register_canvas_
